ARM GAS  C:\Users\danig\AppData\Local\Temp\cczbxOjJ.s 			page 1


   1              		.cpu cortex-m7
   2              		.eabi_attribute 28, 1
   3              		.eabi_attribute 20, 1
   4              		.eabi_attribute 21, 1
   5              		.eabi_attribute 23, 3
   6              		.eabi_attribute 24, 1
   7              		.eabi_attribute 25, 1
   8              		.eabi_attribute 26, 1
   9              		.eabi_attribute 30, 4
  10              		.eabi_attribute 34, 1
  11              		.eabi_attribute 18, 4
  12              		.file	"Display.cpp"
  13              		.text
  14              	.Ltext0:
  15              		.cfi_sections	.debug_frame
  16              		.section	.text._ZN5daisy11OledDisplayINS_13SSD130xDriverILj128ELj64ENS_24SSD130x4WireSpiTransportE
  17              		.align	1
  18              		.weak	_ZN5daisy11OledDisplayINS_13SSD130xDriverILj128ELj64ENS_24SSD130x4WireSpiTransportEEEED2Ev
  19              		.arch armv7e-m
  20              		.syntax unified
  21              		.thumb
  22              		.thumb_func
  23              		.fpu fpv5-d16
  25              	_ZN5daisy11OledDisplayINS_13SSD130xDriverILj128ELj64ENS_24SSD130x4WireSpiTransportEEEED2Ev:
  26              	.LVL0:
  27              	.LFB2821:
  28              		.file 1 "../../libDaisy//src/hid/disp/oled_display.h"
   1:../../libDaisy//src/hid/disp/oled_display.h **** #pragma once
   2:../../libDaisy//src/hid/disp/oled_display.h **** #ifndef DSY_OLED_DISPLAY_H
   3:../../libDaisy//src/hid/disp/oled_display.h **** #define DSY_OLED_DISPLAY_H /**< Macro */
   4:../../libDaisy//src/hid/disp/oled_display.h **** 
   5:../../libDaisy//src/hid/disp/oled_display.h **** #include "display.h"
   6:../../libDaisy//src/hid/disp/oled_display.h **** 
   7:../../libDaisy//src/hid/disp/oled_display.h **** namespace daisy
   8:../../libDaisy//src/hid/disp/oled_display.h **** {
   9:../../libDaisy//src/hid/disp/oled_display.h **** /** 
  10:../../libDaisy//src/hid/disp/oled_display.h ****  * This class is for drawing to a monochrome OLED display. 
  11:../../libDaisy//src/hid/disp/oled_display.h ****  * @ingroup device
  12:../../libDaisy//src/hid/disp/oled_display.h **** */
  13:../../libDaisy//src/hid/disp/oled_display.h **** template <typename DisplayDriver>
  14:../../libDaisy//src/hid/disp/oled_display.h **** class OledDisplay : public OneBitGraphicsDisplayImpl<OledDisplay<DisplayDriver>>
  15:../../libDaisy//src/hid/disp/oled_display.h **** {
  16:../../libDaisy//src/hid/disp/oled_display.h ****   public:
  17:../../libDaisy//src/hid/disp/oled_display.h ****     OledDisplay() {}
  18:../../libDaisy//src/hid/disp/oled_display.h ****     virtual ~OledDisplay() {}
  29              		.loc 1 18 13 view -0
  30              		.cfi_startproc
  31              		@ args = 0, pretend = 0, frame = 0
  32              		@ frame_needed = 0, uses_anonymous_args = 0
  33              		@ link register save eliminated.
  34              	.LBB262:
  35              	.LBI262:
  36              		.file 2 "../../libDaisy//src/hid/disp/display.h"
   1:../../libDaisy//src/hid/disp/display.h **** #pragma once
   2:../../libDaisy//src/hid/disp/display.h **** #ifndef DSY_DISPLAY_H
   3:../../libDaisy//src/hid/disp/display.h **** #define DSY_DISPLAY_H /**< Macro */
   4:../../libDaisy//src/hid/disp/display.h **** #include <cmath>
ARM GAS  C:\Users\danig\AppData\Local\Temp\cczbxOjJ.s 			page 2


   5:../../libDaisy//src/hid/disp/display.h **** #include "util/oled_fonts.h"
   6:../../libDaisy//src/hid/disp/display.h **** #include "daisy_core.h"
   7:../../libDaisy//src/hid/disp/display.h **** #include "graphics_common.h"
   8:../../libDaisy//src/hid/disp/display.h **** 
   9:../../libDaisy//src/hid/disp/display.h **** #ifndef deg2rad
  10:../../libDaisy//src/hid/disp/display.h **** #define deg2rad(deg) ((deg)*3.141592 / 180.0)
  11:../../libDaisy//src/hid/disp/display.h **** #endif
  12:../../libDaisy//src/hid/disp/display.h **** 
  13:../../libDaisy//src/hid/disp/display.h **** namespace daisy
  14:../../libDaisy//src/hid/disp/display.h **** {
  15:../../libDaisy//src/hid/disp/display.h **** /** 
  16:../../libDaisy//src/hid/disp/display.h ****  * This interface is used as a base class for all types of 1bit-per-pixel
  17:../../libDaisy//src/hid/disp/display.h ****  * graphics displays.
  18:../../libDaisy//src/hid/disp/display.h **** */
  19:../../libDaisy//src/hid/disp/display.h **** class OneBitGraphicsDisplay
  20:../../libDaisy//src/hid/disp/display.h **** {
  21:../../libDaisy//src/hid/disp/display.h ****   public:
  22:../../libDaisy//src/hid/disp/display.h ****     OneBitGraphicsDisplay() {}
  23:../../libDaisy//src/hid/disp/display.h ****     virtual ~OneBitGraphicsDisplay() {}
  24:../../libDaisy//src/hid/disp/display.h **** 
  25:../../libDaisy//src/hid/disp/display.h ****     virtual uint16_t Height() const = 0;
  26:../../libDaisy//src/hid/disp/display.h ****     virtual uint16_t Width() const  = 0;
  27:../../libDaisy//src/hid/disp/display.h **** 
  28:../../libDaisy//src/hid/disp/display.h ****     Rectangle GetBounds() const
  29:../../libDaisy//src/hid/disp/display.h ****     {
  30:../../libDaisy//src/hid/disp/display.h ****         return Rectangle(int16_t(Width()), int16_t(Height()));
  31:../../libDaisy//src/hid/disp/display.h ****     }
  32:../../libDaisy//src/hid/disp/display.h **** 
  33:../../libDaisy//src/hid/disp/display.h **** 
  34:../../libDaisy//src/hid/disp/display.h ****     size_t CurrentX() { return currentX_; };
  35:../../libDaisy//src/hid/disp/display.h ****     size_t CurrentY() { return currentY_; };
  36:../../libDaisy//src/hid/disp/display.h **** 
  37:../../libDaisy//src/hid/disp/display.h ****     /** 
  38:../../libDaisy//src/hid/disp/display.h ****     Fills the entire display with either on/off.
  39:../../libDaisy//src/hid/disp/display.h ****     \param on Sets on or off.
  40:../../libDaisy//src/hid/disp/display.h ****     */
  41:../../libDaisy//src/hid/disp/display.h ****     virtual void Fill(bool on) = 0;
  42:../../libDaisy//src/hid/disp/display.h **** 
  43:../../libDaisy//src/hid/disp/display.h ****     /**
  44:../../libDaisy//src/hid/disp/display.h ****     Sets the pixel at the specified coordinate to be on/off.
  45:../../libDaisy//src/hid/disp/display.h ****     \param x   x Coordinate
  46:../../libDaisy//src/hid/disp/display.h ****     \param y   y coordinate
  47:../../libDaisy//src/hid/disp/display.h ****     \param on  on or off
  48:../../libDaisy//src/hid/disp/display.h ****     */
  49:../../libDaisy//src/hid/disp/display.h ****     virtual void DrawPixel(uint_fast8_t x, uint_fast8_t y, bool on) = 0;
  50:../../libDaisy//src/hid/disp/display.h **** 
  51:../../libDaisy//src/hid/disp/display.h ****     /**
  52:../../libDaisy//src/hid/disp/display.h ****     Draws a line from (x1, y1) to (y1, y2)
  53:../../libDaisy//src/hid/disp/display.h ****     \param x1  x Coordinate of the starting point
  54:../../libDaisy//src/hid/disp/display.h ****     \param y1  y Coordinate of the starting point
  55:../../libDaisy//src/hid/disp/display.h ****     \param x2  x Coordinate of the ending point
  56:../../libDaisy//src/hid/disp/display.h ****     \param y2  y Coordinate of the ending point
  57:../../libDaisy//src/hid/disp/display.h ****     \param on  on or off
  58:../../libDaisy//src/hid/disp/display.h ****     */
  59:../../libDaisy//src/hid/disp/display.h ****     virtual void DrawLine(uint_fast8_t x1,
  60:../../libDaisy//src/hid/disp/display.h ****                           uint_fast8_t y1,
  61:../../libDaisy//src/hid/disp/display.h ****                           uint_fast8_t x2,
ARM GAS  C:\Users\danig\AppData\Local\Temp\cczbxOjJ.s 			page 3


  62:../../libDaisy//src/hid/disp/display.h ****                           uint_fast8_t y2,
  63:../../libDaisy//src/hid/disp/display.h ****                           bool         on)
  64:../../libDaisy//src/hid/disp/display.h ****         = 0;
  65:../../libDaisy//src/hid/disp/display.h **** 
  66:../../libDaisy//src/hid/disp/display.h ****     /**
  67:../../libDaisy//src/hid/disp/display.h ****     Draws a rectangle based on two coordinates.
  68:../../libDaisy//src/hid/disp/display.h ****     \param x1 x Coordinate of the first point
  69:../../libDaisy//src/hid/disp/display.h ****     \param y1 y Coordinate of the first point
  70:../../libDaisy//src/hid/disp/display.h ****     \param x2 x Coordinate of the second point
  71:../../libDaisy//src/hid/disp/display.h ****     \param y2 y Coordinate of the second point
  72:../../libDaisy//src/hid/disp/display.h ****     \param on on or off
  73:../../libDaisy//src/hid/disp/display.h ****     \param fill fill the rectangle or draw only the outline
  74:../../libDaisy//src/hid/disp/display.h ****     */
  75:../../libDaisy//src/hid/disp/display.h ****     virtual void DrawRect(uint_fast8_t x1,
  76:../../libDaisy//src/hid/disp/display.h ****                           uint_fast8_t y1,
  77:../../libDaisy//src/hid/disp/display.h ****                           uint_fast8_t x2,
  78:../../libDaisy//src/hid/disp/display.h ****                           uint_fast8_t y2,
  79:../../libDaisy//src/hid/disp/display.h ****                           bool         on,
  80:../../libDaisy//src/hid/disp/display.h ****                           bool         fill = false)
  81:../../libDaisy//src/hid/disp/display.h ****         = 0;
  82:../../libDaisy//src/hid/disp/display.h **** 
  83:../../libDaisy//src/hid/disp/display.h ****     /**
  84:../../libDaisy//src/hid/disp/display.h ****     Draws a rectangle.
  85:../../libDaisy//src/hid/disp/display.h ****     \param rect the rectangle
  86:../../libDaisy//src/hid/disp/display.h ****     \param on   on or off
  87:../../libDaisy//src/hid/disp/display.h ****     \param fill fill the rectangle or draw only the outline
  88:../../libDaisy//src/hid/disp/display.h ****     */
  89:../../libDaisy//src/hid/disp/display.h ****     void DrawRect(const Rectangle& rect, bool on, bool fill = false)
  90:../../libDaisy//src/hid/disp/display.h ****     {
  91:../../libDaisy//src/hid/disp/display.h ****         DrawRect(rect.GetX(),
  92:../../libDaisy//src/hid/disp/display.h ****                  rect.GetY(),
  93:../../libDaisy//src/hid/disp/display.h ****                  rect.GetRight(),
  94:../../libDaisy//src/hid/disp/display.h ****                  rect.GetBottom(),
  95:../../libDaisy//src/hid/disp/display.h ****                  on,
  96:../../libDaisy//src/hid/disp/display.h ****                  fill);
  97:../../libDaisy//src/hid/disp/display.h ****     }
  98:../../libDaisy//src/hid/disp/display.h **** 
  99:../../libDaisy//src/hid/disp/display.h ****     /**
 100:../../libDaisy//src/hid/disp/display.h ****     Draws an arc around the specified coordinate
 101:../../libDaisy//src/hid/disp/display.h ****     \param x           x Coordinate of the center of the arc
 102:../../libDaisy//src/hid/disp/display.h ****     \param y           y Coordinate of the center of the arc
 103:../../libDaisy//src/hid/disp/display.h ****     \param radius      radius of the arc
 104:../../libDaisy//src/hid/disp/display.h ****     \param start_angle angle where to start the arc
 105:../../libDaisy//src/hid/disp/display.h ****     \param sweep       total angle of the arc
 106:../../libDaisy//src/hid/disp/display.h ****     \param on  on or off
 107:../../libDaisy//src/hid/disp/display.h ****     */
 108:../../libDaisy//src/hid/disp/display.h ****     virtual void DrawArc(uint_fast8_t x,
 109:../../libDaisy//src/hid/disp/display.h ****                          uint_fast8_t y,
 110:../../libDaisy//src/hid/disp/display.h ****                          uint_fast8_t radius,
 111:../../libDaisy//src/hid/disp/display.h ****                          int_fast16_t start_angle,
 112:../../libDaisy//src/hid/disp/display.h ****                          int_fast16_t sweep,
 113:../../libDaisy//src/hid/disp/display.h ****                          bool         on)
 114:../../libDaisy//src/hid/disp/display.h ****         = 0;
 115:../../libDaisy//src/hid/disp/display.h **** 
 116:../../libDaisy//src/hid/disp/display.h ****     /**
 117:../../libDaisy//src/hid/disp/display.h ****     Draws a circle around the specified coordinate
 118:../../libDaisy//src/hid/disp/display.h ****     \param x           x Coordinate of the center of the circle
ARM GAS  C:\Users\danig\AppData\Local\Temp\cczbxOjJ.s 			page 4


 119:../../libDaisy//src/hid/disp/display.h ****     \param y           y Coordinate of the center of the circle
 120:../../libDaisy//src/hid/disp/display.h ****     \param radius      radius of the circle
 121:../../libDaisy//src/hid/disp/display.h ****     \param on  on or off
 122:../../libDaisy//src/hid/disp/display.h ****     */
 123:../../libDaisy//src/hid/disp/display.h ****     void
 124:../../libDaisy//src/hid/disp/display.h ****     DrawCircle(uint_fast8_t x, uint_fast8_t y, uint_fast8_t radius, bool on)
 125:../../libDaisy//src/hid/disp/display.h ****     {
 126:../../libDaisy//src/hid/disp/display.h ****         DrawArc(x, y, radius, 0, 360, on);
 127:../../libDaisy//src/hid/disp/display.h ****     };
 128:../../libDaisy//src/hid/disp/display.h **** 
 129:../../libDaisy//src/hid/disp/display.h ****     /** 
 130:../../libDaisy//src/hid/disp/display.h ****     Writes the character with the specific FontDef
 131:../../libDaisy//src/hid/disp/display.h ****     to the display buffer at the current Cursor position.
 132:../../libDaisy//src/hid/disp/display.h ****     \param ch character to be written
 133:../../libDaisy//src/hid/disp/display.h ****     \param font font to be written in
 134:../../libDaisy//src/hid/disp/display.h ****     \param on    on or off
 135:../../libDaisy//src/hid/disp/display.h ****     \return &
 136:../../libDaisy//src/hid/disp/display.h ****     */
 137:../../libDaisy//src/hid/disp/display.h ****     virtual char WriteChar(char ch, FontDef font, bool on) = 0;
 138:../../libDaisy//src/hid/disp/display.h **** 
 139:../../libDaisy//src/hid/disp/display.h ****     /** 
 140:../../libDaisy//src/hid/disp/display.h ****     Similar to WriteChar, except it will handle an entire String.
 141:../../libDaisy//src/hid/disp/display.h ****     Wrapping does not happen automatically, so the width
 142:../../libDaisy//src/hid/disp/display.h ****     of the string must be kept within the dimensions of the screen.
 143:../../libDaisy//src/hid/disp/display.h ****     \param str string to be written
 144:../../libDaisy//src/hid/disp/display.h ****     \param font font to use
 145:../../libDaisy//src/hid/disp/display.h ****     \param on  on or off
 146:../../libDaisy//src/hid/disp/display.h ****     \return &
 147:../../libDaisy//src/hid/disp/display.h ****     */
 148:../../libDaisy//src/hid/disp/display.h ****     virtual char WriteString(const char* str, FontDef font, bool on) = 0;
 149:../../libDaisy//src/hid/disp/display.h **** 
 150:../../libDaisy//src/hid/disp/display.h ****     /** 
 151:../../libDaisy//src/hid/disp/display.h ****     Similar to WriteString but justified within a bounding box.
 152:../../libDaisy//src/hid/disp/display.h ****     \param str          string to be written
 153:../../libDaisy//src/hid/disp/display.h ****     \param font         font to use
 154:../../libDaisy//src/hid/disp/display.h ****     \param boundingBox  the bounding box to draw the text in
 155:../../libDaisy//src/hid/disp/display.h ****     \param alignment    the alignment to use
 156:../../libDaisy//src/hid/disp/display.h ****     \param on           on or off
 157:../../libDaisy//src/hid/disp/display.h ****     \return The rectangle that was drawn to
 158:../../libDaisy//src/hid/disp/display.h ****     */
 159:../../libDaisy//src/hid/disp/display.h ****     virtual Rectangle WriteStringAligned(const char*    str,
 160:../../libDaisy//src/hid/disp/display.h ****                                          const FontDef& font,
 161:../../libDaisy//src/hid/disp/display.h ****                                          Rectangle      boundingBox,
 162:../../libDaisy//src/hid/disp/display.h ****                                          Alignment      alignment,
 163:../../libDaisy//src/hid/disp/display.h ****                                          bool           on)
 164:../../libDaisy//src/hid/disp/display.h ****         = 0;
 165:../../libDaisy//src/hid/disp/display.h **** 
 166:../../libDaisy//src/hid/disp/display.h ****     /** 
 167:../../libDaisy//src/hid/disp/display.h ****     Moves the 'Cursor' position used for WriteChar, and WriteStr to the specified coordinate.
 168:../../libDaisy//src/hid/disp/display.h ****     \param x x pos
 169:../../libDaisy//src/hid/disp/display.h ****     \param y y pos
 170:../../libDaisy//src/hid/disp/display.h ****     */
 171:../../libDaisy//src/hid/disp/display.h ****     void SetCursor(uint16_t x, uint16_t y)
 172:../../libDaisy//src/hid/disp/display.h ****     {
 173:../../libDaisy//src/hid/disp/display.h ****         currentX_ = (x >= Width()) ? Width() - 1 : x;
 174:../../libDaisy//src/hid/disp/display.h ****         currentY_ = (y >= Height()) ? Height() - 1 : y;
 175:../../libDaisy//src/hid/disp/display.h ****     }
ARM GAS  C:\Users\danig\AppData\Local\Temp\cczbxOjJ.s 			page 5


 176:../../libDaisy//src/hid/disp/display.h **** 
 177:../../libDaisy//src/hid/disp/display.h ****     /** 
 178:../../libDaisy//src/hid/disp/display.h ****     Writes the current display buffer to the OLED device using SPI or I2C depending on 
 179:../../libDaisy//src/hid/disp/display.h ****     how the object was initialized.
 180:../../libDaisy//src/hid/disp/display.h ****     */
 181:../../libDaisy//src/hid/disp/display.h ****     virtual void Update() = 0;
 182:../../libDaisy//src/hid/disp/display.h **** 
 183:../../libDaisy//src/hid/disp/display.h ****     /** 
 184:../../libDaisy//src/hid/disp/display.h ****     Returns true if the Update has finished, used for chained DMA transfers
 185:../../libDaisy//src/hid/disp/display.h ****     */
 186:../../libDaisy//src/hid/disp/display.h ****     virtual bool UpdateFinished() = 0;
 187:../../libDaisy//src/hid/disp/display.h **** 
 188:../../libDaisy//src/hid/disp/display.h ****   protected:
 189:../../libDaisy//src/hid/disp/display.h ****     uint16_t currentX_;
 190:../../libDaisy//src/hid/disp/display.h ****     uint16_t currentY_;
 191:../../libDaisy//src/hid/disp/display.h **** };
 192:../../libDaisy//src/hid/disp/display.h **** 
 193:../../libDaisy//src/hid/disp/display.h **** /** This class is intended as a intermediary class for your actual implementation of the OneBitGrap
 194:../../libDaisy//src/hid/disp/display.h ****  *  interface. It uses the CRTP design pattern where the template argument is the child class. It p
 195:../../libDaisy//src/hid/disp/display.h ****  *  implementations for most of the functions, except DrawPixel(), Update() and Fill(), which you'l
 196:../../libDaisy//src/hid/disp/display.h ****  *  to provide in your child class.
 197:../../libDaisy//src/hid/disp/display.h ****  *  The main goal of this class is to provide common drawing functions without relying on massive a
 198:../../libDaisy//src/hid/disp/display.h ****  *  virtual function calls that would result in a performance loss. To achieve this, any drawing fu
 199:../../libDaisy//src/hid/disp/display.h ****  *  is implemented here and internally calls other drawing functions (e.g. DrawRect() which interna
 200:../../libDaisy//src/hid/disp/display.h ****  *  DrawPixel() and DrawLine()) makes these calls via the qualified name of these functions to expl
 201:../../libDaisy//src/hid/disp/display.h ****  *  suppress the virtual dispatch mechanism like this:
 202:../../libDaisy//src/hid/disp/display.h ****  * 
 203:../../libDaisy//src/hid/disp/display.h ****  *      ChildType::DrawPixel(...); // no virtual function call; direct call into the child class fu
 204:../../libDaisy//src/hid/disp/display.h ****  *  
 205:../../libDaisy//src/hid/disp/display.h ****  *  To create a custom OneBitGraphicsDisplay implementation, you can 
 206:../../libDaisy//src/hid/disp/display.h ****  *  A) inherit from OneBitGraphicsDisplay directly and provide all the drawing functions yourself
 207:../../libDaisy//src/hid/disp/display.h ****  *  B) Inherit from OneBitGraphicsDisplayImpl and only provide DrawPixel(), Fill() and Update()
 208:../../libDaisy//src/hid/disp/display.h ****  *     like this:
 209:../../libDaisy//src/hid/disp/display.h ****  *  
 210:../../libDaisy//src/hid/disp/display.h ****  *      class MyDisplayClass : public OneBitGraphicsDisplayImpl<MyDisplayClass> 
 211:../../libDaisy//src/hid/disp/display.h ****  *      {
 212:../../libDaisy//src/hid/disp/display.h ****  *      public:
 213:../../libDaisy//src/hid/disp/display.h ****  *          void Fill() override { ... };
 214:../../libDaisy//src/hid/disp/display.h ****  *          void DrawPixel(uint_fast8_t x, uint_fast8_t y, bool on) override { ... };
 215:../../libDaisy//src/hid/disp/display.h ****  *          void Update() override { ... }
 216:../../libDaisy//src/hid/disp/display.h ****  *      };
 217:../../libDaisy//src/hid/disp/display.h ****  *  
 218:../../libDaisy//src/hid/disp/display.h ****  */
 219:../../libDaisy//src/hid/disp/display.h **** template <class ChildType>
 220:../../libDaisy//src/hid/disp/display.h **** class OneBitGraphicsDisplayImpl : public OneBitGraphicsDisplay
 221:../../libDaisy//src/hid/disp/display.h **** {
 222:../../libDaisy//src/hid/disp/display.h ****   public:
 223:../../libDaisy//src/hid/disp/display.h ****     OneBitGraphicsDisplayImpl() {}
 224:../../libDaisy//src/hid/disp/display.h ****     virtual ~OneBitGraphicsDisplayImpl() {}
  37              		.loc 2 224 13 view .LVU1
  38              	.LBB263:
  39              	.LBI263:
  23:../../libDaisy//src/hid/disp/display.h **** 
  40              		.loc 2 23 13 view .LVU2
  23:../../libDaisy//src/hid/disp/display.h **** 
  41              		.loc 2 23 13 is_stmt 0 view .LVU3
  42              	.LBE263:
ARM GAS  C:\Users\danig\AppData\Local\Temp\cczbxOjJ.s 			page 6


  43              	.LBE262:
  44              		.loc 1 18 29 view .LVU4
  45 0000 7047     		bx	lr
  46              		.cfi_endproc
  47              	.LFE2821:
  49              		.weak	_ZN5daisy11OledDisplayINS_13SSD130xDriverILj128ELj64ENS_24SSD130x4WireSpiTransportEEEED1Ev
  50              		.thumb_set _ZN5daisy11OledDisplayINS_13SSD130xDriverILj128ELj64ENS_24SSD130x4WireSpiTransportEEEED
  51              		.section	.text._ZN5daisy11OledDisplayINS_13SSD130xDriverILj128ELj64ENS_24SSD130x4WireSpiTransportE
  52              		.align	1
  53              		.weak	_ZN5daisy11OledDisplayINS_13SSD130xDriverILj128ELj64ENS_24SSD130x4WireSpiTransportEEEE4FillE
  54              		.syntax unified
  55              		.thumb
  56              		.thumb_func
  57              		.fpu fpv5-d16
  59              	_ZN5daisy11OledDisplayINS_13SSD130xDriverILj128ELj64ENS_24SSD130x4WireSpiTransportEEEE4FillEb:
  60              	.LVL1:
  61              	.LFB2825:
  19:../../libDaisy//src/hid/disp/oled_display.h **** 
  20:../../libDaisy//src/hid/disp/oled_display.h ****     struct Config
  21:../../libDaisy//src/hid/disp/oled_display.h ****     {
  22:../../libDaisy//src/hid/disp/oled_display.h ****         typename DisplayDriver::Config driver_config;
  23:../../libDaisy//src/hid/disp/oled_display.h ****     };
  24:../../libDaisy//src/hid/disp/oled_display.h **** 
  25:../../libDaisy//src/hid/disp/oled_display.h ****     void Init(Config config) { driver_.Init(config.driver_config); }
  26:../../libDaisy//src/hid/disp/oled_display.h **** 
  27:../../libDaisy//src/hid/disp/oled_display.h ****     uint16_t Height() const override { return driver_.Height(); }
  28:../../libDaisy//src/hid/disp/oled_display.h ****     uint16_t Width() const override { return driver_.Width(); }
  29:../../libDaisy//src/hid/disp/oled_display.h **** 
  30:../../libDaisy//src/hid/disp/oled_display.h ****     /** 
  31:../../libDaisy//src/hid/disp/oled_display.h ****     Fills the entire display with either on/off.
  32:../../libDaisy//src/hid/disp/oled_display.h ****     \param on Sets on or off.
  33:../../libDaisy//src/hid/disp/oled_display.h ****     */
  34:../../libDaisy//src/hid/disp/oled_display.h ****     void Fill(bool on) override { driver_.Fill(on); }
  62              		.loc 1 34 10 is_stmt 1 view -0
  63              		.cfi_startproc
  64              		@ args = 0, pretend = 0, frame = 0
  65              		@ frame_needed = 0, uses_anonymous_args = 0
  66              		@ link register save eliminated.
  67              	.LBB267:
  68              	.LBI267:
  69              		.file 3 "../../libDaisy//src/dev/oled_ssd130x.h"
   1:../../libDaisy//src/dev/oled_ssd130x.h **** #pragma once
   2:../../libDaisy//src/dev/oled_ssd130x.h **** #ifndef SA_OLED_SSD130X_H
   3:../../libDaisy//src/dev/oled_ssd130x.h **** #define SA_OLED_SSD130X_H /**< & */
   4:../../libDaisy//src/dev/oled_ssd130x.h **** 
   5:../../libDaisy//src/dev/oled_ssd130x.h **** #include "per/i2c.h"
   6:../../libDaisy//src/dev/oled_ssd130x.h **** #include "per/spi.h"
   7:../../libDaisy//src/dev/oled_ssd130x.h **** #include "per/gpio.h"
   8:../../libDaisy//src/dev/oled_ssd130x.h **** #include "sys/system.h"
   9:../../libDaisy//src/dev/oled_ssd130x.h **** #include "stm32h7xx_hal.h"
  10:../../libDaisy//src/dev/oled_ssd130x.h **** 
  11:../../libDaisy//src/dev/oled_ssd130x.h **** namespace daisy
  12:../../libDaisy//src/dev/oled_ssd130x.h **** {
  13:../../libDaisy//src/dev/oled_ssd130x.h **** /**
  14:../../libDaisy//src/dev/oled_ssd130x.h ****  * I2C Transport for SSD1306 / SSD1309 OLED display devices
  15:../../libDaisy//src/dev/oled_ssd130x.h ****  */
  16:../../libDaisy//src/dev/oled_ssd130x.h **** class SSD130xI2CTransport
ARM GAS  C:\Users\danig\AppData\Local\Temp\cczbxOjJ.s 			page 7


  17:../../libDaisy//src/dev/oled_ssd130x.h **** {
  18:../../libDaisy//src/dev/oled_ssd130x.h ****   public:
  19:../../libDaisy//src/dev/oled_ssd130x.h ****     struct Config
  20:../../libDaisy//src/dev/oled_ssd130x.h ****     {
  21:../../libDaisy//src/dev/oled_ssd130x.h ****         Config()
  22:../../libDaisy//src/dev/oled_ssd130x.h ****         {
  23:../../libDaisy//src/dev/oled_ssd130x.h ****             // Intialize using defaults
  24:../../libDaisy//src/dev/oled_ssd130x.h ****             Defaults();
  25:../../libDaisy//src/dev/oled_ssd130x.h ****         }
  26:../../libDaisy//src/dev/oled_ssd130x.h ****         I2CHandle::Config i2c_config;
  27:../../libDaisy//src/dev/oled_ssd130x.h ****         uint8_t           i2c_address;
  28:../../libDaisy//src/dev/oled_ssd130x.h ****         void              Defaults()
  29:../../libDaisy//src/dev/oled_ssd130x.h ****         {
  30:../../libDaisy//src/dev/oled_ssd130x.h ****             i2c_config.periph         = I2CHandle::Config::Peripheral::I2C_1;
  31:../../libDaisy//src/dev/oled_ssd130x.h ****             i2c_config.speed          = I2CHandle::Config::Speed::I2C_1MHZ;
  32:../../libDaisy//src/dev/oled_ssd130x.h ****             i2c_config.mode           = I2CHandle::Config::Mode::I2C_MASTER;
  33:../../libDaisy//src/dev/oled_ssd130x.h ****             i2c_config.pin_config.scl = Pin(PORTB, 8);
  34:../../libDaisy//src/dev/oled_ssd130x.h ****             i2c_config.pin_config.sda = Pin(PORTB, 9);
  35:../../libDaisy//src/dev/oled_ssd130x.h ****             i2c_address               = 0x3C;
  36:../../libDaisy//src/dev/oled_ssd130x.h ****         }
  37:../../libDaisy//src/dev/oled_ssd130x.h ****     };
  38:../../libDaisy//src/dev/oled_ssd130x.h ****     void Init(const Config& config)
  39:../../libDaisy//src/dev/oled_ssd130x.h ****     {
  40:../../libDaisy//src/dev/oled_ssd130x.h ****         i2c_address_ = config.i2c_address;
  41:../../libDaisy//src/dev/oled_ssd130x.h ****         i2c_.Init(config.i2c_config);
  42:../../libDaisy//src/dev/oled_ssd130x.h ****     };
  43:../../libDaisy//src/dev/oled_ssd130x.h ****     void SendCommand(uint8_t cmd)
  44:../../libDaisy//src/dev/oled_ssd130x.h ****     {
  45:../../libDaisy//src/dev/oled_ssd130x.h ****         uint8_t buf[2] = {0X00, cmd};
  46:../../libDaisy//src/dev/oled_ssd130x.h ****         i2c_.TransmitBlocking(i2c_address_, buf, 2, 1000);
  47:../../libDaisy//src/dev/oled_ssd130x.h ****     };
  48:../../libDaisy//src/dev/oled_ssd130x.h **** 
  49:../../libDaisy//src/dev/oled_ssd130x.h ****     void SendData(uint8_t* buff, size_t size)
  50:../../libDaisy//src/dev/oled_ssd130x.h ****     {
  51:../../libDaisy//src/dev/oled_ssd130x.h ****         for(size_t i = 0; i < size; i++)
  52:../../libDaisy//src/dev/oled_ssd130x.h ****         {
  53:../../libDaisy//src/dev/oled_ssd130x.h ****             uint8_t buf[2] = {0X40, buff[i]};
  54:../../libDaisy//src/dev/oled_ssd130x.h ****             i2c_.TransmitBlocking(i2c_address_, buf, 2, 1000);
  55:../../libDaisy//src/dev/oled_ssd130x.h ****         }
  56:../../libDaisy//src/dev/oled_ssd130x.h ****     };
  57:../../libDaisy//src/dev/oled_ssd130x.h **** 
  58:../../libDaisy//src/dev/oled_ssd130x.h ****   private:
  59:../../libDaisy//src/dev/oled_ssd130x.h ****     daisy::I2CHandle i2c_;
  60:../../libDaisy//src/dev/oled_ssd130x.h ****     uint8_t          i2c_address_;
  61:../../libDaisy//src/dev/oled_ssd130x.h **** };
  62:../../libDaisy//src/dev/oled_ssd130x.h **** 
  63:../../libDaisy//src/dev/oled_ssd130x.h **** /**
  64:../../libDaisy//src/dev/oled_ssd130x.h ****  * 4 Wire SPI Transport for SSD1306 / SSD1309 OLED display devices
  65:../../libDaisy//src/dev/oled_ssd130x.h ****  */
  66:../../libDaisy//src/dev/oled_ssd130x.h **** class SSD130x4WireSpiTransport
  67:../../libDaisy//src/dev/oled_ssd130x.h **** {
  68:../../libDaisy//src/dev/oled_ssd130x.h ****   public:
  69:../../libDaisy//src/dev/oled_ssd130x.h ****     struct Config
  70:../../libDaisy//src/dev/oled_ssd130x.h ****     {
  71:../../libDaisy//src/dev/oled_ssd130x.h ****         Config()
  72:../../libDaisy//src/dev/oled_ssd130x.h ****         {
  73:../../libDaisy//src/dev/oled_ssd130x.h ****             // Initialize using defaults
ARM GAS  C:\Users\danig\AppData\Local\Temp\cczbxOjJ.s 			page 8


  74:../../libDaisy//src/dev/oled_ssd130x.h ****             Defaults();
  75:../../libDaisy//src/dev/oled_ssd130x.h ****         }
  76:../../libDaisy//src/dev/oled_ssd130x.h ****         SpiHandle::Config spi_config;
  77:../../libDaisy//src/dev/oled_ssd130x.h ****         struct
  78:../../libDaisy//src/dev/oled_ssd130x.h ****         {
  79:../../libDaisy//src/dev/oled_ssd130x.h ****             Pin dc;    /**< & */
  80:../../libDaisy//src/dev/oled_ssd130x.h ****             Pin reset; /**< & */
  81:../../libDaisy//src/dev/oled_ssd130x.h ****         } pin_config;
  82:../../libDaisy//src/dev/oled_ssd130x.h ****         bool useDma;
  83:../../libDaisy//src/dev/oled_ssd130x.h ****         void Defaults()
  84:../../libDaisy//src/dev/oled_ssd130x.h ****         {
  85:../../libDaisy//src/dev/oled_ssd130x.h ****             // SPI peripheral config
  86:../../libDaisy//src/dev/oled_ssd130x.h ****             spi_config.periph = SpiHandle::Config::Peripheral::SPI_1;
  87:../../libDaisy//src/dev/oled_ssd130x.h ****             spi_config.mode   = SpiHandle::Config::Mode::MASTER;
  88:../../libDaisy//src/dev/oled_ssd130x.h ****             spi_config.direction
  89:../../libDaisy//src/dev/oled_ssd130x.h ****                 = SpiHandle::Config::Direction::TWO_LINES_TX_ONLY;
  90:../../libDaisy//src/dev/oled_ssd130x.h ****             spi_config.datasize       = 8;
  91:../../libDaisy//src/dev/oled_ssd130x.h ****             spi_config.clock_polarity = SpiHandle::Config::ClockPolarity::LOW;
  92:../../libDaisy//src/dev/oled_ssd130x.h ****             spi_config.clock_phase    = SpiHandle::Config::ClockPhase::ONE_EDGE;
  93:../../libDaisy//src/dev/oled_ssd130x.h ****             spi_config.nss            = SpiHandle::Config::NSS::HARD_OUTPUT;
  94:../../libDaisy//src/dev/oled_ssd130x.h ****             spi_config.baud_prescaler = SpiHandle::Config::BaudPrescaler::PS_8;
  95:../../libDaisy//src/dev/oled_ssd130x.h ****             // SPI pin config
  96:../../libDaisy//src/dev/oled_ssd130x.h ****             spi_config.pin_config.sclk = Pin(PORTG, 11);
  97:../../libDaisy//src/dev/oled_ssd130x.h ****             spi_config.pin_config.miso = Pin(PORTX, 0);
  98:../../libDaisy//src/dev/oled_ssd130x.h ****             spi_config.pin_config.mosi = Pin(PORTB, 5);
  99:../../libDaisy//src/dev/oled_ssd130x.h ****             spi_config.pin_config.nss  = Pin(PORTG, 10);
 100:../../libDaisy//src/dev/oled_ssd130x.h ****             // SSD130x control pin config
 101:../../libDaisy//src/dev/oled_ssd130x.h ****             pin_config.dc    = Pin(PORTB, 4);
 102:../../libDaisy//src/dev/oled_ssd130x.h ****             pin_config.reset = Pin(PORTB, 15);
 103:../../libDaisy//src/dev/oled_ssd130x.h ****             // Using DMA off by default
 104:../../libDaisy//src/dev/oled_ssd130x.h ****             useDma = false;
 105:../../libDaisy//src/dev/oled_ssd130x.h ****         }
 106:../../libDaisy//src/dev/oled_ssd130x.h ****     };
 107:../../libDaisy//src/dev/oled_ssd130x.h ****     void Init(const Config& config)
 108:../../libDaisy//src/dev/oled_ssd130x.h ****     {
 109:../../libDaisy//src/dev/oled_ssd130x.h ****         // Initialize both GPIO
 110:../../libDaisy//src/dev/oled_ssd130x.h ****         pin_dc_.Init(config.pin_config.dc, GPIO::Mode::OUTPUT);
 111:../../libDaisy//src/dev/oled_ssd130x.h ****         pin_reset_.Init(config.pin_config.reset, GPIO::Mode::OUTPUT);
 112:../../libDaisy//src/dev/oled_ssd130x.h **** 
 113:../../libDaisy//src/dev/oled_ssd130x.h ****         // Initialize SPI
 114:../../libDaisy//src/dev/oled_ssd130x.h ****         spi_.Init(config.spi_config);
 115:../../libDaisy//src/dev/oled_ssd130x.h **** 
 116:../../libDaisy//src/dev/oled_ssd130x.h ****         // Reset and Configure OLED.
 117:../../libDaisy//src/dev/oled_ssd130x.h ****         pin_reset_.Write(0);
 118:../../libDaisy//src/dev/oled_ssd130x.h ****         System::Delay(10);
 119:../../libDaisy//src/dev/oled_ssd130x.h ****         pin_reset_.Write(1);
 120:../../libDaisy//src/dev/oled_ssd130x.h ****         System::Delay(10);
 121:../../libDaisy//src/dev/oled_ssd130x.h ****     };
 122:../../libDaisy//src/dev/oled_ssd130x.h **** 
 123:../../libDaisy//src/dev/oled_ssd130x.h ****     void SendCommand(uint8_t cmd)
 124:../../libDaisy//src/dev/oled_ssd130x.h ****     {
 125:../../libDaisy//src/dev/oled_ssd130x.h ****         pin_dc_.Write(0);
 126:../../libDaisy//src/dev/oled_ssd130x.h ****         spi_.BlockingTransmit(&cmd, 1);
 127:../../libDaisy//src/dev/oled_ssd130x.h ****     };
 128:../../libDaisy//src/dev/oled_ssd130x.h **** 
 129:../../libDaisy//src/dev/oled_ssd130x.h ****     void SendCommands(uint8_t* buff, size_t size)
 130:../../libDaisy//src/dev/oled_ssd130x.h ****     {
ARM GAS  C:\Users\danig\AppData\Local\Temp\cczbxOjJ.s 			page 9


 131:../../libDaisy//src/dev/oled_ssd130x.h ****         pin_dc_.Write(0);
 132:../../libDaisy//src/dev/oled_ssd130x.h ****         spi_.BlockingTransmit(buff, size);
 133:../../libDaisy//src/dev/oled_ssd130x.h ****     };
 134:../../libDaisy//src/dev/oled_ssd130x.h **** 
 135:../../libDaisy//src/dev/oled_ssd130x.h ****     void SendData(uint8_t* buff, size_t size)
 136:../../libDaisy//src/dev/oled_ssd130x.h ****     {
 137:../../libDaisy//src/dev/oled_ssd130x.h ****         pin_dc_.Write(1);
 138:../../libDaisy//src/dev/oled_ssd130x.h ****         spi_.BlockingTransmit(buff, size);
 139:../../libDaisy//src/dev/oled_ssd130x.h ****     };
 140:../../libDaisy//src/dev/oled_ssd130x.h **** 
 141:../../libDaisy//src/dev/oled_ssd130x.h ****     void SendDataDma(uint8_t*                          buff,
 142:../../libDaisy//src/dev/oled_ssd130x.h ****                      size_t                            size,
 143:../../libDaisy//src/dev/oled_ssd130x.h ****                      SpiHandle::EndCallbackFunctionPtr end_callback,
 144:../../libDaisy//src/dev/oled_ssd130x.h ****                      void*                             context)
 145:../../libDaisy//src/dev/oled_ssd130x.h ****     {
 146:../../libDaisy//src/dev/oled_ssd130x.h ****         SCB_CleanInvalidateDCache_by_Addr(buff, size);
 147:../../libDaisy//src/dev/oled_ssd130x.h ****         pin_dc_.Write(1);
 148:../../libDaisy//src/dev/oled_ssd130x.h ****         spi_.DmaTransmit(buff, size, NULL, end_callback, context);
 149:../../libDaisy//src/dev/oled_ssd130x.h ****     };
 150:../../libDaisy//src/dev/oled_ssd130x.h **** 
 151:../../libDaisy//src/dev/oled_ssd130x.h ****   private:
 152:../../libDaisy//src/dev/oled_ssd130x.h ****     SpiHandle spi_;
 153:../../libDaisy//src/dev/oled_ssd130x.h ****     GPIO      pin_reset_;
 154:../../libDaisy//src/dev/oled_ssd130x.h ****     GPIO      pin_dc_;
 155:../../libDaisy//src/dev/oled_ssd130x.h **** };
 156:../../libDaisy//src/dev/oled_ssd130x.h **** 
 157:../../libDaisy//src/dev/oled_ssd130x.h **** /**
 158:../../libDaisy//src/dev/oled_ssd130x.h ****  * Soft SPI Transport for SSD1306 / SSD1309 OLED display devices
 159:../../libDaisy//src/dev/oled_ssd130x.h ****  */
 160:../../libDaisy//src/dev/oled_ssd130x.h **** class SSD130x4WireSoftSpiTransport
 161:../../libDaisy//src/dev/oled_ssd130x.h **** {
 162:../../libDaisy//src/dev/oled_ssd130x.h ****   public:
 163:../../libDaisy//src/dev/oled_ssd130x.h ****     struct Config
 164:../../libDaisy//src/dev/oled_ssd130x.h ****     {
 165:../../libDaisy//src/dev/oled_ssd130x.h ****         Config()
 166:../../libDaisy//src/dev/oled_ssd130x.h ****         {
 167:../../libDaisy//src/dev/oled_ssd130x.h ****             // Initialize using defaults
 168:../../libDaisy//src/dev/oled_ssd130x.h ****             Defaults();
 169:../../libDaisy//src/dev/oled_ssd130x.h ****         }
 170:../../libDaisy//src/dev/oled_ssd130x.h ****         struct
 171:../../libDaisy//src/dev/oled_ssd130x.h ****         {
 172:../../libDaisy//src/dev/oled_ssd130x.h ****             uint32_t sclk_delay;
 173:../../libDaisy//src/dev/oled_ssd130x.h ****             Pin      sclk;
 174:../../libDaisy//src/dev/oled_ssd130x.h ****             Pin      mosi;
 175:../../libDaisy//src/dev/oled_ssd130x.h ****             Pin      dc;
 176:../../libDaisy//src/dev/oled_ssd130x.h ****             Pin      reset;
 177:../../libDaisy//src/dev/oled_ssd130x.h ****         } pin_config;
 178:../../libDaisy//src/dev/oled_ssd130x.h ****         void Defaults()
 179:../../libDaisy//src/dev/oled_ssd130x.h ****         {
 180:../../libDaisy//src/dev/oled_ssd130x.h ****             pin_config.sclk_delay = 0; // fast as possible?!
 181:../../libDaisy//src/dev/oled_ssd130x.h ****             // SPI peripheral config
 182:../../libDaisy//src/dev/oled_ssd130x.h ****             pin_config.sclk = Pin(PORTD, 3); /**< D10 - SPI2 SCK  */
 183:../../libDaisy//src/dev/oled_ssd130x.h ****             pin_config.mosi = Pin(PORTC, 3); /**< D9  - SPI2 MOSI */
 184:../../libDaisy//src/dev/oled_ssd130x.h ****             // SSD130x control pin config
 185:../../libDaisy//src/dev/oled_ssd130x.h ****             pin_config.dc    = Pin(PORTC, 11); //D2
 186:../../libDaisy//src/dev/oled_ssd130x.h ****             pin_config.reset = Pin(PORTC, 10); //D3
 187:../../libDaisy//src/dev/oled_ssd130x.h ****         }
ARM GAS  C:\Users\danig\AppData\Local\Temp\cczbxOjJ.s 			page 10


 188:../../libDaisy//src/dev/oled_ssd130x.h ****     };
 189:../../libDaisy//src/dev/oled_ssd130x.h ****     void Init(const Config& config)
 190:../../libDaisy//src/dev/oled_ssd130x.h ****     {
 191:../../libDaisy//src/dev/oled_ssd130x.h ****         // Initialize both GPIO
 192:../../libDaisy//src/dev/oled_ssd130x.h ****         pin_sclk_.Init(config.pin_config.sclk, GPIO::Mode::OUTPUT);
 193:../../libDaisy//src/dev/oled_ssd130x.h ****         pin_sclk_.Write(1); //ClockPolarity::LOW
 194:../../libDaisy//src/dev/oled_ssd130x.h ****         clk_delay = config.pin_config.sclk_delay;
 195:../../libDaisy//src/dev/oled_ssd130x.h ****         pin_mosi_.Init(config.pin_config.mosi, GPIO::Mode::OUTPUT);
 196:../../libDaisy//src/dev/oled_ssd130x.h ****         pin_mosi_.Write(0);
 197:../../libDaisy//src/dev/oled_ssd130x.h **** 
 198:../../libDaisy//src/dev/oled_ssd130x.h ****         pin_dc_.Init(config.pin_config.dc, GPIO::Mode::OUTPUT);
 199:../../libDaisy//src/dev/oled_ssd130x.h ****         pin_reset_.Init(config.pin_config.reset, GPIO::Mode::OUTPUT);
 200:../../libDaisy//src/dev/oled_ssd130x.h **** 
 201:../../libDaisy//src/dev/oled_ssd130x.h ****         // Reset and Configure OLED.
 202:../../libDaisy//src/dev/oled_ssd130x.h ****         pin_reset_.Write(0);
 203:../../libDaisy//src/dev/oled_ssd130x.h ****         System::Delay(10);
 204:../../libDaisy//src/dev/oled_ssd130x.h ****         pin_reset_.Write(1);
 205:../../libDaisy//src/dev/oled_ssd130x.h ****         System::Delay(10);
 206:../../libDaisy//src/dev/oled_ssd130x.h ****     };
 207:../../libDaisy//src/dev/oled_ssd130x.h ****     void SendCommand(uint8_t cmd)
 208:../../libDaisy//src/dev/oled_ssd130x.h ****     {
 209:../../libDaisy//src/dev/oled_ssd130x.h ****         pin_dc_.Write(0);
 210:../../libDaisy//src/dev/oled_ssd130x.h ****         SoftSpiTransmit(cmd);
 211:../../libDaisy//src/dev/oled_ssd130x.h ****     };
 212:../../libDaisy//src/dev/oled_ssd130x.h **** 
 213:../../libDaisy//src/dev/oled_ssd130x.h ****     void SendData(uint8_t* buff, size_t size)
 214:../../libDaisy//src/dev/oled_ssd130x.h ****     {
 215:../../libDaisy//src/dev/oled_ssd130x.h ****         pin_dc_.Write(1);
 216:../../libDaisy//src/dev/oled_ssd130x.h ****         for(size_t i = 0; i < size; i++)
 217:../../libDaisy//src/dev/oled_ssd130x.h ****             SoftSpiTransmit(buff[i]);
 218:../../libDaisy//src/dev/oled_ssd130x.h ****     };
 219:../../libDaisy//src/dev/oled_ssd130x.h **** 
 220:../../libDaisy//src/dev/oled_ssd130x.h ****   private:
 221:../../libDaisy//src/dev/oled_ssd130x.h ****     void SoftSpiTransmit(uint8_t val)
 222:../../libDaisy//src/dev/oled_ssd130x.h ****     {
 223:../../libDaisy//src/dev/oled_ssd130x.h ****         // bit flip
 224:../../libDaisy//src/dev/oled_ssd130x.h ****         val = ((val & 0x01) << 7) | ((val & 0x02) << 5) | ((val & 0x04) << 3)
 225:../../libDaisy//src/dev/oled_ssd130x.h ****               | ((val & 0x08) << 1) | ((val & 0x10) >> 1) | ((val & 0x20) >> 3)
 226:../../libDaisy//src/dev/oled_ssd130x.h ****               | ((val & 0x40) >> 5) | ((val & 0x80) >> 7);
 227:../../libDaisy//src/dev/oled_ssd130x.h **** 
 228:../../libDaisy//src/dev/oled_ssd130x.h ****         for(uint8_t bit = 0u; bit < 8u; bit++)
 229:../../libDaisy//src/dev/oled_ssd130x.h ****         {
 230:../../libDaisy//src/dev/oled_ssd130x.h ****             pin_mosi_.Write((val & (1 << bit)) ? 1 : 0);
 231:../../libDaisy//src/dev/oled_ssd130x.h **** 
 232:../../libDaisy//src/dev/oled_ssd130x.h ****             System::DelayTicks(clk_delay);
 233:../../libDaisy//src/dev/oled_ssd130x.h **** 
 234:../../libDaisy//src/dev/oled_ssd130x.h ****             pin_sclk_.Toggle();
 235:../../libDaisy//src/dev/oled_ssd130x.h **** 
 236:../../libDaisy//src/dev/oled_ssd130x.h ****             System::DelayTicks(clk_delay);
 237:../../libDaisy//src/dev/oled_ssd130x.h **** 
 238:../../libDaisy//src/dev/oled_ssd130x.h ****             pin_sclk_.Toggle();
 239:../../libDaisy//src/dev/oled_ssd130x.h ****         }
 240:../../libDaisy//src/dev/oled_ssd130x.h ****     }
 241:../../libDaisy//src/dev/oled_ssd130x.h **** 
 242:../../libDaisy//src/dev/oled_ssd130x.h ****     uint32_t clk_delay;
 243:../../libDaisy//src/dev/oled_ssd130x.h ****     GPIO     pin_sclk_;
 244:../../libDaisy//src/dev/oled_ssd130x.h ****     GPIO     pin_mosi_;
ARM GAS  C:\Users\danig\AppData\Local\Temp\cczbxOjJ.s 			page 11


 245:../../libDaisy//src/dev/oled_ssd130x.h ****     GPIO     pin_reset_;
 246:../../libDaisy//src/dev/oled_ssd130x.h ****     GPIO     pin_dc_;
 247:../../libDaisy//src/dev/oled_ssd130x.h **** };
 248:../../libDaisy//src/dev/oled_ssd130x.h **** 
 249:../../libDaisy//src/dev/oled_ssd130x.h **** 
 250:../../libDaisy//src/dev/oled_ssd130x.h **** /**
 251:../../libDaisy//src/dev/oled_ssd130x.h ****  * A driver implementation for the SSD1306/SSD1309
 252:../../libDaisy//src/dev/oled_ssd130x.h ****  */
 253:../../libDaisy//src/dev/oled_ssd130x.h **** template <size_t width, size_t height, typename Transport>
 254:../../libDaisy//src/dev/oled_ssd130x.h **** class SSD130xDriver
 255:../../libDaisy//src/dev/oled_ssd130x.h **** {
 256:../../libDaisy//src/dev/oled_ssd130x.h ****   public:
 257:../../libDaisy//src/dev/oled_ssd130x.h ****     struct Config
 258:../../libDaisy//src/dev/oled_ssd130x.h ****     {
 259:../../libDaisy//src/dev/oled_ssd130x.h ****         typename Transport::Config transport_config;
 260:../../libDaisy//src/dev/oled_ssd130x.h ****     };
 261:../../libDaisy//src/dev/oled_ssd130x.h **** 
 262:../../libDaisy//src/dev/oled_ssd130x.h ****     void Init(Config config)
 263:../../libDaisy//src/dev/oled_ssd130x.h ****     {
 264:../../libDaisy//src/dev/oled_ssd130x.h ****         transport_.Init(config.transport_config);
 265:../../libDaisy//src/dev/oled_ssd130x.h **** 
 266:../../libDaisy//src/dev/oled_ssd130x.h ****         // Init routine...
 267:../../libDaisy//src/dev/oled_ssd130x.h **** 
 268:../../libDaisy//src/dev/oled_ssd130x.h ****         // Display Off
 269:../../libDaisy//src/dev/oled_ssd130x.h ****         transport_.SendCommand(0xaE);
 270:../../libDaisy//src/dev/oled_ssd130x.h ****         // Dimension dependent commands...
 271:../../libDaisy//src/dev/oled_ssd130x.h ****         switch(height)
 272:../../libDaisy//src/dev/oled_ssd130x.h ****         {
 273:../../libDaisy//src/dev/oled_ssd130x.h ****             case 16:
 274:../../libDaisy//src/dev/oled_ssd130x.h ****                 // Display Clock Divide Ratio
 275:../../libDaisy//src/dev/oled_ssd130x.h ****                 transport_.SendCommand(0xD5);
 276:../../libDaisy//src/dev/oled_ssd130x.h ****                 transport_.SendCommand(0x60);
 277:../../libDaisy//src/dev/oled_ssd130x.h ****                 // Multiplex Ratio
 278:../../libDaisy//src/dev/oled_ssd130x.h ****                 transport_.SendCommand(0xA8);
 279:../../libDaisy//src/dev/oled_ssd130x.h ****                 transport_.SendCommand(0x0F);
 280:../../libDaisy//src/dev/oled_ssd130x.h ****                 // COM Pins
 281:../../libDaisy//src/dev/oled_ssd130x.h ****                 transport_.SendCommand(0xDA);
 282:../../libDaisy//src/dev/oled_ssd130x.h ****                 transport_.SendCommand(0x02);
 283:../../libDaisy//src/dev/oled_ssd130x.h ****                 break;
 284:../../libDaisy//src/dev/oled_ssd130x.h ****             case 32:
 285:../../libDaisy//src/dev/oled_ssd130x.h ****                 // Display Clock Divide Ratio
 286:../../libDaisy//src/dev/oled_ssd130x.h ****                 transport_.SendCommand(0xD5);
 287:../../libDaisy//src/dev/oled_ssd130x.h ****                 transport_.SendCommand(0x80);
 288:../../libDaisy//src/dev/oled_ssd130x.h ****                 // Multiplex Ratio
 289:../../libDaisy//src/dev/oled_ssd130x.h ****                 transport_.SendCommand(0xA8);
 290:../../libDaisy//src/dev/oled_ssd130x.h ****                 transport_.SendCommand(0x1F);
 291:../../libDaisy//src/dev/oled_ssd130x.h ****                 // COM Pins
 292:../../libDaisy//src/dev/oled_ssd130x.h ****                 transport_.SendCommand(0xDA);
 293:../../libDaisy//src/dev/oled_ssd130x.h ****                 if(width == 64)
 294:../../libDaisy//src/dev/oled_ssd130x.h ****                 {
 295:../../libDaisy//src/dev/oled_ssd130x.h ****                     transport_.SendCommand(0x12);
 296:../../libDaisy//src/dev/oled_ssd130x.h ****                 }
 297:../../libDaisy//src/dev/oled_ssd130x.h ****                 else
 298:../../libDaisy//src/dev/oled_ssd130x.h ****                 {
 299:../../libDaisy//src/dev/oled_ssd130x.h ****                     transport_.SendCommand(0x02);
 300:../../libDaisy//src/dev/oled_ssd130x.h ****                 }
 301:../../libDaisy//src/dev/oled_ssd130x.h **** 
ARM GAS  C:\Users\danig\AppData\Local\Temp\cczbxOjJ.s 			page 12


 302:../../libDaisy//src/dev/oled_ssd130x.h ****                 break;
 303:../../libDaisy//src/dev/oled_ssd130x.h ****             case 48:
 304:../../libDaisy//src/dev/oled_ssd130x.h ****                 // Display Clock Divide Ratio
 305:../../libDaisy//src/dev/oled_ssd130x.h ****                 transport_.SendCommand(0xD5);
 306:../../libDaisy//src/dev/oled_ssd130x.h ****                 transport_.SendCommand(0x80);
 307:../../libDaisy//src/dev/oled_ssd130x.h ****                 // Multiplex Ratio
 308:../../libDaisy//src/dev/oled_ssd130x.h ****                 transport_.SendCommand(0xA8);
 309:../../libDaisy//src/dev/oled_ssd130x.h ****                 transport_.SendCommand(0x2F);
 310:../../libDaisy//src/dev/oled_ssd130x.h ****                 // COM Pins
 311:../../libDaisy//src/dev/oled_ssd130x.h ****                 transport_.SendCommand(0xDA);
 312:../../libDaisy//src/dev/oled_ssd130x.h ****                 transport_.SendCommand(0x12);
 313:../../libDaisy//src/dev/oled_ssd130x.h ****                 break;
 314:../../libDaisy//src/dev/oled_ssd130x.h ****             default: // 128
 315:../../libDaisy//src/dev/oled_ssd130x.h ****                 // Display Clock Divide Ratio
 316:../../libDaisy//src/dev/oled_ssd130x.h ****                 transport_.SendCommand(0xD5);
 317:../../libDaisy//src/dev/oled_ssd130x.h ****                 transport_.SendCommand(0x80);
 318:../../libDaisy//src/dev/oled_ssd130x.h ****                 // Multiplex Ratio
 319:../../libDaisy//src/dev/oled_ssd130x.h ****                 transport_.SendCommand(0xA8);
 320:../../libDaisy//src/dev/oled_ssd130x.h ****                 transport_.SendCommand(0x3F);
 321:../../libDaisy//src/dev/oled_ssd130x.h ****                 // COM Pins
 322:../../libDaisy//src/dev/oled_ssd130x.h ****                 transport_.SendCommand(0xDA);
 323:../../libDaisy//src/dev/oled_ssd130x.h ****                 transport_.SendCommand(0x12);
 324:../../libDaisy//src/dev/oled_ssd130x.h ****                 break;
 325:../../libDaisy//src/dev/oled_ssd130x.h ****         }
 326:../../libDaisy//src/dev/oled_ssd130x.h **** 
 327:../../libDaisy//src/dev/oled_ssd130x.h ****         // Display Offset
 328:../../libDaisy//src/dev/oled_ssd130x.h ****         transport_.SendCommand(0xD3);
 329:../../libDaisy//src/dev/oled_ssd130x.h ****         transport_.SendCommand(0x00);
 330:../../libDaisy//src/dev/oled_ssd130x.h ****         // Start Line Address
 331:../../libDaisy//src/dev/oled_ssd130x.h ****         transport_.SendCommand(0x40);
 332:../../libDaisy//src/dev/oled_ssd130x.h ****         // Normal Display
 333:../../libDaisy//src/dev/oled_ssd130x.h ****         transport_.SendCommand(0xA6);
 334:../../libDaisy//src/dev/oled_ssd130x.h ****         // All On Resume
 335:../../libDaisy//src/dev/oled_ssd130x.h ****         transport_.SendCommand(0xA4);
 336:../../libDaisy//src/dev/oled_ssd130x.h ****         // Charge Pump
 337:../../libDaisy//src/dev/oled_ssd130x.h ****         transport_.SendCommand(0x8D);
 338:../../libDaisy//src/dev/oled_ssd130x.h ****         transport_.SendCommand(0x14);
 339:../../libDaisy//src/dev/oled_ssd130x.h ****         // Set Segment Remap
 340:../../libDaisy//src/dev/oled_ssd130x.h ****         transport_.SendCommand(0xA1);
 341:../../libDaisy//src/dev/oled_ssd130x.h ****         // COM Output Scan Direction
 342:../../libDaisy//src/dev/oled_ssd130x.h ****         transport_.SendCommand(0xC8);
 343:../../libDaisy//src/dev/oled_ssd130x.h ****         // Contrast Control
 344:../../libDaisy//src/dev/oled_ssd130x.h ****         transport_.SendCommand(0x81);
 345:../../libDaisy//src/dev/oled_ssd130x.h ****         transport_.SendCommand(0x8F);
 346:../../libDaisy//src/dev/oled_ssd130x.h ****         // Pre Charge
 347:../../libDaisy//src/dev/oled_ssd130x.h ****         transport_.SendCommand(0xD9);
 348:../../libDaisy//src/dev/oled_ssd130x.h ****         transport_.SendCommand(0x25);
 349:../../libDaisy//src/dev/oled_ssd130x.h ****         // VCOM Detect
 350:../../libDaisy//src/dev/oled_ssd130x.h ****         transport_.SendCommand(0xDB);
 351:../../libDaisy//src/dev/oled_ssd130x.h ****         transport_.SendCommand(0x34);
 352:../../libDaisy//src/dev/oled_ssd130x.h **** 
 353:../../libDaisy//src/dev/oled_ssd130x.h **** 
 354:../../libDaisy//src/dev/oled_ssd130x.h ****         // Display On
 355:../../libDaisy//src/dev/oled_ssd130x.h ****         transport_.SendCommand(0xAF); //--turn on oled panel
 356:../../libDaisy//src/dev/oled_ssd130x.h ****     };
 357:../../libDaisy//src/dev/oled_ssd130x.h **** 
 358:../../libDaisy//src/dev/oled_ssd130x.h ****     size_t Width() const { return width; };
ARM GAS  C:\Users\danig\AppData\Local\Temp\cczbxOjJ.s 			page 13


 359:../../libDaisy//src/dev/oled_ssd130x.h ****     size_t Height() const { return height; };
 360:../../libDaisy//src/dev/oled_ssd130x.h **** 
 361:../../libDaisy//src/dev/oled_ssd130x.h ****     void DrawPixel(uint_fast8_t x, uint_fast8_t y, bool on)
 362:../../libDaisy//src/dev/oled_ssd130x.h ****     {
 363:../../libDaisy//src/dev/oled_ssd130x.h ****         if(x >= width || y >= height)
 364:../../libDaisy//src/dev/oled_ssd130x.h ****             return;
 365:../../libDaisy//src/dev/oled_ssd130x.h ****         if(on)
 366:../../libDaisy//src/dev/oled_ssd130x.h ****             buffer_[x + (y / 8) * width] |= (1 << (y % 8));
 367:../../libDaisy//src/dev/oled_ssd130x.h ****         else
 368:../../libDaisy//src/dev/oled_ssd130x.h ****             buffer_[x + (y / 8) * width] &= ~(1 << (y % 8));
 369:../../libDaisy//src/dev/oled_ssd130x.h ****     }
 370:../../libDaisy//src/dev/oled_ssd130x.h **** 
 371:../../libDaisy//src/dev/oled_ssd130x.h ****     void Fill(bool on)
  70              		.loc 3 371 10 view .LVU6
  71              	.LBB268:
 372:../../libDaisy//src/dev/oled_ssd130x.h ****     {
 373:../../libDaisy//src/dev/oled_ssd130x.h ****         for(size_t i = 0; i < sizeof(buffer_); i++)
  72              		.loc 3 373 29 view .LVU7
  73 0000 00F13403 		add	r3, r0, #52
  74 0004 00F23440 		addw	r0, r0, #1076
  75              	.LVL2:
  76              	.L3:
 374:../../libDaisy//src/dev/oled_ssd130x.h ****         {
 375:../../libDaisy//src/dev/oled_ssd130x.h ****             buffer_[i] = on ? 0xff : 0x00;
  77              		.loc 3 375 24 is_stmt 0 view .LVU8
  78 0008 4A42     		rsbs	r2, r1, #0
  79 000a 03F8012B 		strb	r2, [r3], #1
  80              	.LVL3:
 373:../../libDaisy//src/dev/oled_ssd130x.h ****         {
  81              		.loc 3 373 9 is_stmt 1 view .LVU9
 373:../../libDaisy//src/dev/oled_ssd130x.h ****         {
  82              		.loc 3 373 29 view .LVU10
  83 000e 8342     		cmp	r3, r0
  84 0010 FAD1     		bne	.L3
  85              	.LBE268:
  86              	.LBE267:
  87              		.loc 1 34 53 is_stmt 0 view .LVU11
  88 0012 7047     		bx	lr
  89              		.cfi_endproc
  90              	.LFE2825:
  92              		.section	.text._ZNK5daisy11OledDisplayINS_13SSD130xDriverILj128ELj64ENS_24SSD130x4WireSpiTransport
  93              		.align	1
  94              		.weak	_ZNK5daisy11OledDisplayINS_13SSD130xDriverILj128ELj64ENS_24SSD130x4WireSpiTransportEEEE6Heig
  95              		.syntax unified
  96              		.thumb
  97              		.thumb_func
  98              		.fpu fpv5-d16
 100              	_ZNK5daisy11OledDisplayINS_13SSD130xDriverILj128ELj64ENS_24SSD130x4WireSpiTransportEEEE6HeightEv:
 101              	.LVL4:
 102              	.LFB2852:
  27:../../libDaisy//src/hid/disp/oled_display.h ****     uint16_t Width() const override { return driver_.Width(); }
 103              		.loc 1 27 14 is_stmt 1 view -0
 104              		.cfi_startproc
 105              		@ args = 0, pretend = 0, frame = 0
 106              		@ frame_needed = 0, uses_anonymous_args = 0
 107              		@ link register save eliminated.
  27:../../libDaisy//src/hid/disp/oled_display.h ****     uint16_t Width() const override { return driver_.Width(); }
ARM GAS  C:\Users\danig\AppData\Local\Temp\cczbxOjJ.s 			page 14


 108              		.loc 1 27 65 is_stmt 0 view .LVU13
 109 0000 4020     		movs	r0, #64
 110              	.LVL5:
  27:../../libDaisy//src/hid/disp/oled_display.h ****     uint16_t Width() const override { return driver_.Width(); }
 111              		.loc 1 27 65 view .LVU14
 112 0002 7047     		bx	lr
 113              		.cfi_endproc
 114              	.LFE2852:
 116              		.section	.text._ZNK5daisy11OledDisplayINS_13SSD130xDriverILj128ELj64ENS_24SSD130x4WireSpiTransport
 117              		.align	1
 118              		.weak	_ZNK5daisy11OledDisplayINS_13SSD130xDriverILj128ELj64ENS_24SSD130x4WireSpiTransportEEEE5Widt
 119              		.syntax unified
 120              		.thumb
 121              		.thumb_func
 122              		.fpu fpv5-d16
 124              	_ZNK5daisy11OledDisplayINS_13SSD130xDriverILj128ELj64ENS_24SSD130x4WireSpiTransportEEEE5WidthEv:
 125              	.LVL6:
 126              	.LFB2853:
  28:../../libDaisy//src/hid/disp/oled_display.h **** 
 127              		.loc 1 28 14 is_stmt 1 view -0
 128              		.cfi_startproc
 129              		@ args = 0, pretend = 0, frame = 0
 130              		@ frame_needed = 0, uses_anonymous_args = 0
 131              		@ link register save eliminated.
  28:../../libDaisy//src/hid/disp/oled_display.h **** 
 132              		.loc 1 28 63 is_stmt 0 view .LVU16
 133 0000 8020     		movs	r0, #128
 134              	.LVL7:
  28:../../libDaisy//src/hid/disp/oled_display.h **** 
 135              		.loc 1 28 63 view .LVU17
 136 0002 7047     		bx	lr
 137              		.cfi_endproc
 138              	.LFE2853:
 140              		.section	.text._ZN5daisy11OledDisplayINS_13SSD130xDriverILj128ELj64ENS_24SSD130x4WireSpiTransportE
 141              		.align	1
 142              		.weak	_ZN5daisy11OledDisplayINS_13SSD130xDriverILj128ELj64ENS_24SSD130x4WireSpiTransportEEEE14Upda
 143              		.syntax unified
 144              		.thumb
 145              		.thumb_func
 146              		.fpu fpv5-d16
 148              	_ZN5daisy11OledDisplayINS_13SSD130xDriverILj128ELj64ENS_24SSD130x4WireSpiTransportEEEE14UpdateFinis
 149              	.LVL8:
 150              	.LFB2858:
  35:../../libDaisy//src/hid/disp/oled_display.h **** 
  36:../../libDaisy//src/hid/disp/oled_display.h ****     /**
  37:../../libDaisy//src/hid/disp/oled_display.h ****     Sets the pixel at the specified coordinate to be on/off.
  38:../../libDaisy//src/hid/disp/oled_display.h ****     \param x   x Coordinate
  39:../../libDaisy//src/hid/disp/oled_display.h ****     \param y   y coordinate
  40:../../libDaisy//src/hid/disp/oled_display.h ****     \param on  on or off
  41:../../libDaisy//src/hid/disp/oled_display.h ****     */
  42:../../libDaisy//src/hid/disp/oled_display.h ****     void DrawPixel(uint_fast8_t x, uint_fast8_t y, bool on) override
  43:../../libDaisy//src/hid/disp/oled_display.h ****     {
  44:../../libDaisy//src/hid/disp/oled_display.h ****         driver_.DrawPixel(x, y, on);
  45:../../libDaisy//src/hid/disp/oled_display.h ****     }
  46:../../libDaisy//src/hid/disp/oled_display.h **** 
  47:../../libDaisy//src/hid/disp/oled_display.h ****     /** 
  48:../../libDaisy//src/hid/disp/oled_display.h ****     Writes the current display buffer to the OLED device using SPI or I2C depending on 
ARM GAS  C:\Users\danig\AppData\Local\Temp\cczbxOjJ.s 			page 15


  49:../../libDaisy//src/hid/disp/oled_display.h ****     how the object was initialized.
  50:../../libDaisy//src/hid/disp/oled_display.h ****     */
  51:../../libDaisy//src/hid/disp/oled_display.h ****     void Update() override { driver_.Update(); }
  52:../../libDaisy//src/hid/disp/oled_display.h **** 
  53:../../libDaisy//src/hid/disp/oled_display.h ****     bool UpdateFinished() override { return driver_.UpdateFinished(); }
 151              		.loc 1 53 10 is_stmt 1 view -0
 152              		.cfi_startproc
 153              		@ args = 0, pretend = 0, frame = 0
 154              		@ frame_needed = 0, uses_anonymous_args = 0
 155              		@ link register save eliminated.
 156              		.loc 1 53 71 is_stmt 0 view .LVU19
 157 0000 0120     		movs	r0, #1
 158              	.LVL9:
 159              		.loc 1 53 71 view .LVU20
 160 0002 7047     		bx	lr
 161              		.cfi_endproc
 162              	.LFE2858:
 164              		.section	.text._ZN5daisy11OledDisplayINS_13SSD130xDriverILj128ELj64ENS_24SSD130x4WireSpiTransportE
 165              		.align	1
 166              		.weak	_ZN5daisy11OledDisplayINS_13SSD130xDriverILj128ELj64ENS_24SSD130x4WireSpiTransportEEEED0Ev
 167              		.syntax unified
 168              		.thumb
 169              		.thumb_func
 170              		.fpu fpv5-d16
 172              	_ZN5daisy11OledDisplayINS_13SSD130xDriverILj128ELj64ENS_24SSD130x4WireSpiTransportEEEED0Ev:
 173              	.LVL10:
 174              	.LFB2823:
  18:../../libDaisy//src/hid/disp/oled_display.h **** 
 175              		.loc 1 18 13 is_stmt 1 view -0
 176              		.cfi_startproc
 177              		@ args = 0, pretend = 0, frame = 0
 178              		@ frame_needed = 0, uses_anonymous_args = 0
  18:../../libDaisy//src/hid/disp/oled_display.h **** 
 179              		.loc 1 18 13 is_stmt 0 view .LVU22
 180 0000 10B5     		push	{r4, lr}
 181              		.cfi_def_cfa_offset 8
 182              		.cfi_offset 4, -8
 183              		.cfi_offset 14, -4
  18:../../libDaisy//src/hid/disp/oled_display.h **** 
 184              		.loc 1 18 13 view .LVU23
 185 0002 0446     		mov	r4, r0
 186              	.LVL11:
 187              	.LBB269:
 188              	.LBI269:
  18:../../libDaisy//src/hid/disp/oled_display.h **** 
 189              		.loc 1 18 13 is_stmt 1 view .LVU24
 190              	.LBB270:
 191              	.LBI270:
 192              		.loc 2 224 13 view .LVU25
 193              	.LBB271:
 194              	.LBI271:
  23:../../libDaisy//src/hid/disp/display.h **** 
 195              		.loc 2 23 13 view .LVU26
  23:../../libDaisy//src/hid/disp/display.h **** 
 196              		.loc 2 23 13 is_stmt 0 view .LVU27
 197              	.LBE271:
 198              	.LBE270:
ARM GAS  C:\Users\danig\AppData\Local\Temp\cczbxOjJ.s 			page 16


 199              	.LBE269:
  18:../../libDaisy//src/hid/disp/oled_display.h **** 
 200              		.loc 1 18 29 view .LVU28
 201 0004 40F23441 		movw	r1, #1076
 202 0008 FFF7FEFF 		bl	_ZdlPvj
 203              	.LVL12:
  18:../../libDaisy//src/hid/disp/oled_display.h **** 
 204              		.loc 1 18 29 view .LVU29
 205 000c 2046     		mov	r0, r4
 206 000e 10BD     		pop	{r4, pc}
  18:../../libDaisy//src/hid/disp/oled_display.h **** 
 207              		.loc 1 18 29 view .LVU30
 208              		.cfi_endproc
 209              	.LFE2823:
 211              		.section	.text._ZN5daisy21OneBitGraphicsDisplay9SetCursorEtt,"axG",%progbits,_ZN5daisy21OneBitGrap
 212              		.align	1
 213              		.weak	_ZN5daisy21OneBitGraphicsDisplay9SetCursorEtt
 214              		.syntax unified
 215              		.thumb
 216              		.thumb_func
 217              		.fpu fpv5-d16
 219              	_ZN5daisy21OneBitGraphicsDisplay9SetCursorEtt:
 220              	.LVL13:
 221              	.LFB1867:
 171:../../libDaisy//src/hid/disp/display.h ****     {
 222              		.loc 2 171 10 is_stmt 1 view -0
 223              		.cfi_startproc
 224              		@ args = 0, pretend = 0, frame = 0
 225              		@ frame_needed = 0, uses_anonymous_args = 0
 173:../../libDaisy//src/hid/disp/display.h ****         currentY_ = (y >= Height()) ? Height() - 1 : y;
 226              		.loc 2 173 9 view .LVU32
 173:../../libDaisy//src/hid/disp/display.h ****         currentY_ = (y >= Height()) ? Height() - 1 : y;
 227              		.loc 2 173 33 is_stmt 0 view .LVU33
 228 0000 0368     		ldr	r3, [r0]
 171:../../libDaisy//src/hid/disp/display.h ****     {
 229              		.loc 2 171 10 view .LVU34
 230 0002 70B5     		push	{r4, r5, r6, lr}
 231              		.cfi_def_cfa_offset 16
 232              		.cfi_offset 4, -16
 233              		.cfi_offset 5, -12
 234              		.cfi_offset 6, -8
 235              		.cfi_offset 14, -4
 171:../../libDaisy//src/hid/disp/display.h ****     {
 236              		.loc 2 171 10 view .LVU35
 237 0004 0E46     		mov	r6, r1
 173:../../libDaisy//src/hid/disp/display.h ****         currentY_ = (y >= Height()) ? Height() - 1 : y;
 238              		.loc 2 173 32 view .LVU36
 239 0006 DB68     		ldr	r3, [r3, #12]
 171:../../libDaisy//src/hid/disp/display.h ****     {
 240              		.loc 2 171 10 view .LVU37
 241 0008 0446     		mov	r4, r0
 242 000a 1546     		mov	r5, r2
 173:../../libDaisy//src/hid/disp/display.h ****         currentY_ = (y >= Height()) ? Height() - 1 : y;
 243              		.loc 2 173 32 view .LVU38
 244 000c 9847     		blx	r3
 245              	.LVL14:
 173:../../libDaisy//src/hid/disp/display.h ****         currentY_ = (y >= Height()) ? Height() - 1 : y;
ARM GAS  C:\Users\danig\AppData\Local\Temp\cczbxOjJ.s 			page 17


 246              		.loc 2 173 19 view .LVU39
 247 000e B042     		cmp	r0, r6
 248 0010 05D8     		bhi	.L10
 173:../../libDaisy//src/hid/disp/display.h ****         currentY_ = (y >= Height()) ? Height() - 1 : y;
 249              		.loc 2 173 44 discriminator 1 view .LVU40
 250 0012 2368     		ldr	r3, [r4]
 173:../../libDaisy//src/hid/disp/display.h ****         currentY_ = (y >= Height()) ? Height() - 1 : y;
 251              		.loc 2 173 43 discriminator 1 view .LVU41
 252 0014 2046     		mov	r0, r4
 253 0016 DB68     		ldr	r3, [r3, #12]
 254 0018 9847     		blx	r3
 255              	.LVL15:
 173:../../libDaisy//src/hid/disp/display.h ****         currentY_ = (y >= Height()) ? Height() - 1 : y;
 256              		.loc 2 173 19 discriminator 1 view .LVU42
 257 001a 0138     		subs	r0, r0, #1
 258 001c 86B2     		uxth	r6, r0
 259              	.L10:
 174:../../libDaisy//src/hid/disp/display.h ****     }
 260              		.loc 2 174 34 discriminator 4 view .LVU43
 261 001e 2368     		ldr	r3, [r4]
 174:../../libDaisy//src/hid/disp/display.h ****     }
 262              		.loc 2 174 33 discriminator 4 view .LVU44
 263 0020 2046     		mov	r0, r4
 173:../../libDaisy//src/hid/disp/display.h ****         currentY_ = (y >= Height()) ? Height() - 1 : y;
 264              		.loc 2 173 19 discriminator 4 view .LVU45
 265 0022 A680     		strh	r6, [r4, #4]	@ movhi
 174:../../libDaisy//src/hid/disp/display.h ****     }
 266              		.loc 2 174 9 is_stmt 1 discriminator 4 view .LVU46
 174:../../libDaisy//src/hid/disp/display.h ****     }
 267              		.loc 2 174 33 is_stmt 0 discriminator 4 view .LVU47
 268 0024 9B68     		ldr	r3, [r3, #8]
 269 0026 9847     		blx	r3
 270              	.LVL16:
 174:../../libDaisy//src/hid/disp/display.h ****     }
 271              		.loc 2 174 19 discriminator 4 view .LVU48
 272 0028 A842     		cmp	r0, r5
 273 002a 05D8     		bhi	.L11
 174:../../libDaisy//src/hid/disp/display.h ****     }
 274              		.loc 2 174 46 discriminator 1 view .LVU49
 275 002c 2368     		ldr	r3, [r4]
 174:../../libDaisy//src/hid/disp/display.h ****     }
 276              		.loc 2 174 45 discriminator 1 view .LVU50
 277 002e 2046     		mov	r0, r4
 278 0030 9B68     		ldr	r3, [r3, #8]
 279 0032 9847     		blx	r3
 280              	.LVL17:
 174:../../libDaisy//src/hid/disp/display.h ****     }
 281              		.loc 2 174 19 discriminator 1 view .LVU51
 282 0034 0138     		subs	r0, r0, #1
 283 0036 85B2     		uxth	r5, r0
 284              	.L11:
 174:../../libDaisy//src/hid/disp/display.h ****     }
 285              		.loc 2 174 19 discriminator 4 view .LVU52
 286 0038 E580     		strh	r5, [r4, #6]	@ movhi
 175:../../libDaisy//src/hid/disp/display.h **** 
 287              		.loc 2 175 5 discriminator 4 view .LVU53
 288 003a 70BD     		pop	{r4, r5, r6, pc}
ARM GAS  C:\Users\danig\AppData\Local\Temp\cczbxOjJ.s 			page 18


 175:../../libDaisy//src/hid/disp/display.h **** 
 289              		.loc 2 175 5 discriminator 4 view .LVU54
 290              		.cfi_endproc
 291              	.LFE1867:
 293              		.section	.text._ZN5daisy24SSD130x4WireSpiTransport11SendCommandEh,"axG",%progbits,_ZN5daisy24SSD13
 294              		.align	1
 295              		.weak	_ZN5daisy24SSD130x4WireSpiTransport11SendCommandEh
 296              		.syntax unified
 297              		.thumb
 298              		.thumb_func
 299              		.fpu fpv5-d16
 301              	_ZN5daisy24SSD130x4WireSpiTransport11SendCommandEh:
 302              	.LVL18:
 303              	.LFB2749:
 123:../../libDaisy//src/dev/oled_ssd130x.h ****     {
 304              		.loc 3 123 10 is_stmt 1 view -0
 305              		.cfi_startproc
 306              		@ args = 0, pretend = 0, frame = 8
 307              		@ frame_needed = 0, uses_anonymous_args = 0
 125:../../libDaisy//src/dev/oled_ssd130x.h ****         spi_.BlockingTransmit(&cmd, 1);
 308              		.loc 3 125 9 view .LVU56
 123:../../libDaisy//src/dev/oled_ssd130x.h ****     {
 309              		.loc 3 123 10 is_stmt 0 view .LVU57
 310 0000 13B5     		push	{r0, r1, r4, lr}
 311              		.cfi_def_cfa_offset 16
 312              		.cfi_offset 4, -8
 313              		.cfi_offset 14, -4
 123:../../libDaisy//src/dev/oled_ssd130x.h ****     {
 314              		.loc 3 123 10 view .LVU58
 315 0002 0446     		mov	r4, r0
 316 0004 8DF80710 		strb	r1, [sp, #7]
 125:../../libDaisy//src/dev/oled_ssd130x.h ****         spi_.BlockingTransmit(&cmd, 1);
 317              		.loc 3 125 22 view .LVU59
 318 0008 1830     		adds	r0, r0, #24
 319              	.LVL19:
 125:../../libDaisy//src/dev/oled_ssd130x.h ****         spi_.BlockingTransmit(&cmd, 1);
 320              		.loc 3 125 22 view .LVU60
 321 000a 0021     		movs	r1, #0
 322              	.LVL20:
 125:../../libDaisy//src/dev/oled_ssd130x.h ****         spi_.BlockingTransmit(&cmd, 1);
 323              		.loc 3 125 22 view .LVU61
 324 000c FFF7FEFF 		bl	_ZN5daisy4GPIO5WriteEb
 325              	.LVL21:
 126:../../libDaisy//src/dev/oled_ssd130x.h ****     };
 326              		.loc 3 126 9 is_stmt 1 view .LVU62
 126:../../libDaisy//src/dev/oled_ssd130x.h ****     };
 327              		.loc 3 126 30 is_stmt 0 view .LVU63
 328 0010 6423     		movs	r3, #100
 329 0012 0122     		movs	r2, #1
 330 0014 0DF10701 		add	r1, sp, #7
 331 0018 2046     		mov	r0, r4
 332 001a FFF7FEFF 		bl	_ZN5daisy9SpiHandle16BlockingTransmitEPhjm
 333              	.LVL22:
 127:../../libDaisy//src/dev/oled_ssd130x.h **** 
 334              		.loc 3 127 5 view .LVU64
 335 001e 02B0     		add	sp, sp, #8
 336              		.cfi_def_cfa_offset 8
ARM GAS  C:\Users\danig\AppData\Local\Temp\cczbxOjJ.s 			page 19


 337              		@ sp needed
 338 0020 10BD     		pop	{r4, pc}
 127:../../libDaisy//src/dev/oled_ssd130x.h **** 
 339              		.loc 3 127 5 view .LVU65
 340              		.cfi_endproc
 341              	.LFE2749:
 343              		.section	.text._ZN7DisplayC2ERN5daisy9DaisySeedE,"ax",%progbits
 344              		.align	1
 345              		.global	_ZN7DisplayC2ERN5daisy9DaisySeedE
 346              		.syntax unified
 347              		.thumb
 348              		.thumb_func
 349              		.fpu fpv5-d16
 351              	_ZN7DisplayC2ERN5daisy9DaisySeedE:
 352              	.LVL23:
 353              	.LFB2782:
 354              		.file 4 "Display.cpp"
   1:Display.cpp   **** #include "Display.h"
   2:Display.cpp   **** #include <stdio.h>
   3:Display.cpp   **** 
   4:Display.cpp   **** Display::Display(DaisySeed& hw) : hw_(hw) {}
 355              		.loc 4 4 1 is_stmt 1 view -0
 356              		.cfi_startproc
 357              		@ args = 0, pretend = 0, frame = 0
 358              		@ frame_needed = 0, uses_anonymous_args = 0
 359              		@ link register save eliminated.
 360              	.LBB304:
 361              		.loc 4 4 41 is_stmt 0 view .LVU67
 362 0000 0160     		str	r1, [r0]
 363              	.LVL24:
 364              	.LBB305:
 365              	.LBI305:
  17:../../libDaisy//src/hid/disp/oled_display.h ****     virtual ~OledDisplay() {}
 366              		.loc 1 17 5 is_stmt 1 view .LVU68
 367              	.LBB306:
 368              	.LBB307:
 369              	.LBI307:
 223:../../libDaisy//src/hid/disp/display.h ****     virtual ~OneBitGraphicsDisplayImpl() {}
 370              		.loc 2 223 5 view .LVU69
 371              	.LBB308:
 372              	.LBI308:
  22:../../libDaisy//src/hid/disp/display.h ****     virtual ~OneBitGraphicsDisplay() {}
 373              		.loc 2 22 5 view .LVU70
  22:../../libDaisy//src/hid/disp/display.h ****     virtual ~OneBitGraphicsDisplay() {}
 374              		.loc 2 22 5 is_stmt 0 view .LVU71
 375              	.LBE308:
 376              	.LBE307:
 377              	.LBB309:
 378              	.LBB310:
 379              	.LBB311:
 380              	.LBB312:
 381              	.LBB313:
 382              	.LBB314:
 383              	.LBB315:
 384              		.file 5 "../../libDaisy//src/daisy_core.h"
   1:../../libDaisy//src/daisy_core.h **** #pragma once
   2:../../libDaisy//src/daisy_core.h **** #ifndef DSY_CORE_HW_H
ARM GAS  C:\Users\danig\AppData\Local\Temp\cczbxOjJ.s 			page 20


   3:../../libDaisy//src/daisy_core.h **** #define DSY_CORE_HW_H /**< & */
   4:../../libDaisy//src/daisy_core.h **** #include <stdint.h>
   5:../../libDaisy//src/daisy_core.h **** #include <stdlib.h>
   6:../../libDaisy//src/daisy_core.h **** 
   7:../../libDaisy//src/daisy_core.h **** #if defined(_MSC_VER)
   8:../../libDaisy//src/daisy_core.h **** #define FORCE_INLINE __forceinline /**< & */
   9:../../libDaisy//src/daisy_core.h **** #elif defined(__clang__)
  10:../../libDaisy//src/daisy_core.h **** #define FORCE_INLINE inline __attribute__((always_inline)) /**< & */
  11:../../libDaisy//src/daisy_core.h **** #pragma clang diagnostic ignored "-Wduplicate-decl-specifier"
  12:../../libDaisy//src/daisy_core.h **** #elif defined(__GNUC__)
  13:../../libDaisy//src/daisy_core.h **** #define FORCE_INLINE inline __attribute__((always_inline)) /**< & */
  14:../../libDaisy//src/daisy_core.h **** #else
  15:../../libDaisy//src/daisy_core.h **** #error unknown compiler
  16:../../libDaisy//src/daisy_core.h **** #endif
  17:../../libDaisy//src/daisy_core.h **** 
  18:../../libDaisy//src/daisy_core.h **** /** @addtogroup utility
  19:../../libDaisy//src/daisy_core.h ****     @{
  20:../../libDaisy//src/daisy_core.h **** */
  21:../../libDaisy//src/daisy_core.h **** 
  22:../../libDaisy//src/daisy_core.h **** /** Macro for area of memory that is configured as cacheless
  23:../../libDaisy//src/daisy_core.h **** This should be used primarily for DMA buffers, and the like.
  24:../../libDaisy//src/daisy_core.h **** */
  25:../../libDaisy//src/daisy_core.h **** #define DMA_BUFFER_MEM_SECTION __attribute__((section(".sram1_bss")))
  26:../../libDaisy//src/daisy_core.h **** /** 
  27:../../libDaisy//src/daisy_core.h **** THE DTCM RAM section is also non-cached. However, is not suitable 
  28:../../libDaisy//src/daisy_core.h **** for DMA transfers. Performance is on par with internal SRAM w/ 
  29:../../libDaisy//src/daisy_core.h **** cache enabled.
  30:../../libDaisy//src/daisy_core.h **** */
  31:../../libDaisy//src/daisy_core.h **** #define DTCM_MEM_SECTION __attribute__((section(".dtcmram_bss")))
  32:../../libDaisy//src/daisy_core.h **** 
  33:../../libDaisy//src/daisy_core.h **** #define FBIPMAX 0.999985f             /**< close to 1.0f-LSB at 16 bit */
  34:../../libDaisy//src/daisy_core.h **** #define FBIPMIN (-FBIPMAX)            /**< - (1 - LSB) */
  35:../../libDaisy//src/daisy_core.h **** #define U82F_SCALE 0.0078740f         /**< 1 / 127 */
  36:../../libDaisy//src/daisy_core.h **** #define F2U8_SCALE 127.0f             /**< 128 - 1 */
  37:../../libDaisy//src/daisy_core.h **** #define S82F_SCALE 0.0078125f         /**< 1 / (2**7) */
  38:../../libDaisy//src/daisy_core.h **** #define F2S8_SCALE 127.0f             /**< (2 ** 7) - 1 */
  39:../../libDaisy//src/daisy_core.h **** #define S162F_SCALE 3.0517578125e-05f /**< 1 / (2** 15) */
  40:../../libDaisy//src/daisy_core.h **** #define F2S16_SCALE 32767.0f          /**< (2 ** 15) - 1 */
  41:../../libDaisy//src/daisy_core.h **** #define F2S24_SCALE 8388608.0f        /**< 2 ** 23 */
  42:../../libDaisy//src/daisy_core.h **** #define S242F_SCALE 1.192092896e-07f  /**< 1 / (2 ** 23) */
  43:../../libDaisy//src/daisy_core.h **** #define S24SIGN 0x800000              /**< 2 ** 23 */
  44:../../libDaisy//src/daisy_core.h **** #define S322F_SCALE 4.6566129e-10f    /**< 1 / (2** 31) */
  45:../../libDaisy//src/daisy_core.h **** #define F2S32_SCALE 2147483647.f      /**< (2 ** 31) - 1 */
  46:../../libDaisy//src/daisy_core.h **** 
  47:../../libDaisy//src/daisy_core.h **** 
  48:../../libDaisy//src/daisy_core.h **** /** shorthand macro for simplifying the reading of the left 
  49:../../libDaisy//src/daisy_core.h ****  *  channel of a non-interleaved output buffer named out */
  50:../../libDaisy//src/daisy_core.h **** #define OUT_L out[0]
  51:../../libDaisy//src/daisy_core.h **** 
  52:../../libDaisy//src/daisy_core.h **** /** shorthand macro for simplifying the reading of the right 
  53:../../libDaisy//src/daisy_core.h ****  *  channel of a non-interleaved output buffer named out */
  54:../../libDaisy//src/daisy_core.h **** #define OUT_R out[1]
  55:../../libDaisy//src/daisy_core.h **** 
  56:../../libDaisy//src/daisy_core.h **** /** shorthand macro for simplifying the reading of the left 
  57:../../libDaisy//src/daisy_core.h ****  *  channel of a non-interleaved input buffer named in */
  58:../../libDaisy//src/daisy_core.h **** #define IN_L in[0]
  59:../../libDaisy//src/daisy_core.h **** 
ARM GAS  C:\Users\danig\AppData\Local\Temp\cczbxOjJ.s 			page 21


  60:../../libDaisy//src/daisy_core.h **** /** shorthand macro for simplifying the reading of the right 
  61:../../libDaisy//src/daisy_core.h ****  *  channel of a non-interleaved input buffer named in */
  62:../../libDaisy//src/daisy_core.h **** #define IN_R in[1]
  63:../../libDaisy//src/daisy_core.h **** 
  64:../../libDaisy//src/daisy_core.h **** /** 
  65:../../libDaisy//src/daisy_core.h ****     Computes cube.
  66:../../libDaisy//src/daisy_core.h ****     \param x Number to be cubed
  67:../../libDaisy//src/daisy_core.h ****     \return x ^ 3
  68:../../libDaisy//src/daisy_core.h **** */
  69:../../libDaisy//src/daisy_core.h **** FORCE_INLINE float cube(float x)
  70:../../libDaisy//src/daisy_core.h **** {
  71:../../libDaisy//src/daisy_core.h ****     return (x * x) * x;
  72:../../libDaisy//src/daisy_core.h **** }
  73:../../libDaisy//src/daisy_core.h **** 
  74:../../libDaisy//src/daisy_core.h **** /** 
  75:../../libDaisy//src/daisy_core.h ****     Converts unsigned 8-bit to float
  76:../../libDaisy//src/daisy_core.h ****     \param x Number to be scaled.
  77:../../libDaisy//src/daisy_core.h ****     \return Scaled number.
  78:../../libDaisy//src/daisy_core.h **** */
  79:../../libDaisy//src/daisy_core.h **** FORCE_INLINE float u82f(uint8_t x)
  80:../../libDaisy//src/daisy_core.h **** {
  81:../../libDaisy//src/daisy_core.h ****     return ((float)x - 127.f) * U82F_SCALE;
  82:../../libDaisy//src/daisy_core.h **** }
  83:../../libDaisy//src/daisy_core.h **** 
  84:../../libDaisy//src/daisy_core.h **** /**
  85:../../libDaisy//src/daisy_core.h ****     Converts float to unsigned 8-bit
  86:../../libDaisy//src/daisy_core.h **** */
  87:../../libDaisy//src/daisy_core.h **** FORCE_INLINE uint8_t f2u8(float x)
  88:../../libDaisy//src/daisy_core.h **** {
  89:../../libDaisy//src/daisy_core.h ****     x = x <= FBIPMIN ? FBIPMIN : x;
  90:../../libDaisy//src/daisy_core.h ****     x = x >= FBIPMAX ? FBIPMAX : x;
  91:../../libDaisy//src/daisy_core.h ****     return (uint8_t)((x * F2U8_SCALE) + F2U8_SCALE);
  92:../../libDaisy//src/daisy_core.h **** }
  93:../../libDaisy//src/daisy_core.h **** 
  94:../../libDaisy//src/daisy_core.h **** 
  95:../../libDaisy//src/daisy_core.h **** /** 
  96:../../libDaisy//src/daisy_core.h ****     Converts Signed 8-bit to float
  97:../../libDaisy//src/daisy_core.h ****     \param x Number to be scaled.
  98:../../libDaisy//src/daisy_core.h ****     \return Scaled number.
  99:../../libDaisy//src/daisy_core.h **** */
 100:../../libDaisy//src/daisy_core.h **** FORCE_INLINE float s82f(int8_t x)
 101:../../libDaisy//src/daisy_core.h **** {
 102:../../libDaisy//src/daisy_core.h ****     return (float)x * S82F_SCALE;
 103:../../libDaisy//src/daisy_core.h **** }
 104:../../libDaisy//src/daisy_core.h **** 
 105:../../libDaisy//src/daisy_core.h **** /**
 106:../../libDaisy//src/daisy_core.h ****     Converts float to Signed 8-bit
 107:../../libDaisy//src/daisy_core.h **** */
 108:../../libDaisy//src/daisy_core.h **** FORCE_INLINE int8_t f2s8(float x)
 109:../../libDaisy//src/daisy_core.h **** {
 110:../../libDaisy//src/daisy_core.h ****     x = x <= FBIPMIN ? FBIPMIN : x;
 111:../../libDaisy//src/daisy_core.h ****     x = x >= FBIPMAX ? FBIPMAX : x;
 112:../../libDaisy//src/daisy_core.h ****     return (int32_t)(x * F2S8_SCALE);
 113:../../libDaisy//src/daisy_core.h **** }
 114:../../libDaisy//src/daisy_core.h **** 
 115:../../libDaisy//src/daisy_core.h **** /** 
 116:../../libDaisy//src/daisy_core.h ****     Converts Signed 16-bit to float
ARM GAS  C:\Users\danig\AppData\Local\Temp\cczbxOjJ.s 			page 22


 117:../../libDaisy//src/daisy_core.h ****     \param x Number to be scaled.
 118:../../libDaisy//src/daisy_core.h ****     \return Scaled number.
 119:../../libDaisy//src/daisy_core.h **** */
 120:../../libDaisy//src/daisy_core.h **** FORCE_INLINE float s162f(int16_t x)
 121:../../libDaisy//src/daisy_core.h **** {
 122:../../libDaisy//src/daisy_core.h ****     return (float)x * S162F_SCALE;
 123:../../libDaisy//src/daisy_core.h **** }
 124:../../libDaisy//src/daisy_core.h **** 
 125:../../libDaisy//src/daisy_core.h **** /**
 126:../../libDaisy//src/daisy_core.h ****     Converts float to Signed 16-bit
 127:../../libDaisy//src/daisy_core.h **** */
 128:../../libDaisy//src/daisy_core.h **** FORCE_INLINE int16_t f2s16(float x)
 129:../../libDaisy//src/daisy_core.h **** {
 130:../../libDaisy//src/daisy_core.h ****     x = x <= FBIPMIN ? FBIPMIN : x;
 131:../../libDaisy//src/daisy_core.h ****     x = x >= FBIPMAX ? FBIPMAX : x;
 132:../../libDaisy//src/daisy_core.h ****     return (int32_t)(x * F2S16_SCALE);
 133:../../libDaisy//src/daisy_core.h **** }
 134:../../libDaisy//src/daisy_core.h **** 
 135:../../libDaisy//src/daisy_core.h **** /**
 136:../../libDaisy//src/daisy_core.h ****     Converts Signed 24-bit to float
 137:../../libDaisy//src/daisy_core.h ****  */
 138:../../libDaisy//src/daisy_core.h **** FORCE_INLINE float s242f(int32_t x)
 139:../../libDaisy//src/daisy_core.h **** {
 140:../../libDaisy//src/daisy_core.h ****     x = (x ^ S24SIGN) - S24SIGN; //sign extend aka ((x<<8)>>8)
 141:../../libDaisy//src/daisy_core.h ****     return (float)x * S242F_SCALE;
 142:../../libDaisy//src/daisy_core.h **** }
 143:../../libDaisy//src/daisy_core.h **** /**
 144:../../libDaisy//src/daisy_core.h ****     Converts float to Signed 24-bit
 145:../../libDaisy//src/daisy_core.h ****  */
 146:../../libDaisy//src/daisy_core.h **** FORCE_INLINE int32_t f2s24(float x)
 147:../../libDaisy//src/daisy_core.h **** {
 148:../../libDaisy//src/daisy_core.h ****     x = x <= FBIPMIN ? FBIPMIN : x;
 149:../../libDaisy//src/daisy_core.h ****     x = x >= FBIPMAX ? FBIPMAX : x;
 150:../../libDaisy//src/daisy_core.h ****     return (int32_t)(x * F2S24_SCALE);
 151:../../libDaisy//src/daisy_core.h **** }
 152:../../libDaisy//src/daisy_core.h **** 
 153:../../libDaisy//src/daisy_core.h **** /**
 154:../../libDaisy//src/daisy_core.h ****     Converts Signed 32-bit to float
 155:../../libDaisy//src/daisy_core.h ****  */
 156:../../libDaisy//src/daisy_core.h **** FORCE_INLINE float s322f(int32_t x)
 157:../../libDaisy//src/daisy_core.h **** {
 158:../../libDaisy//src/daisy_core.h ****     return (float)x * S322F_SCALE;
 159:../../libDaisy//src/daisy_core.h **** }
 160:../../libDaisy//src/daisy_core.h **** /**
 161:../../libDaisy//src/daisy_core.h ****     Converts float to Signed 24-bit
 162:../../libDaisy//src/daisy_core.h ****  */
 163:../../libDaisy//src/daisy_core.h **** FORCE_INLINE int32_t f2s32(float x)
 164:../../libDaisy//src/daisy_core.h **** {
 165:../../libDaisy//src/daisy_core.h ****     x = x <= FBIPMIN ? FBIPMIN : x;
 166:../../libDaisy//src/daisy_core.h ****     x = x >= FBIPMAX ? FBIPMAX : x;
 167:../../libDaisy//src/daisy_core.h ****     return (int32_t)(x * F2S32_SCALE);
 168:../../libDaisy//src/daisy_core.h **** }
 169:../../libDaisy//src/daisy_core.h **** 
 170:../../libDaisy//src/daisy_core.h **** #ifdef __cplusplus
 171:../../libDaisy//src/daisy_core.h **** 
 172:../../libDaisy//src/daisy_core.h **** namespace daisy
 173:../../libDaisy//src/daisy_core.h **** {
ARM GAS  C:\Users\danig\AppData\Local\Temp\cczbxOjJ.s 			page 23


 174:../../libDaisy//src/daisy_core.h **** /** @brief GPIO Port names */
 175:../../libDaisy//src/daisy_core.h **** enum GPIOPort
 176:../../libDaisy//src/daisy_core.h **** {
 177:../../libDaisy//src/daisy_core.h ****     PORTA, /**< Port A */
 178:../../libDaisy//src/daisy_core.h ****     PORTB, /**< Port B */
 179:../../libDaisy//src/daisy_core.h ****     PORTC, /**< Port C */
 180:../../libDaisy//src/daisy_core.h ****     PORTD, /**< Port D */
 181:../../libDaisy//src/daisy_core.h ****     PORTE, /**< Port E */
 182:../../libDaisy//src/daisy_core.h ****     PORTF, /**< Port F */
 183:../../libDaisy//src/daisy_core.h ****     PORTG, /**< Port G */
 184:../../libDaisy//src/daisy_core.h ****     PORTH, /**< Port H */
 185:../../libDaisy//src/daisy_core.h ****     PORTI, /**< Port I */
 186:../../libDaisy//src/daisy_core.h ****     PORTJ, /**< Port J */
 187:../../libDaisy//src/daisy_core.h ****     PORTK, /**< Port K */
 188:../../libDaisy//src/daisy_core.h ****     PORTX, /**< Used as a dummy port to signal an invalid pin. */
 189:../../libDaisy//src/daisy_core.h **** };
 190:../../libDaisy//src/daisy_core.h **** 
 191:../../libDaisy//src/daisy_core.h **** /** @brief representation of hardware port/pin combination */
 192:../../libDaisy//src/daisy_core.h **** struct Pin
 193:../../libDaisy//src/daisy_core.h **** {
 194:../../libDaisy//src/daisy_core.h ****     GPIOPort port;
 195:../../libDaisy//src/daisy_core.h ****     uint8_t  pin;
 196:../../libDaisy//src/daisy_core.h **** 
 197:../../libDaisy//src/daisy_core.h ****     /** @brief Constructor creates a valid pin. 
 198:../../libDaisy//src/daisy_core.h ****      *  @param pt GPIOPort between PA, and PK corresponding to STM32 Port.
 199:../../libDaisy//src/daisy_core.h ****      *  @param pn pin number in range of 0-15
 200:../../libDaisy//src/daisy_core.h ****     */
 201:../../libDaisy//src/daisy_core.h ****     constexpr Pin(const GPIOPort pt, const uint8_t pn) : port(pt), pin(pn) {}
 202:../../libDaisy//src/daisy_core.h **** 
 203:../../libDaisy//src/daisy_core.h ****     /** @brief Basic Constructor creates an invalid Pin object */
 204:../../libDaisy//src/daisy_core.h ****     constexpr Pin() : port(PORTX), pin(255) {}
 385              		.loc 5 204 43 view .LVU72
 386 0002 4FF60B71 		movw	r1, #65291
 387              	.LVL25:
 388              		.loc 5 204 43 view .LVU73
 389              	.LBE315:
 390              	.LBE314:
 391              	.LBE313:
 392              	.LBE312:
 393              	.LBE311:
 394              	.LBE310:
 395              	.LBE309:
  17:../../libDaisy//src/hid/disp/oled_display.h ****     virtual ~OledDisplay() {}
 396              		.loc 1 17 19 view .LVU74
 397 0006 094A     		ldr	r2, .L14
 398              	.LBB356:
 399              	.LBB354:
 400              	.LBB327:
 401              	.LBB323:
 402              	.LBB319:
 403              	.LBB317:
 404              	.LBB316:
 405              		.loc 5 204 43 view .LVU75
 406 0008 0182     		strh	r1, [r0, #16]	@ movhi
 407              	.LBE316:
 408              	.LBE317:
 409              	.LBE319:
ARM GAS  C:\Users\danig\AppData\Local\Temp\cczbxOjJ.s 			page 24


 410              	.LBE323:
 411              	.LBE327:
 412              	.LBB328:
 413              	.LBB329:
 414              	.LBB330:
 415              	.LBB331:
 416              	.LBB332:
 417 000a 0B21     		movs	r1, #11
 418              	.LBE332:
 419              	.LBE331:
 420              	.LBE330:
 421              	.LBE329:
 422              	.LBE328:
 423              	.LBE354:
 424              	.LBE356:
  17:../../libDaisy//src/hid/disp/oled_display.h ****     virtual ~OledDisplay() {}
 425              		.loc 1 17 19 view .LVU76
 426 000c 4260     		str	r2, [r0, #4]
 427              	.LVL26:
 428              	.LBB357:
 429              	.LBI309:
 254:../../libDaisy//src/dev/oled_ssd130x.h **** {
 430              		.loc 3 254 7 is_stmt 1 view .LVU77
 431              	.LBB355:
 432              	.LBI310:
  66:../../libDaisy//src/dev/oled_ssd130x.h **** {
 433              		.loc 3 66 7 view .LVU78
 434              	.LBB343:
 435              	.LBI343:
 436              		.file 6 "../../libDaisy//src/per/spi.h"
   1:../../libDaisy//src/per/spi.h **** #pragma once
   2:../../libDaisy//src/per/spi.h **** #ifndef DSY_SPI_H
   3:../../libDaisy//src/per/spi.h **** #define DSY_SPI_H
   4:../../libDaisy//src/per/spi.h **** 
   5:../../libDaisy//src/per/spi.h **** #include "daisy_core.h"
   6:../../libDaisy//src/per/spi.h **** 
   7:../../libDaisy//src/per/spi.h **** #if !UNIT_TEST
   8:../../libDaisy//src/per/spi.h **** #include "util/hal_map.h"
   9:../../libDaisy//src/per/spi.h **** #endif
  10:../../libDaisy//src/per/spi.h **** 
  11:../../libDaisy//src/per/spi.h **** /* TODO:
  12:../../libDaisy//src/per/spi.h **** - Add documentation
  13:../../libDaisy//src/per/spi.h **** - Add IT
  14:../../libDaisy//src/per/spi.h **** */
  15:../../libDaisy//src/per/spi.h **** 
  16:../../libDaisy//src/per/spi.h **** namespace daisy
  17:../../libDaisy//src/per/spi.h **** {
  18:../../libDaisy//src/per/spi.h **** /** @addtogroup serial
  19:../../libDaisy//src/per/spi.h **** @{
  20:../../libDaisy//src/per/spi.h **** */
  21:../../libDaisy//src/per/spi.h **** 
  22:../../libDaisy//src/per/spi.h **** /**  Handler for serial peripheral interface */
  23:../../libDaisy//src/per/spi.h **** class SpiHandle
  24:../../libDaisy//src/per/spi.h **** {
  25:../../libDaisy//src/per/spi.h ****   public:
  26:../../libDaisy//src/per/spi.h ****     struct Config
  27:../../libDaisy//src/per/spi.h ****     {
ARM GAS  C:\Users\danig\AppData\Local\Temp\cczbxOjJ.s 			page 25


  28:../../libDaisy//src/per/spi.h ****         enum class Peripheral
  29:../../libDaisy//src/per/spi.h ****         {
  30:../../libDaisy//src/per/spi.h ****             SPI_1,
  31:../../libDaisy//src/per/spi.h ****             SPI_2,
  32:../../libDaisy//src/per/spi.h ****             SPI_3,
  33:../../libDaisy//src/per/spi.h ****             SPI_4,
  34:../../libDaisy//src/per/spi.h ****             SPI_5,
  35:../../libDaisy//src/per/spi.h ****             SPI_6,
  36:../../libDaisy//src/per/spi.h ****         };
  37:../../libDaisy//src/per/spi.h **** 
  38:../../libDaisy//src/per/spi.h ****         enum class Mode
  39:../../libDaisy//src/per/spi.h ****         {
  40:../../libDaisy//src/per/spi.h ****             MASTER,
  41:../../libDaisy//src/per/spi.h ****             SLAVE,
  42:../../libDaisy//src/per/spi.h ****         };
  43:../../libDaisy//src/per/spi.h **** 
  44:../../libDaisy//src/per/spi.h ****         enum class Direction
  45:../../libDaisy//src/per/spi.h ****         {
  46:../../libDaisy//src/per/spi.h ****             TWO_LINES,
  47:../../libDaisy//src/per/spi.h ****             TWO_LINES_TX_ONLY,
  48:../../libDaisy//src/per/spi.h ****             TWO_LINES_RX_ONLY,
  49:../../libDaisy//src/per/spi.h ****             ONE_LINE,
  50:../../libDaisy//src/per/spi.h ****         };
  51:../../libDaisy//src/per/spi.h **** 
  52:../../libDaisy//src/per/spi.h ****         enum class ClockPolarity
  53:../../libDaisy//src/per/spi.h ****         {
  54:../../libDaisy//src/per/spi.h ****             LOW,
  55:../../libDaisy//src/per/spi.h ****             HIGH,
  56:../../libDaisy//src/per/spi.h ****         };
  57:../../libDaisy//src/per/spi.h **** 
  58:../../libDaisy//src/per/spi.h ****         enum class ClockPhase
  59:../../libDaisy//src/per/spi.h ****         {
  60:../../libDaisy//src/per/spi.h ****             ONE_EDGE,
  61:../../libDaisy//src/per/spi.h ****             TWO_EDGE,
  62:../../libDaisy//src/per/spi.h ****         };
  63:../../libDaisy//src/per/spi.h **** 
  64:../../libDaisy//src/per/spi.h ****         enum class NSS
  65:../../libDaisy//src/per/spi.h ****         {
  66:../../libDaisy//src/per/spi.h ****             SOFT,
  67:../../libDaisy//src/per/spi.h ****             HARD_INPUT,
  68:../../libDaisy//src/per/spi.h ****             HARD_OUTPUT,
  69:../../libDaisy//src/per/spi.h ****         };
  70:../../libDaisy//src/per/spi.h **** 
  71:../../libDaisy//src/per/spi.h ****         enum class BaudPrescaler
  72:../../libDaisy//src/per/spi.h ****         {
  73:../../libDaisy//src/per/spi.h ****             PS_2,
  74:../../libDaisy//src/per/spi.h ****             PS_4,
  75:../../libDaisy//src/per/spi.h ****             PS_8,
  76:../../libDaisy//src/per/spi.h ****             PS_16,
  77:../../libDaisy//src/per/spi.h ****             PS_32,
  78:../../libDaisy//src/per/spi.h ****             PS_64,
  79:../../libDaisy//src/per/spi.h ****             PS_128,
  80:../../libDaisy//src/per/spi.h ****             PS_256,
  81:../../libDaisy//src/per/spi.h ****         };
  82:../../libDaisy//src/per/spi.h **** 
  83:../../libDaisy//src/per/spi.h ****         struct
  84:../../libDaisy//src/per/spi.h ****         {
ARM GAS  C:\Users\danig\AppData\Local\Temp\cczbxOjJ.s 			page 26


  85:../../libDaisy//src/per/spi.h ****             Pin sclk; /**< & */
  86:../../libDaisy//src/per/spi.h ****             Pin miso; /**< & */
  87:../../libDaisy//src/per/spi.h ****             Pin mosi; /**< & */
  88:../../libDaisy//src/per/spi.h ****             Pin nss;  /**< & */
  89:../../libDaisy//src/per/spi.h ****         } pin_config;
  90:../../libDaisy//src/per/spi.h **** 
  91:../../libDaisy//src/per/spi.h ****         Config()
  92:../../libDaisy//src/per/spi.h ****         {
  93:../../libDaisy//src/per/spi.h ****             // user must specify periph, mode, direction, nss, and pin_config
  94:../../libDaisy//src/per/spi.h ****             datasize       = 8;
  95:../../libDaisy//src/per/spi.h ****             clock_polarity = ClockPolarity::LOW;
  96:../../libDaisy//src/per/spi.h ****             clock_phase    = ClockPhase::ONE_EDGE;
  97:../../libDaisy//src/per/spi.h ****             baud_prescaler = BaudPrescaler::PS_8;
  98:../../libDaisy//src/per/spi.h ****         }
  99:../../libDaisy//src/per/spi.h **** 
 100:../../libDaisy//src/per/spi.h ****         Peripheral    periph;
 101:../../libDaisy//src/per/spi.h ****         Mode          mode;
 102:../../libDaisy//src/per/spi.h ****         Direction     direction;
 103:../../libDaisy//src/per/spi.h ****         unsigned long datasize;
 104:../../libDaisy//src/per/spi.h ****         ClockPolarity clock_polarity;
 105:../../libDaisy//src/per/spi.h ****         ClockPhase    clock_phase;
 106:../../libDaisy//src/per/spi.h ****         NSS           nss;
 107:../../libDaisy//src/per/spi.h ****         BaudPrescaler baud_prescaler;
 108:../../libDaisy//src/per/spi.h ****     };
 109:../../libDaisy//src/per/spi.h **** 
 110:../../libDaisy//src/per/spi.h ****     SpiHandle() : pimpl_(nullptr) {}
 437              		.loc 6 110 5 view .LVU79
 438              		.loc 6 110 5 is_stmt 0 view .LVU80
 439              	.LBE343:
 440              	.LBB346:
 441              	.LBI311:
 442              		.file 7 "../../libDaisy//src/per/gpio.h"
   1:../../libDaisy//src/per/gpio.h **** #pragma once
   2:../../libDaisy//src/per/gpio.h **** #ifndef DSY_GPIO_H
   3:../../libDaisy//src/per/gpio.h **** #define DSY_GPIO_H
   4:../../libDaisy//src/per/gpio.h **** #include "daisy_core.h"
   5:../../libDaisy//src/per/gpio.h **** 
   6:../../libDaisy//src/per/gpio.h **** #ifdef __cplusplus
   7:../../libDaisy//src/per/gpio.h **** 
   8:../../libDaisy//src/per/gpio.h **** namespace daisy
   9:../../libDaisy//src/per/gpio.h **** {
  10:../../libDaisy//src/per/gpio.h **** /** @brief General Purpose I/O control 
  11:../../libDaisy//src/per/gpio.h ****  *  @details peripheral control over a single GPIO
  12:../../libDaisy//src/per/gpio.h ****  *  @ingroup peripheral
  13:../../libDaisy//src/per/gpio.h ****  *   
  14:../../libDaisy//src/per/gpio.h ****  *  Button Input (with internal Pullup resistor)
  15:../../libDaisy//src/per/gpio.h ****  *  @include GPIO_Input.cpp 
  16:../../libDaisy//src/per/gpio.h ****  * 
  17:../../libDaisy//src/per/gpio.h ****  *  Output Example (perfect for blinking an LED)
  18:../../libDaisy//src/per/gpio.h ****  *  @include GPIO_Output.cpp
  19:../../libDaisy//src/per/gpio.h ****  * 
  20:../../libDaisy//src/per/gpio.h **** */
  21:../../libDaisy//src/per/gpio.h **** class GPIO
  22:../../libDaisy//src/per/gpio.h **** {
  23:../../libDaisy//src/per/gpio.h ****   public:
  24:../../libDaisy//src/per/gpio.h ****     /** @brief Mode of operation for the specified GPIO */
  25:../../libDaisy//src/per/gpio.h ****     enum class Mode
ARM GAS  C:\Users\danig\AppData\Local\Temp\cczbxOjJ.s 			page 27


  26:../../libDaisy//src/per/gpio.h ****     {
  27:../../libDaisy//src/per/gpio.h ****         INPUT,      /**< Input for reading state of pin */
  28:../../libDaisy//src/per/gpio.h ****         OUTPUT,     /**< Output w/ push-pull configuration */
  29:../../libDaisy//src/per/gpio.h ****         OPEN_DRAIN, /**< Output w/ open-drain configuration */
  30:../../libDaisy//src/per/gpio.h ****         ANALOG,     /**< Analog for connection to ADC or DAC peripheral */
  31:../../libDaisy//src/per/gpio.h ****     };
  32:../../libDaisy//src/per/gpio.h **** 
  33:../../libDaisy//src/per/gpio.h ****     /** @brief Configures whether an internal Pull up or Pull down resistor is used. 
  34:../../libDaisy//src/per/gpio.h ****      *  
  35:../../libDaisy//src/per/gpio.h ****      * Internal Pull up/down resistors are typically 40k ohms, and will be between
  36:../../libDaisy//src/per/gpio.h ****      * 30k and 50k
  37:../../libDaisy//src/per/gpio.h ****      * 
  38:../../libDaisy//src/per/gpio.h ****      * When the Pin is configured in Analog mode, the pull up/down resistors are
  39:../../libDaisy//src/per/gpio.h ****      * disabled by hardware. 
  40:../../libDaisy//src/per/gpio.h ****      */
  41:../../libDaisy//src/per/gpio.h ****     enum class Pull
  42:../../libDaisy//src/per/gpio.h ****     {
  43:../../libDaisy//src/per/gpio.h ****         NOPULL,   /**< No pull up resistor */
  44:../../libDaisy//src/per/gpio.h ****         PULLUP,   /**< Internal pull up enabled */
  45:../../libDaisy//src/per/gpio.h ****         PULLDOWN, /**< Internal pull down enabled*/
  46:../../libDaisy//src/per/gpio.h ****     };
  47:../../libDaisy//src/per/gpio.h **** 
  48:../../libDaisy//src/per/gpio.h ****     /** @brief Output speed controls the drive strength, and slew rate of the pin */
  49:../../libDaisy//src/per/gpio.h ****     enum class Speed
  50:../../libDaisy//src/per/gpio.h ****     {
  51:../../libDaisy//src/per/gpio.h ****         LOW,
  52:../../libDaisy//src/per/gpio.h ****         MEDIUM,
  53:../../libDaisy//src/per/gpio.h ****         HIGH,
  54:../../libDaisy//src/per/gpio.h ****         VERY_HIGH,
  55:../../libDaisy//src/per/gpio.h ****     };
  56:../../libDaisy//src/per/gpio.h **** 
  57:../../libDaisy//src/per/gpio.h ****     /** @brief Configuration for a given GPIO */
  58:../../libDaisy//src/per/gpio.h ****     struct Config
  59:../../libDaisy//src/per/gpio.h ****     {
  60:../../libDaisy//src/per/gpio.h ****         Pin   pin;
  61:../../libDaisy//src/per/gpio.h ****         Mode  mode;
  62:../../libDaisy//src/per/gpio.h ****         Pull  pull;
  63:../../libDaisy//src/per/gpio.h ****         Speed speed;
  64:../../libDaisy//src/per/gpio.h **** 
  65:../../libDaisy//src/per/gpio.h ****         /** Constructor with no arguments will prepare an invalid GPIO set as
  66:../../libDaisy//src/per/gpio.h ****          *  an input, with no pullup. 
  67:../../libDaisy//src/per/gpio.h ****          */
  68:../../libDaisy//src/per/gpio.h ****         Config()
  69:../../libDaisy//src/per/gpio.h ****         : pin(), mode(Mode::INPUT), pull(Pull::NOPULL), speed(Speed::LOW)
  70:../../libDaisy//src/per/gpio.h ****         {
  71:../../libDaisy//src/per/gpio.h ****         }
  72:../../libDaisy//src/per/gpio.h ****     };
  73:../../libDaisy//src/per/gpio.h **** 
  74:../../libDaisy//src/per/gpio.h ****     GPIO() {}
 443              		.loc 7 74 5 is_stmt 1 view .LVU81
 444              	.LBB324:
 445              	.LBI312:
  68:../../libDaisy//src/per/gpio.h ****         : pin(), mode(Mode::INPUT), pull(Pull::NOPULL), speed(Speed::LOW)
 446              		.loc 7 68 9 view .LVU82
 447              	.LBB320:
 448              	.LBB318:
 449              	.LBI314:
ARM GAS  C:\Users\danig\AppData\Local\Temp\cczbxOjJ.s 			page 28


 450              		.loc 5 204 15 view .LVU83
 451              		.loc 5 204 15 is_stmt 0 view .LVU84
 452              	.LBE318:
 453              	.LBE320:
 454              	.LBE324:
 455              	.LBE346:
 456              	.LBB347:
 457              	.LBB344:
 458              		.loc 6 110 33 view .LVU85
 459 000e 0022     		movs	r2, #0
 460              	.LBE344:
 461              	.LBE347:
 462              	.LBB348:
 463              	.LBB340:
 464              	.LBB337:
 465              	.LBB335:
 466              	.LBB333:
 467              		.loc 5 204 43 view .LVU86
 468 0010 80F82410 		strb	r1, [r0, #36]
 469 0014 FF21     		movs	r1, #255
 470              	.LBE333:
 471              	.LBE335:
 472              	.LBE337:
 473              	.LBE340:
 474              	.LBE348:
 475              	.LBB349:
 476              	.LBB345:
 477              		.loc 6 110 33 view .LVU87
 478 0016 C260     		str	r2, [r0, #12]
 479              	.LBE345:
 480              	.LBE349:
 481              	.LBB350:
 482              	.LBB325:
 483              	.LBB321:
  69:../../libDaisy//src/per/gpio.h ****         {
 484              		.loc 7 69 73 view .LVU88
 485 0018 C261     		str	r2, [r0, #28]
 486              	.LVL27:
  69:../../libDaisy//src/per/gpio.h ****         {
 487              		.loc 7 69 73 view .LVU89
 488              	.LBE321:
 489              	.LBE325:
 490              	.LBE350:
 491              	.LBB351:
 492              	.LBI328:
 493              		.loc 7 74 5 is_stmt 1 view .LVU90
 494              	.LBB341:
 495              	.LBI329:
  68:../../libDaisy//src/per/gpio.h ****         : pin(), mode(Mode::INPUT), pull(Pull::NOPULL), speed(Speed::LOW)
 496              		.loc 7 68 9 view .LVU91
 497              	.LBB338:
 498              	.LBB336:
 499              	.LBI331:
 500              		.loc 5 204 15 view .LVU92
 501              	.LBB334:
 502              		.loc 5 204 43 is_stmt 0 view .LVU93
 503 001a 80F82510 		strb	r1, [r0, #37]
ARM GAS  C:\Users\danig\AppData\Local\Temp\cczbxOjJ.s 			page 29


 504              	.LVL28:
 505              		.loc 5 204 43 view .LVU94
 506              	.LBE334:
 507              	.LBE336:
  69:../../libDaisy//src/per/gpio.h ****         {
 508              		.loc 7 69 73 view .LVU95
 509 001e 0263     		str	r2, [r0, #48]
 510              	.LVL29:
  69:../../libDaisy//src/per/gpio.h ****         {
 511              		.loc 7 69 73 view .LVU96
 512              	.LBE338:
 513              	.LBE341:
 514              	.LBE351:
 515              	.LBB352:
 516              	.LBB326:
 517              	.LBB322:
 518 0020 C0E90522 		strd	r2, r2, [r0, #20]
 519              	.LBE322:
 520              	.LBE326:
 521              	.LBE352:
 522              	.LBB353:
 523              	.LBB342:
 524              	.LBB339:
 525 0024 C0E90A22 		strd	r2, r2, [r0, #40]
 526              	.LBE339:
 527              	.LBE342:
 528              	.LBE353:
 529              	.LBE355:
 530              	.LBE357:
 531              	.LBE306:
 532              	.LBE305:
 533              	.LBE304:
 534              		.loc 4 4 44 view .LVU97
 535 0028 7047     		bx	lr
 536              	.L15:
 537 002a 00BF     		.align	2
 538              	.L14:
 539 002c 08000000 		.word	_ZTVN5daisy11OledDisplayINS_13SSD130xDriverILj128ELj64ENS_24SSD130x4WireSpiTransportEEEEE+8
 540              		.cfi_endproc
 541              	.LFE2782:
 543              		.global	_ZN7DisplayC1ERN5daisy9DaisySeedE
 544              		.thumb_set _ZN7DisplayC1ERN5daisy9DaisySeedE,_ZN7DisplayC2ERN5daisy9DaisySeedE
 545              		.section	.text._ZN7Display5ClearEv,"ax",%progbits
 546              		.align	1
 547              		.global	_ZN7Display5ClearEv
 548              		.syntax unified
 549              		.thumb
 550              		.thumb_func
 551              		.fpu fpv5-d16
 553              	_ZN7Display5ClearEv:
 554              	.LVL30:
 555              	.LFB2791:
   5:Display.cpp   **** 
   6:Display.cpp   **** void Display::Init()
   7:Display.cpp   **** {
   8:Display.cpp   ****     MyOledDisplay::Config disp_cfg;
   9:Display.cpp   ****     disp_cfg.driver_config.transport_config.pin_config.dc    = hw_.GetPin(9);
ARM GAS  C:\Users\danig\AppData\Local\Temp\cczbxOjJ.s 			page 30


  10:Display.cpp   ****     disp_cfg.driver_config.transport_config.pin_config.reset = hw_.GetPin(30);
  11:Display.cpp   ****     display_.Init(disp_cfg);
  12:Display.cpp   **** }
  13:Display.cpp   **** 
  14:Display.cpp   **** void Display::Clear()
  15:Display.cpp   **** { display_.Fill(false); }
 556              		.loc 4 15 1 is_stmt 1 view -0
 557              		.cfi_startproc
 558              		@ args = 0, pretend = 0, frame = 0
 559              		@ frame_needed = 0, uses_anonymous_args = 0
 560              		@ link register save eliminated.
 561              		.loc 4 15 3 view .LVU99
 562              	.LBB363:
 563              	.LBI363:
  34:../../libDaisy//src/hid/disp/oled_display.h **** 
 564              		.loc 1 34 10 view .LVU100
 565              	.LBB364:
 566              	.LBI364:
 371:../../libDaisy//src/dev/oled_ssd130x.h ****     {
 567              		.loc 3 371 10 view .LVU101
 568              	.LBB365:
 373:../../libDaisy//src/dev/oled_ssd130x.h ****         {
 569              		.loc 3 373 29 view .LVU102
 570              		.loc 3 375 24 is_stmt 0 view .LVU103
 571 0000 4FF48062 		mov	r2, #1024
 572 0004 0021     		movs	r1, #0
 573 0006 3830     		adds	r0, r0, #56
 574              	.LVL31:
 575              		.loc 3 375 24 view .LVU104
 576 0008 FFF7FEBF 		b	memset
 577              	.LVL32:
 578              		.loc 3 375 24 view .LVU105
 579              	.LBE365:
 580              	.LBE364:
 581              	.LBE363:
 582              		.cfi_endproc
 583              	.LFE2791:
 585              		.section	.text._ZN5daisy13SSD130xDriverILj128ELj64ENS_24SSD130x4WireSpiTransportEE4InitENS2_6Confi
 586              		.align	1
 587              		.weak	_ZN5daisy13SSD130xDriverILj128ELj64ENS_24SSD130x4WireSpiTransportEE4InitENS2_6ConfigE
 588              		.syntax unified
 589              		.thumb
 590              		.thumb_func
 591              		.fpu fpv5-d16
 593              	_ZN5daisy13SSD130xDriverILj128ELj64ENS_24SSD130x4WireSpiTransportEE4InitENS2_6ConfigE:
 594              	.LVL33:
 595              	.LFB2840:
 262:../../libDaisy//src/dev/oled_ssd130x.h ****     {
 596              		.loc 3 262 10 is_stmt 1 view -0
 597              		.cfi_startproc
 598              		@ args = 52, pretend = 16, frame = 0
 599              		@ frame_needed = 0, uses_anonymous_args = 0
 262:../../libDaisy//src/dev/oled_ssd130x.h ****     {
 600              		.loc 3 262 10 is_stmt 0 view .LVU107
 601 0000 84B0     		sub	sp, sp, #16
 602              		.cfi_def_cfa_offset 16
 603 0002 F7B5     		push	{r0, r1, r2, r4, r5, r6, r7, lr}
ARM GAS  C:\Users\danig\AppData\Local\Temp\cczbxOjJ.s 			page 31


 604              		.cfi_def_cfa_offset 48
 605              		.cfi_offset 4, -36
 606              		.cfi_offset 5, -32
 607              		.cfi_offset 6, -28
 608              		.cfi_offset 7, -24
 609              		.cfi_offset 14, -20
 610              	.LVL34:
 611              	.LBB368:
 612              	.LBI368:
 107:../../libDaisy//src/dev/oled_ssd130x.h ****     {
 613              		.loc 3 107 10 is_stmt 1 view .LVU108
 614              	.LBB369:
 110:../../libDaisy//src/dev/oled_ssd130x.h ****         pin_reset_.Init(config.pin_config.reset, GPIO::Mode::OUTPUT);
 615              		.loc 3 110 9 view .LVU109
 616              	.LBE369:
 617              	.LBE368:
 262:../../libDaisy//src/dev/oled_ssd130x.h ****     {
 618              		.loc 3 262 10 is_stmt 0 view .LVU110
 619 0004 0446     		mov	r4, r0
 620              	.LBB373:
 621              	.LBB370:
 110:../../libDaisy//src/dev/oled_ssd130x.h ****         pin_reset_.Init(config.pin_config.reset, GPIO::Mode::OUTPUT);
 622              		.loc 3 110 21 view .LVU111
 623 0006 0025     		movs	r5, #0
 624              	.LBE370:
 625              	.LBE373:
 262:../../libDaisy//src/dev/oled_ssd130x.h ****     {
 626              		.loc 3 262 10 view .LVU112
 627 0008 09AE     		add	r6, sp, #36
 628              	.LBB374:
 629              	.LBB371:
 110:../../libDaisy//src/dev/oled_ssd130x.h ****         pin_reset_.Init(config.pin_config.reset, GPIO::Mode::OUTPUT);
 630              		.loc 3 110 21 view .LVU113
 631 000a 1830     		adds	r0, r0, #24
 632              	.LVL35:
 111:../../libDaisy//src/dev/oled_ssd130x.h **** 
 633              		.loc 3 111 24 view .LVU114
 634 000c 271D     		adds	r7, r4, #4
 635              	.LBE371:
 636              	.LBE374:
 262:../../libDaisy//src/dev/oled_ssd130x.h ****     {
 637              		.loc 3 262 10 view .LVU115
 638 000e 86E80E00 		stm	r6, {r1, r2, r3}
 639              	.LBB375:
 640              	.LBB372:
 110:../../libDaisy//src/dev/oled_ssd130x.h ****         pin_reset_.Init(config.pin_config.reset, GPIO::Mode::OUTPUT);
 641              		.loc 3 110 21 view .LVU116
 642 0012 2B46     		mov	r3, r5
 643 0014 1399     		ldr	r1, [sp, #76]
 644 0016 0122     		movs	r2, #1
 645 0018 0095     		str	r5, [sp]
 646 001a FFF7FEFF 		bl	_ZN5daisy4GPIO4InitENS_3PinENS0_4ModeENS0_4PullENS0_5SpeedE
 647              	.LVL36:
 111:../../libDaisy//src/dev/oled_ssd130x.h **** 
 648              		.loc 3 111 9 is_stmt 1 view .LVU117
 111:../../libDaisy//src/dev/oled_ssd130x.h **** 
 649              		.loc 3 111 24 is_stmt 0 view .LVU118
ARM GAS  C:\Users\danig\AppData\Local\Temp\cczbxOjJ.s 			page 32


 650 001e 2B46     		mov	r3, r5
 651 0020 0122     		movs	r2, #1
 652 0022 BDF84E10 		ldrh	r1, [sp, #78]
 653 0026 3846     		mov	r0, r7
 654 0028 0095     		str	r5, [sp]
 655 002a FFF7FEFF 		bl	_ZN5daisy4GPIO4InitENS_3PinENS0_4ModeENS0_4PullENS0_5SpeedE
 656              	.LVL37:
 114:../../libDaisy//src/dev/oled_ssd130x.h **** 
 657              		.loc 3 114 9 is_stmt 1 view .LVU119
 114:../../libDaisy//src/dev/oled_ssd130x.h **** 
 658              		.loc 3 114 18 is_stmt 0 view .LVU120
 659 002e 3146     		mov	r1, r6
 660 0030 2046     		mov	r0, r4
 661 0032 FFF7FEFF 		bl	_ZN5daisy9SpiHandle4InitERKNS0_6ConfigE
 662              	.LVL38:
 117:../../libDaisy//src/dev/oled_ssd130x.h ****         System::Delay(10);
 663              		.loc 3 117 9 is_stmt 1 view .LVU121
 117:../../libDaisy//src/dev/oled_ssd130x.h ****         System::Delay(10);
 664              		.loc 3 117 25 is_stmt 0 view .LVU122
 665 0036 2946     		mov	r1, r5
 666 0038 3846     		mov	r0, r7
 667 003a FFF7FEFF 		bl	_ZN5daisy4GPIO5WriteEb
 668              	.LVL39:
 118:../../libDaisy//src/dev/oled_ssd130x.h ****         pin_reset_.Write(1);
 669              		.loc 3 118 9 is_stmt 1 view .LVU123
 118:../../libDaisy//src/dev/oled_ssd130x.h ****         pin_reset_.Write(1);
 670              		.loc 3 118 22 is_stmt 0 view .LVU124
 671 003e 0A20     		movs	r0, #10
 672 0040 FFF7FEFF 		bl	_ZN5daisy6System5DelayEm
 673              	.LVL40:
 119:../../libDaisy//src/dev/oled_ssd130x.h ****         System::Delay(10);
 674              		.loc 3 119 9 is_stmt 1 view .LVU125
 119:../../libDaisy//src/dev/oled_ssd130x.h ****         System::Delay(10);
 675              		.loc 3 119 25 is_stmt 0 view .LVU126
 676 0044 0121     		movs	r1, #1
 677 0046 3846     		mov	r0, r7
 678 0048 FFF7FEFF 		bl	_ZN5daisy4GPIO5WriteEb
 679              	.LVL41:
 120:../../libDaisy//src/dev/oled_ssd130x.h ****     };
 680              		.loc 3 120 9 is_stmt 1 view .LVU127
 120:../../libDaisy//src/dev/oled_ssd130x.h ****     };
 681              		.loc 3 120 22 is_stmt 0 view .LVU128
 682 004c 0A20     		movs	r0, #10
 683 004e FFF7FEFF 		bl	_ZN5daisy6System5DelayEm
 684              	.LVL42:
 120:../../libDaisy//src/dev/oled_ssd130x.h ****     };
 685              		.loc 3 120 22 view .LVU129
 686              	.LBE372:
 687              	.LBE375:
 269:../../libDaisy//src/dev/oled_ssd130x.h ****         // Dimension dependent commands...
 688              		.loc 3 269 31 view .LVU130
 689 0052 2046     		mov	r0, r4
 690 0054 AE21     		movs	r1, #174
 691 0056 FFF7FEFF 		bl	_ZN5daisy24SSD130x4WireSpiTransport11SendCommandEh
 692              	.LVL43:
 316:../../libDaisy//src/dev/oled_ssd130x.h ****                 transport_.SendCommand(0x80);
 693              		.loc 3 316 39 view .LVU131
ARM GAS  C:\Users\danig\AppData\Local\Temp\cczbxOjJ.s 			page 33


 694 005a 2046     		mov	r0, r4
 695 005c D521     		movs	r1, #213
 696 005e FFF7FEFF 		bl	_ZN5daisy24SSD130x4WireSpiTransport11SendCommandEh
 697              	.LVL44:
 317:../../libDaisy//src/dev/oled_ssd130x.h ****                 // Multiplex Ratio
 698              		.loc 3 317 39 view .LVU132
 699 0062 2046     		mov	r0, r4
 700 0064 8021     		movs	r1, #128
 701 0066 FFF7FEFF 		bl	_ZN5daisy24SSD130x4WireSpiTransport11SendCommandEh
 702              	.LVL45:
 319:../../libDaisy//src/dev/oled_ssd130x.h ****                 transport_.SendCommand(0x3F);
 703              		.loc 3 319 39 view .LVU133
 704 006a 2046     		mov	r0, r4
 705 006c A821     		movs	r1, #168
 706 006e FFF7FEFF 		bl	_ZN5daisy24SSD130x4WireSpiTransport11SendCommandEh
 707              	.LVL46:
 320:../../libDaisy//src/dev/oled_ssd130x.h ****                 // COM Pins
 708              		.loc 3 320 39 view .LVU134
 709 0072 2046     		mov	r0, r4
 710 0074 3F21     		movs	r1, #63
 711 0076 FFF7FEFF 		bl	_ZN5daisy24SSD130x4WireSpiTransport11SendCommandEh
 712              	.LVL47:
 322:../../libDaisy//src/dev/oled_ssd130x.h ****                 transport_.SendCommand(0x12);
 713              		.loc 3 322 39 view .LVU135
 714 007a 2046     		mov	r0, r4
 715 007c DA21     		movs	r1, #218
 716 007e FFF7FEFF 		bl	_ZN5daisy24SSD130x4WireSpiTransport11SendCommandEh
 717              	.LVL48:
 323:../../libDaisy//src/dev/oled_ssd130x.h ****                 break;
 718              		.loc 3 323 39 view .LVU136
 719 0082 2046     		mov	r0, r4
 720 0084 1221     		movs	r1, #18
 721 0086 FFF7FEFF 		bl	_ZN5daisy24SSD130x4WireSpiTransport11SendCommandEh
 722              	.LVL49:
 328:../../libDaisy//src/dev/oled_ssd130x.h ****         transport_.SendCommand(0x00);
 723              		.loc 3 328 31 view .LVU137
 724 008a 2046     		mov	r0, r4
 725 008c D321     		movs	r1, #211
 726 008e FFF7FEFF 		bl	_ZN5daisy24SSD130x4WireSpiTransport11SendCommandEh
 727              	.LVL50:
 329:../../libDaisy//src/dev/oled_ssd130x.h ****         // Start Line Address
 728              		.loc 3 329 31 view .LVU138
 729 0092 2946     		mov	r1, r5
 730 0094 2046     		mov	r0, r4
 731 0096 FFF7FEFF 		bl	_ZN5daisy24SSD130x4WireSpiTransport11SendCommandEh
 732              	.LVL51:
 331:../../libDaisy//src/dev/oled_ssd130x.h ****         // Normal Display
 733              		.loc 3 331 31 view .LVU139
 734 009a 2046     		mov	r0, r4
 735 009c 4021     		movs	r1, #64
 736 009e FFF7FEFF 		bl	_ZN5daisy24SSD130x4WireSpiTransport11SendCommandEh
 737              	.LVL52:
 333:../../libDaisy//src/dev/oled_ssd130x.h ****         // All On Resume
 738              		.loc 3 333 31 view .LVU140
 739 00a2 2046     		mov	r0, r4
 740 00a4 A621     		movs	r1, #166
 741 00a6 FFF7FEFF 		bl	_ZN5daisy24SSD130x4WireSpiTransport11SendCommandEh
ARM GAS  C:\Users\danig\AppData\Local\Temp\cczbxOjJ.s 			page 34


 742              	.LVL53:
 335:../../libDaisy//src/dev/oled_ssd130x.h ****         // Charge Pump
 743              		.loc 3 335 31 view .LVU141
 744 00aa 2046     		mov	r0, r4
 745 00ac A421     		movs	r1, #164
 746 00ae FFF7FEFF 		bl	_ZN5daisy24SSD130x4WireSpiTransport11SendCommandEh
 747              	.LVL54:
 337:../../libDaisy//src/dev/oled_ssd130x.h ****         transport_.SendCommand(0x14);
 748              		.loc 3 337 31 view .LVU142
 749 00b2 2046     		mov	r0, r4
 750 00b4 8D21     		movs	r1, #141
 751 00b6 FFF7FEFF 		bl	_ZN5daisy24SSD130x4WireSpiTransport11SendCommandEh
 752              	.LVL55:
 338:../../libDaisy//src/dev/oled_ssd130x.h ****         // Set Segment Remap
 753              		.loc 3 338 31 view .LVU143
 754 00ba 2046     		mov	r0, r4
 755 00bc 1421     		movs	r1, #20
 756 00be FFF7FEFF 		bl	_ZN5daisy24SSD130x4WireSpiTransport11SendCommandEh
 757              	.LVL56:
 340:../../libDaisy//src/dev/oled_ssd130x.h ****         // COM Output Scan Direction
 758              		.loc 3 340 31 view .LVU144
 759 00c2 2046     		mov	r0, r4
 760 00c4 A121     		movs	r1, #161
 761 00c6 FFF7FEFF 		bl	_ZN5daisy24SSD130x4WireSpiTransport11SendCommandEh
 762              	.LVL57:
 342:../../libDaisy//src/dev/oled_ssd130x.h ****         // Contrast Control
 763              		.loc 3 342 31 view .LVU145
 764 00ca 2046     		mov	r0, r4
 765 00cc C821     		movs	r1, #200
 766 00ce FFF7FEFF 		bl	_ZN5daisy24SSD130x4WireSpiTransport11SendCommandEh
 767              	.LVL58:
 344:../../libDaisy//src/dev/oled_ssd130x.h ****         transport_.SendCommand(0x8F);
 768              		.loc 3 344 31 view .LVU146
 769 00d2 2046     		mov	r0, r4
 770 00d4 8121     		movs	r1, #129
 771 00d6 FFF7FEFF 		bl	_ZN5daisy24SSD130x4WireSpiTransport11SendCommandEh
 772              	.LVL59:
 345:../../libDaisy//src/dev/oled_ssd130x.h ****         // Pre Charge
 773              		.loc 3 345 31 view .LVU147
 774 00da 2046     		mov	r0, r4
 775 00dc 8F21     		movs	r1, #143
 776 00de FFF7FEFF 		bl	_ZN5daisy24SSD130x4WireSpiTransport11SendCommandEh
 777              	.LVL60:
 347:../../libDaisy//src/dev/oled_ssd130x.h ****         transport_.SendCommand(0x25);
 778              		.loc 3 347 31 view .LVU148
 779 00e2 2046     		mov	r0, r4
 780 00e4 D921     		movs	r1, #217
 781 00e6 FFF7FEFF 		bl	_ZN5daisy24SSD130x4WireSpiTransport11SendCommandEh
 782              	.LVL61:
 348:../../libDaisy//src/dev/oled_ssd130x.h ****         // VCOM Detect
 783              		.loc 3 348 31 view .LVU149
 784 00ea 2046     		mov	r0, r4
 785 00ec 2521     		movs	r1, #37
 786 00ee FFF7FEFF 		bl	_ZN5daisy24SSD130x4WireSpiTransport11SendCommandEh
 787              	.LVL62:
 350:../../libDaisy//src/dev/oled_ssd130x.h ****         transport_.SendCommand(0x34);
 788              		.loc 3 350 31 view .LVU150
ARM GAS  C:\Users\danig\AppData\Local\Temp\cczbxOjJ.s 			page 35


 789 00f2 2046     		mov	r0, r4
 790 00f4 DB21     		movs	r1, #219
 791 00f6 FFF7FEFF 		bl	_ZN5daisy24SSD130x4WireSpiTransport11SendCommandEh
 792              	.LVL63:
 351:../../libDaisy//src/dev/oled_ssd130x.h **** 
 793              		.loc 3 351 31 view .LVU151
 794 00fa 2046     		mov	r0, r4
 795 00fc 3421     		movs	r1, #52
 796 00fe FFF7FEFF 		bl	_ZN5daisy24SSD130x4WireSpiTransport11SendCommandEh
 797              	.LVL64:
 355:../../libDaisy//src/dev/oled_ssd130x.h ****     };
 798              		.loc 3 355 31 view .LVU152
 799 0102 AF21     		movs	r1, #175
 800 0104 2046     		mov	r0, r4
 801 0106 FFF7FEFF 		bl	_ZN5daisy24SSD130x4WireSpiTransport11SendCommandEh
 802              	.LVL65:
 356:../../libDaisy//src/dev/oled_ssd130x.h **** 
 803              		.loc 3 356 5 view .LVU153
 804 010a 03B0     		add	sp, sp, #12
 805              		.cfi_def_cfa_offset 36
 806              		@ sp needed
 807 010c BDE8F040 		pop	{r4, r5, r6, r7, lr}
 808              		.cfi_restore 14
 809              		.cfi_restore 7
 810              		.cfi_restore 6
 811              		.cfi_restore 5
 812              		.cfi_restore 4
 813              		.cfi_def_cfa_offset 16
 814              	.LVL66:
 356:../../libDaisy//src/dev/oled_ssd130x.h **** 
 815              		.loc 3 356 5 view .LVU154
 816 0110 04B0     		add	sp, sp, #16
 817              		.cfi_def_cfa_offset 0
 818 0112 7047     		bx	lr
 819              		.cfi_endproc
 820              	.LFE2840:
 822              		.section	.text._ZN7Display4InitEv,"ax",%progbits
 823              		.align	1
 824              		.global	_ZN7Display4InitEv
 825              		.syntax unified
 826              		.thumb
 827              		.thumb_func
 828              		.fpu fpv5-d16
 830              	_ZN7Display4InitEv:
 831              	.LVL67:
 832              	.LFB2784:
   7:Display.cpp   ****     MyOledDisplay::Config disp_cfg;
 833              		.loc 4 7 1 is_stmt 1 view -0
 834              		.cfi_startproc
 835              		@ args = 0, pretend = 0, frame = 96
 836              		@ frame_needed = 0, uses_anonymous_args = 0
   8:Display.cpp   ****     disp_cfg.driver_config.transport_config.pin_config.dc    = hw_.GetPin(9);
 837              		.loc 4 8 5 view .LVU156
   7:Display.cpp   ****     MyOledDisplay::Config disp_cfg;
 838              		.loc 4 7 1 is_stmt 0 view .LVU157
 839 0000 70B5     		push	{r4, r5, r6, lr}
 840              		.cfi_def_cfa_offset 16
ARM GAS  C:\Users\danig\AppData\Local\Temp\cczbxOjJ.s 			page 36


 841              		.cfi_offset 4, -16
 842              		.cfi_offset 5, -12
 843              		.cfi_offset 6, -8
 844              		.cfi_offset 14, -4
 845 0002 A2B0     		sub	sp, sp, #136
 846              		.cfi_def_cfa_offset 152
 847              	.LVL68:
 848              	.LBB416:
 849              	.LBI416:
  20:../../libDaisy//src/hid/disp/oled_display.h ****     {
 850              		.loc 1 20 12 is_stmt 1 view .LVU158
 851              	.LBB417:
 852              	.LBI417:
 257:../../libDaisy//src/dev/oled_ssd130x.h ****     {
 853              		.loc 3 257 12 view .LVU159
 854              	.LBB418:
 855              	.LBI418:
  71:../../libDaisy//src/dev/oled_ssd130x.h ****         {
 856              		.loc 3 71 9 view .LVU160
 857              	.LBB419:
 858              	.LBB420:
 859              	.LBI420:
  91:../../libDaisy//src/per/spi.h ****         {
 860              		.loc 6 91 9 view .LVU161
 861              	.LBB421:
 862              	.LBI421:
  84:../../libDaisy//src/per/spi.h ****             Pin sclk; /**< & */
 863              		.loc 6 84 9 view .LVU162
 864              	.LBB422:
 865              	.LBI422:
 866              		.loc 5 204 15 view .LVU163
 867              		.loc 5 204 15 is_stmt 0 view .LVU164
 868              	.LBE422:
 869              	.LBB423:
 870              	.LBI423:
 871              		.loc 5 204 15 is_stmt 1 view .LVU165
 872              		.loc 5 204 15 is_stmt 0 view .LVU166
 873              	.LBE423:
 874              	.LBB424:
 875              	.LBI424:
 876              		.loc 5 204 15 is_stmt 1 view .LVU167
 877              		.loc 5 204 15 is_stmt 0 view .LVU168
 878              	.LBE424:
 879              	.LBB425:
 880              	.LBI425:
 881              		.loc 5 204 15 is_stmt 1 view .LVU169
 882              		.loc 5 204 15 is_stmt 0 view .LVU170
 883              	.LBE425:
 884              	.LBE421:
 885              	.LBE420:
 886              	.LBE419:
 887              	.LBE418:
 888              	.LBE417:
 889              	.LBE416:
  94:../../libDaisy//src/per/spi.h ****             clock_polarity = ClockPolarity::LOW;
 890              		.loc 6 94 13 is_stmt 1 view .LVU171
  95:../../libDaisy//src/per/spi.h ****             clock_phase    = ClockPhase::ONE_EDGE;
ARM GAS  C:\Users\danig\AppData\Local\Temp\cczbxOjJ.s 			page 37


 891              		.loc 6 95 13 view .LVU172
  96:../../libDaisy//src/per/spi.h ****             baud_prescaler = BaudPrescaler::PS_8;
 892              		.loc 6 96 13 view .LVU173
  97:../../libDaisy//src/per/spi.h ****         }
 893              		.loc 6 97 13 view .LVU174
 894              	.LBB466:
 895              	.LBB458:
 896              	.LBB450:
 897              	.LBB442:
 898              	.LBB426:
 899              	.LBI426:
  78:../../libDaisy//src/dev/oled_ssd130x.h ****             Pin dc;    /**< & */
 900              		.loc 3 78 9 view .LVU175
 901              	.LBB427:
 902              	.LBI427:
 903              		.loc 5 204 15 view .LVU176
 904              		.loc 5 204 15 is_stmt 0 view .LVU177
 905              	.LBE427:
 906              	.LBB428:
 907              	.LBI428:
 908              		.loc 5 204 15 is_stmt 1 view .LVU178
 909              		.loc 5 204 15 is_stmt 0 view .LVU179
 910              	.LBE428:
 911              	.LBE426:
 912              	.LBE442:
 913              	.LBE450:
 914              	.LBE458:
 915              	.LBE466:
  74:../../libDaisy//src/dev/oled_ssd130x.h ****         }
 916              		.loc 3 74 13 is_stmt 1 view .LVU180
 917              	.LBB467:
 918              	.LBB459:
 919              	.LBB451:
 920              	.LBB443:
 921              	.LBB429:
 922              	.LBI429:
  83:../../libDaisy//src/dev/oled_ssd130x.h ****         {
 923              		.loc 3 83 14 view .LVU181
 924              	.LBE429:
 925              	.LBE443:
 926              	.LBE451:
 927              	.LBE459:
 928              	.LBE467:
  86:../../libDaisy//src/dev/oled_ssd130x.h ****             spi_config.mode   = SpiHandle::Config::Mode::MASTER;
 929              		.loc 3 86 13 view .LVU182
  87:../../libDaisy//src/dev/oled_ssd130x.h ****             spi_config.direction
 930              		.loc 3 87 13 view .LVU183
  88:../../libDaisy//src/dev/oled_ssd130x.h ****                 = SpiHandle::Config::Direction::TWO_LINES_TX_ONLY;
 931              		.loc 3 88 13 view .LVU184
  90:../../libDaisy//src/dev/oled_ssd130x.h ****             spi_config.clock_polarity = SpiHandle::Config::ClockPolarity::LOW;
 932              		.loc 3 90 13 view .LVU185
  91:../../libDaisy//src/dev/oled_ssd130x.h ****             spi_config.clock_phase    = SpiHandle::Config::ClockPhase::ONE_EDGE;
 933              		.loc 3 91 13 view .LVU186
  92:../../libDaisy//src/dev/oled_ssd130x.h ****             spi_config.nss            = SpiHandle::Config::NSS::HARD_OUTPUT;
 934              		.loc 3 92 13 view .LVU187
  93:../../libDaisy//src/dev/oled_ssd130x.h ****             spi_config.baud_prescaler = SpiHandle::Config::BaudPrescaler::PS_8;
 935              		.loc 3 93 13 view .LVU188
ARM GAS  C:\Users\danig\AppData\Local\Temp\cczbxOjJ.s 			page 38


  94:../../libDaisy//src/dev/oled_ssd130x.h ****             // SPI pin config
 936              		.loc 3 94 13 view .LVU189
  96:../../libDaisy//src/dev/oled_ssd130x.h ****             spi_config.pin_config.miso = Pin(PORTX, 0);
 937              		.loc 3 96 13 view .LVU190
 938              	.LBB468:
 939              	.LBB460:
 940              	.LBB452:
 941              	.LBB444:
 942              	.LBB436:
 943              	.LBB430:
 944              	.LBI430:
 201:../../libDaisy//src/daisy_core.h **** 
 945              		.loc 5 201 15 view .LVU191
 201:../../libDaisy//src/daisy_core.h **** 
 946              		.loc 5 201 15 is_stmt 0 view .LVU192
 947              	.LBE430:
 948              	.LBE436:
 949              	.LBE444:
 950              	.LBE452:
 951              	.LBE460:
 952              	.LBE468:
  97:../../libDaisy//src/dev/oled_ssd130x.h ****             spi_config.pin_config.mosi = Pin(PORTB, 5);
 953              		.loc 3 97 13 is_stmt 1 view .LVU193
 954              	.LBB469:
 955              	.LBB461:
 956              	.LBB453:
 957              	.LBB445:
 958              	.LBB437:
 959              	.LBB431:
 960              	.LBI431:
 201:../../libDaisy//src/daisy_core.h **** 
 961              		.loc 5 201 15 view .LVU194
 201:../../libDaisy//src/daisy_core.h **** 
 962              		.loc 5 201 15 is_stmt 0 view .LVU195
 963              	.LBE431:
 964              	.LBE437:
 965              	.LBE445:
 966              	.LBE453:
 967              	.LBE461:
 968              	.LBE469:
  98:../../libDaisy//src/dev/oled_ssd130x.h ****             spi_config.pin_config.nss  = Pin(PORTG, 10);
 969              		.loc 3 98 13 is_stmt 1 view .LVU196
 970              	.LBB470:
 971              	.LBB462:
 972              	.LBB454:
 973              	.LBB446:
 974              	.LBB438:
 975              	.LBB432:
 976              	.LBI432:
 201:../../libDaisy//src/daisy_core.h **** 
 977              		.loc 5 201 15 view .LVU197
 201:../../libDaisy//src/daisy_core.h **** 
 978              		.loc 5 201 15 is_stmt 0 view .LVU198
 979              	.LBE432:
 980              	.LBE438:
 981              	.LBE446:
 982              	.LBE454:
ARM GAS  C:\Users\danig\AppData\Local\Temp\cczbxOjJ.s 			page 39


 983              	.LBE462:
 984              	.LBE470:
  99:../../libDaisy//src/dev/oled_ssd130x.h ****             // SSD130x control pin config
 985              		.loc 3 99 13 is_stmt 1 view .LVU199
 986              	.LBB471:
 987              	.LBB463:
 988              	.LBB455:
 989              	.LBB447:
 990              	.LBB439:
 991              	.LBB433:
 992              	.LBI433:
 201:../../libDaisy//src/daisy_core.h **** 
 993              		.loc 5 201 15 view .LVU200
 201:../../libDaisy//src/daisy_core.h **** 
 994              		.loc 5 201 15 is_stmt 0 view .LVU201
 995              	.LBE433:
 996              	.LBE439:
 997              	.LBE447:
 998              	.LBE455:
 999              	.LBE463:
 1000              	.LBE471:
 101:../../libDaisy//src/dev/oled_ssd130x.h ****             pin_config.reset = Pin(PORTB, 15);
 1001              		.loc 3 101 13 is_stmt 1 view .LVU202
 1002              	.LBB472:
 1003              	.LBB464:
 1004              	.LBB456:
 1005              	.LBB448:
 1006              	.LBB440:
 1007              	.LBB434:
 1008              	.LBI434:
 201:../../libDaisy//src/daisy_core.h **** 
 1009              		.loc 5 201 15 view .LVU203
 201:../../libDaisy//src/daisy_core.h **** 
 1010              		.loc 5 201 15 is_stmt 0 view .LVU204
 1011              	.LBE434:
 1012              	.LBE440:
 1013              	.LBE448:
 1014              	.LBE456:
 1015              	.LBE464:
 1016              	.LBE472:
 102:../../libDaisy//src/dev/oled_ssd130x.h ****             // Using DMA off by default
 1017              		.loc 3 102 13 is_stmt 1 view .LVU205
 1018              	.LBB473:
 1019              	.LBB465:
 1020              	.LBB457:
 1021              	.LBB449:
 1022              	.LBB441:
 1023              	.LBB435:
 1024              	.LBI435:
 201:../../libDaisy//src/daisy_core.h **** 
 1025              		.loc 5 201 15 view .LVU206
 201:../../libDaisy//src/daisy_core.h **** 
 1026              		.loc 5 201 15 is_stmt 0 view .LVU207
 1027              	.LBE435:
 1028              	.LBE441:
 1029              	.LBE449:
 1030              	.LBE457:
ARM GAS  C:\Users\danig\AppData\Local\Temp\cczbxOjJ.s 			page 40


 1031              	.LBE465:
 1032              	.LBE473:
 104:../../libDaisy//src/dev/oled_ssd130x.h ****         }
 1033              		.loc 3 104 13 is_stmt 1 view .LVU208
   9:Display.cpp   ****     disp_cfg.driver_config.transport_config.pin_config.reset = hw_.GetPin(30);
 1034              		.loc 4 9 5 view .LVU209
   7:Display.cpp   ****     MyOledDisplay::Config disp_cfg;
 1035              		.loc 4 7 1 is_stmt 0 view .LVU210
 1036 0004 0646     		mov	r6, r0
   9:Display.cpp   ****     disp_cfg.driver_config.transport_config.pin_config.reset = hw_.GetPin(30);
 1037              		.loc 4 9 76 view .LVU211
 1038 0006 0920     		movs	r0, #9
 1039              	.LVL69:
   9:Display.cpp   ****     disp_cfg.driver_config.transport_config.pin_config.reset = hw_.GetPin(30);
 1040              		.loc 4 9 76 view .LVU212
 1041 0008 FFF7FEFF 		bl	_ZN5daisy9DaisySeed6GetPinEh
 1042              	.LVL70:
 1043 000c ADF85000 		strh	r0, [sp, #80]	@ movhi
 1044 0010 84B2     		uxth	r4, r0
  10:Display.cpp   ****     display_.Init(disp_cfg);
 1045              		.loc 4 10 5 is_stmt 1 view .LVU213
  10:Display.cpp   ****     display_.Init(disp_cfg);
 1046              		.loc 4 10 77 is_stmt 0 view .LVU214
 1047 0012 1E20     		movs	r0, #30
 1048 0014 FFF7FEFF 		bl	_ZN5daisy9DaisySeed6GetPinEh
 1049              	.LVL71:
 1050 0018 134A     		ldr	r2, .L19
 1051 001a 144B     		ldr	r3, .L19+4
 1052 001c 0121     		movs	r1, #1
 1053              	.LBB474:
 1054              	.LBB475:
  25:../../libDaisy//src/hid/disp/oled_display.h **** 
 1055              		.loc 1 25 44 view .LVU215
 1056 001e 19AD     		add	r5, sp, #100
 1057 0020 ADF88040 		strh	r4, [sp, #128]	@ movhi
 1058 0024 ADF88200 		strh	r0, [sp, #130]	@ movhi
 1059 0028 6C46     		mov	r4, sp
 1060              	.LBE475:
 1061              	.LBE474:
  10:Display.cpp   ****     display_.Init(disp_cfg);
 1062              		.loc 4 10 77 view .LVU216
 1063 002a ADF85200 		strh	r0, [sp, #82]	@ movhi
  11:Display.cpp   **** }
 1064              		.loc 4 11 5 is_stmt 1 view .LVU217
 1065              	.LVL72:
  11:Display.cpp   **** }
 1066              		.loc 4 11 5 is_stmt 0 view .LVU218
 1067 002e CDE91623 		strd	r2, r3, [sp, #88]
 1068 0032 0822     		movs	r2, #8
 1069 0034 0023     		movs	r3, #0
 1070 0036 CDE91A12 		strd	r1, r2, [sp, #104]
 1071 003a 0222     		movs	r2, #2
 1072 003c 8DF88430 		strb	r3, [sp, #132]
 1073              	.LBB477:
 1074              	.LBI474:
  25:../../libDaisy//src/hid/disp/oled_display.h **** 
 1075              		.loc 1 25 10 is_stmt 1 view .LVU219
ARM GAS  C:\Users\danig\AppData\Local\Temp\cczbxOjJ.s 			page 41


 1076 0040 CDE91C33 		strd	r3, r3, [sp, #112]
 1077 0044 CDE91E22 		strd	r2, r2, [sp, #120]
 1078 0048 CDE91833 		strd	r3, r3, [sp, #96]
 1079              	.LBB476:
  25:../../libDaisy//src/hid/disp/oled_display.h **** 
 1080              		.loc 1 25 44 is_stmt 0 view .LVU220
 1081 004c 0FCD     		ldmia	r5!, {r0, r1, r2, r3}
 1082 004e 0FC4     		stmia	r4!, {r0, r1, r2, r3}
 1083 0050 0FCD     		ldmia	r5!, {r0, r1, r2, r3}
 1084 0052 0FC4     		stmia	r4!, {r0, r1, r2, r3}
 1085 0054 2B68     		ldr	r3, [r5]
 1086 0056 06F10C00 		add	r0, r6, #12
 1087 005a 2360     		str	r3, [r4]
 1088 005c 16AB     		add	r3, sp, #88
 1089 005e 0ECB     		ldm	r3, {r1, r2, r3}
 1090 0060 FFF7FEFF 		bl	_ZN5daisy13SSD130xDriverILj128ELj64ENS_24SSD130x4WireSpiTransportEE4InitENS2_6ConfigE
 1091              	.LVL73:
  25:../../libDaisy//src/hid/disp/oled_display.h **** 
 1092              		.loc 1 25 44 view .LVU221
 1093              	.LBE476:
 1094              	.LBE477:
  12:Display.cpp   **** 
 1095              		.loc 4 12 1 view .LVU222
 1096 0064 22B0     		add	sp, sp, #136
 1097              		.cfi_def_cfa_offset 16
 1098              		@ sp needed
 1099 0066 70BD     		pop	{r4, r5, r6, pc}
 1100              	.LVL74:
 1101              	.L20:
  12:Display.cpp   **** 
 1102              		.loc 4 12 1 view .LVU223
 1103              		.align	2
 1104              	.L19:
 1105 0068 060B0B00 		.word	723718
 1106 006c 0105060A 		.word	168166657
 1107              		.cfi_endproc
 1108              	.LFE2784:
 1110              		.section	.text._ZN5daisy13SSD130xDriverILj128ELj64ENS_24SSD130x4WireSpiTransportEE6UpdateEv,"axG",
 1111              		.align	1
 1112              		.weak	_ZN5daisy13SSD130xDriverILj128ELj64ENS_24SSD130x4WireSpiTransportEE6UpdateEv
 1113              		.syntax unified
 1114              		.thumb
 1115              		.thumb_func
 1116              		.fpu fpv5-d16
 1118              	_ZN5daisy13SSD130xDriverILj128ELj64ENS_24SSD130x4WireSpiTransportEE6UpdateEv:
 1119              	.LVL75:
 1120              	.LFB2842:
 376:../../libDaisy//src/dev/oled_ssd130x.h ****         }
 377:../../libDaisy//src/dev/oled_ssd130x.h ****     };
 378:../../libDaisy//src/dev/oled_ssd130x.h **** 
 379:../../libDaisy//src/dev/oled_ssd130x.h ****     /**
 380:../../libDaisy//src/dev/oled_ssd130x.h ****      * Update the display
 381:../../libDaisy//src/dev/oled_ssd130x.h ****     */
 382:../../libDaisy//src/dev/oled_ssd130x.h ****     void Update()
 1121              		.loc 3 382 10 is_stmt 1 view -0
 1122              		.cfi_startproc
 1123              		@ args = 0, pretend = 0, frame = 0
ARM GAS  C:\Users\danig\AppData\Local\Temp\cczbxOjJ.s 			page 42


 1124              		@ frame_needed = 0, uses_anonymous_args = 0
 383:../../libDaisy//src/dev/oled_ssd130x.h ****     {
 384:../../libDaisy//src/dev/oled_ssd130x.h ****         uint8_t i;
 385:../../libDaisy//src/dev/oled_ssd130x.h ****         uint8_t high_column_addr;
 386:../../libDaisy//src/dev/oled_ssd130x.h ****         switch(height)
 387:../../libDaisy//src/dev/oled_ssd130x.h ****         {
 388:../../libDaisy//src/dev/oled_ssd130x.h ****             case 32: high_column_addr = 0x12; break;
 389:../../libDaisy//src/dev/oled_ssd130x.h **** 
 390:../../libDaisy//src/dev/oled_ssd130x.h ****             default: high_column_addr = 0x10; break;
 391:../../libDaisy//src/dev/oled_ssd130x.h ****         }
 392:../../libDaisy//src/dev/oled_ssd130x.h ****         for(i = 0; i < (height / 8); i++)
 1125              		.loc 3 392 22 view .LVU225
 382:../../libDaisy//src/dev/oled_ssd130x.h ****     {
 1126              		.loc 3 382 10 is_stmt 0 view .LVU226
 1127 0000 70B5     		push	{r4, r5, r6, lr}
 1128              		.cfi_def_cfa_offset 16
 1129              		.cfi_offset 4, -16
 1130              		.cfi_offset 5, -12
 1131              		.cfi_offset 6, -8
 1132              		.cfi_offset 14, -4
 382:../../libDaisy//src/dev/oled_ssd130x.h ****     {
 1133              		.loc 3 382 10 view .LVU227
 1134 0002 0446     		mov	r4, r0
 1135 0004 00F12C06 		add	r6, r0, #44
 1136 0008 B025     		movs	r5, #176
 1137              	.LVL76:
 1138              	.L22:
 393:../../libDaisy//src/dev/oled_ssd130x.h ****         {
 394:../../libDaisy//src/dev/oled_ssd130x.h ****             transport_.SendCommand(0xB0 + i);
 1139              		.loc 3 394 35 discriminator 2 view .LVU228
 1140 000a 2946     		mov	r1, r5
 1141 000c 2046     		mov	r0, r4
 1142 000e FFF7FEFF 		bl	_ZN5daisy24SSD130x4WireSpiTransport11SendCommandEh
 1143              	.LVL77:
 392:../../libDaisy//src/dev/oled_ssd130x.h ****         {
 1144              		.loc 3 392 22 discriminator 2 view .LVU229
 1145 0012 0135     		adds	r5, r5, #1
 1146              	.LVL78:
 395:../../libDaisy//src/dev/oled_ssd130x.h ****             transport_.SendCommand(0x00);
 1147              		.loc 3 395 35 discriminator 2 view .LVU230
 1148 0014 0021     		movs	r1, #0
 1149 0016 2046     		mov	r0, r4
 1150 0018 FFF7FEFF 		bl	_ZN5daisy24SSD130x4WireSpiTransport11SendCommandEh
 1151              	.LVL79:
 396:../../libDaisy//src/dev/oled_ssd130x.h ****             transport_.SendCommand(high_column_addr);
 1152              		.loc 3 396 35 discriminator 2 view .LVU231
 1153 001c 1021     		movs	r1, #16
 1154 001e 2046     		mov	r0, r4
 392:../../libDaisy//src/dev/oled_ssd130x.h ****         {
 1155              		.loc 3 392 22 discriminator 2 view .LVU232
 1156 0020 EDB2     		uxtb	r5, r5
 1157              		.loc 3 396 35 discriminator 2 view .LVU233
 1158 0022 FFF7FEFF 		bl	_ZN5daisy24SSD130x4WireSpiTransport11SendCommandEh
 1159              	.LVL80:
 1160              	.LBB480:
 1161              	.LBI480:
 135:../../libDaisy//src/dev/oled_ssd130x.h ****     {
ARM GAS  C:\Users\danig\AppData\Local\Temp\cczbxOjJ.s 			page 43


 1162              		.loc 3 135 10 is_stmt 1 discriminator 2 view .LVU234
 1163              	.LBB481:
 137:../../libDaisy//src/dev/oled_ssd130x.h ****         spi_.BlockingTransmit(buff, size);
 1164              		.loc 3 137 9 discriminator 2 view .LVU235
 137:../../libDaisy//src/dev/oled_ssd130x.h ****         spi_.BlockingTransmit(buff, size);
 1165              		.loc 3 137 22 is_stmt 0 discriminator 2 view .LVU236
 1166 0026 0121     		movs	r1, #1
 1167 0028 04F11800 		add	r0, r4, #24
 1168 002c FFF7FEFF 		bl	_ZN5daisy4GPIO5WriteEb
 1169              	.LVL81:
 138:../../libDaisy//src/dev/oled_ssd130x.h ****     };
 1170              		.loc 3 138 9 is_stmt 1 discriminator 2 view .LVU237
 138:../../libDaisy//src/dev/oled_ssd130x.h ****     };
 1171              		.loc 3 138 30 is_stmt 0 discriminator 2 view .LVU238
 1172 0030 3146     		mov	r1, r6
 1173 0032 6423     		movs	r3, #100
 1174 0034 8022     		movs	r2, #128
 1175 0036 2046     		mov	r0, r4
 1176              	.LBE481:
 1177              	.LBE480:
 392:../../libDaisy//src/dev/oled_ssd130x.h ****         {
 1178              		.loc 3 392 22 discriminator 2 view .LVU239
 1179 0038 8036     		adds	r6, r6, #128
 1180              	.LVL82:
 1181              	.LBB483:
 1182              	.LBB482:
 138:../../libDaisy//src/dev/oled_ssd130x.h ****     };
 1183              		.loc 3 138 30 discriminator 2 view .LVU240
 1184 003a FFF7FEFF 		bl	_ZN5daisy9SpiHandle16BlockingTransmitEPhjm
 1185              	.LVL83:
 138:../../libDaisy//src/dev/oled_ssd130x.h ****     };
 1186              		.loc 3 138 30 discriminator 2 view .LVU241
 1187              	.LBE482:
 1188              	.LBE483:
 392:../../libDaisy//src/dev/oled_ssd130x.h ****         {
 1189              		.loc 3 392 9 is_stmt 1 discriminator 2 view .LVU242
 392:../../libDaisy//src/dev/oled_ssd130x.h ****         {
 1190              		.loc 3 392 22 discriminator 2 view .LVU243
 1191 003e B82D     		cmp	r5, #184
 1192 0040 E3D1     		bne	.L22
 397:../../libDaisy//src/dev/oled_ssd130x.h ****             transport_.SendData(&buffer_[width * i], width);
 398:../../libDaisy//src/dev/oled_ssd130x.h ****         }
 399:../../libDaisy//src/dev/oled_ssd130x.h ****     };
 1193              		.loc 3 399 5 is_stmt 0 view .LVU244
 1194 0042 70BD     		pop	{r4, r5, r6, pc}
 1195              		.loc 3 399 5 view .LVU245
 1196              		.cfi_endproc
 1197              	.LFE2842:
 1199              		.section	.text._ZN5daisy11OledDisplayINS_13SSD130xDriverILj128ELj64ENS_24SSD130x4WireSpiTransportE
 1200              		.align	1
 1201              		.weak	_ZN5daisy11OledDisplayINS_13SSD130xDriverILj128ELj64ENS_24SSD130x4WireSpiTransportEEEE6Updat
 1202              		.syntax unified
 1203              		.thumb
 1204              		.thumb_func
 1205              		.fpu fpv5-d16
 1207              	_ZN5daisy11OledDisplayINS_13SSD130xDriverILj128ELj64ENS_24SSD130x4WireSpiTransportEEEE6UpdateEv:
 1208              	.LVL84:
ARM GAS  C:\Users\danig\AppData\Local\Temp\cczbxOjJ.s 			page 44


 1209              	.LFB2826:
  51:../../libDaisy//src/hid/disp/oled_display.h **** 
 1210              		.loc 1 51 10 is_stmt 1 view -0
 1211              		.cfi_startproc
 1212              		@ args = 0, pretend = 0, frame = 0
 1213              		@ frame_needed = 0, uses_anonymous_args = 0
  51:../../libDaisy//src/hid/disp/oled_display.h **** 
 1214              		.loc 1 51 44 is_stmt 0 view .LVU247
 1215 0000 0830     		adds	r0, r0, #8
 1216              	.LVL85:
  51:../../libDaisy//src/hid/disp/oled_display.h **** 
 1217              		.loc 1 51 10 view .LVU248
 1218 0002 08B5     		push	{r3, lr}
 1219              		.cfi_def_cfa_offset 8
 1220              		.cfi_offset 3, -8
 1221              		.cfi_offset 14, -4
  51:../../libDaisy//src/hid/disp/oled_display.h **** 
 1222              		.loc 1 51 44 view .LVU249
 1223 0004 FFF7FEFF 		bl	_ZN5daisy13SSD130xDriverILj128ELj64ENS_24SSD130x4WireSpiTransportEE6UpdateEv
 1224              	.LVL86:
  51:../../libDaisy//src/hid/disp/oled_display.h **** 
 1225              		.loc 1 51 48 view .LVU250
 1226 0008 08BD     		pop	{r3, pc}
 1227              		.cfi_endproc
 1228              	.LFE2826:
 1230              		.section	.text._ZN7Display6UpdateEv,"ax",%progbits
 1231              		.align	1
 1232              		.global	_ZN7Display6UpdateEv
 1233              		.syntax unified
 1234              		.thumb
 1235              		.thumb_func
 1236              		.fpu fpv5-d16
 1238              	_ZN7Display6UpdateEv:
 1239              	.LVL87:
 1240              	.LFB2792:
  16:Display.cpp   **** 
  17:Display.cpp   **** void Display::Update()
  18:Display.cpp   **** { display_.Update(); }
 1241              		.loc 4 18 1 is_stmt 1 view -0
 1242              		.cfi_startproc
 1243              		@ args = 0, pretend = 0, frame = 0
 1244              		@ frame_needed = 0, uses_anonymous_args = 0
 1245              		.loc 4 18 3 view .LVU252
 1246              	.LBB484:
 1247              	.LBI484:
  51:../../libDaisy//src/hid/disp/oled_display.h **** 
 1248              		.loc 1 51 10 view .LVU253
 1249              	.LBB485:
  51:../../libDaisy//src/hid/disp/oled_display.h **** 
 1250              		.loc 1 51 44 is_stmt 0 view .LVU254
 1251 0000 0C30     		adds	r0, r0, #12
 1252              	.LVL88:
  51:../../libDaisy//src/hid/disp/oled_display.h **** 
 1253              		.loc 1 51 44 view .LVU255
 1254              	.LBE485:
 1255              	.LBE484:
 1256              		.loc 4 18 1 view .LVU256
ARM GAS  C:\Users\danig\AppData\Local\Temp\cczbxOjJ.s 			page 45


 1257 0002 08B5     		push	{r3, lr}
 1258              		.cfi_def_cfa_offset 8
 1259              		.cfi_offset 3, -8
 1260              		.cfi_offset 14, -4
 1261              	.LBB487:
 1262              	.LBB486:
  51:../../libDaisy//src/hid/disp/oled_display.h **** 
 1263              		.loc 1 51 44 view .LVU257
 1264 0004 FFF7FEFF 		bl	_ZN5daisy13SSD130xDriverILj128ELj64ENS_24SSD130x4WireSpiTransportEE6UpdateEv
 1265              	.LVL89:
  51:../../libDaisy//src/hid/disp/oled_display.h **** 
 1266              		.loc 1 51 44 view .LVU258
 1267              	.LBE486:
 1268              	.LBE487:
 1269              		.loc 4 18 22 view .LVU259
 1270 0008 08BD     		pop	{r3, pc}
 1271              		.cfi_endproc
 1272              	.LFE2792:
 1274              		.section	.text._ZN5daisy13SSD130xDriverILj128ELj64ENS_24SSD130x4WireSpiTransportEE9DrawPixelEjjb,"
 1275              		.align	1
 1276              		.weak	_ZN5daisy13SSD130xDriverILj128ELj64ENS_24SSD130x4WireSpiTransportEE9DrawPixelEjjb
 1277              		.syntax unified
 1278              		.thumb
 1279              		.thumb_func
 1280              		.fpu fpv5-d16
 1282              	_ZN5daisy13SSD130xDriverILj128ELj64ENS_24SSD130x4WireSpiTransportEE9DrawPixelEjjb:
 1283              	.LVL90:
 1284              	.LFB2847:
 361:../../libDaisy//src/dev/oled_ssd130x.h ****     {
 1285              		.loc 3 361 10 is_stmt 1 view -0
 1286              		.cfi_startproc
 1287              		@ args = 0, pretend = 0, frame = 0
 1288              		@ frame_needed = 0, uses_anonymous_args = 0
 363:../../libDaisy//src/dev/oled_ssd130x.h ****             return;
 1289              		.loc 3 363 9 is_stmt 0 view .LVU261
 1290 0000 7F29     		cmp	r1, #127
 361:../../libDaisy//src/dev/oled_ssd130x.h ****     {
 1291              		.loc 3 361 10 view .LVU262
 1292 0002 10B5     		push	{r4, lr}
 1293              		.cfi_def_cfa_offset 8
 1294              		.cfi_offset 4, -8
 1295              		.cfi_offset 14, -4
 363:../../libDaisy//src/dev/oled_ssd130x.h ****             return;
 1296              		.loc 3 363 9 view .LVU263
 1297 0004 11D8     		bhi	.L26
 363:../../libDaisy//src/dev/oled_ssd130x.h ****             return;
 1298              		.loc 3 363 23 discriminator 1 view .LVU264
 1299 0006 3F2A     		cmp	r2, #63
 1300 0008 0FD8     		bhi	.L26
 366:../../libDaisy//src/dev/oled_ssd130x.h ****         else
 1301              		.loc 3 366 28 view .LVU265
 1302 000a D408     		lsrs	r4, r2, #3
 366:../../libDaisy//src/dev/oled_ssd130x.h ****         else
 1303              		.loc 3 366 54 view .LVU266
 1304 000c 02F00702 		and	r2, r2, #7
 1305              	.LVL91:
 366:../../libDaisy//src/dev/oled_ssd130x.h ****         else
ARM GAS  C:\Users\danig\AppData\Local\Temp\cczbxOjJ.s 			page 46


 1306              		.loc 3 366 42 view .LVU267
 1307 0010 01EBC411 		add	r1, r1, r4, lsl #7
 1308              	.LVL92:
 366:../../libDaisy//src/dev/oled_ssd130x.h ****         else
 1309              		.loc 3 366 48 view .LVU268
 1310 0014 0124     		movs	r4, #1
 366:../../libDaisy//src/dev/oled_ssd130x.h ****         else
 1311              		.loc 3 366 42 view .LVU269
 1312 0016 0844     		add	r0, r0, r1
 1313              	.LVL93:
 366:../../libDaisy//src/dev/oled_ssd130x.h ****         else
 1314              		.loc 3 366 48 view .LVU270
 1315 0018 04FA02F2 		lsl	r2, r4, r2
 366:../../libDaisy//src/dev/oled_ssd130x.h ****         else
 1316              		.loc 3 366 42 view .LVU271
 1317 001c 90F92C10 		ldrsb	r1, [r0, #44]
 1318 0020 52B2     		sxtb	r2, r2
 365:../../libDaisy//src/dev/oled_ssd130x.h ****             buffer_[x + (y / 8) * width] |= (1 << (y % 8));
 1319              		.loc 3 365 9 view .LVU272
 1320 0022 1BB1     		cbz	r3, .L28
 366:../../libDaisy//src/dev/oled_ssd130x.h ****         else
 1321              		.loc 3 366 42 view .LVU273
 1322 0024 1143     		orrs	r1, r1, r2
 1323              	.L29:
 1324              	.LBB490:
 1325              	.LBB491:
 368:../../libDaisy//src/dev/oled_ssd130x.h ****     }
 1326              		.loc 3 368 42 view .LVU274
 1327 0026 80F82C10 		strb	r1, [r0, #44]
 1328              	.L26:
 1329              	.LBE491:
 1330              	.LBE490:
 369:../../libDaisy//src/dev/oled_ssd130x.h **** 
 1331              		.loc 3 369 5 view .LVU275
 1332 002a 10BD     		pop	{r4, pc}
 1333              	.L28:
 1334              	.LVL94:
 1335              	.LBB493:
 1336              	.LBI490:
 361:../../libDaisy//src/dev/oled_ssd130x.h ****     {
 1337              		.loc 3 361 10 is_stmt 1 view .LVU276
 1338              	.LBB492:
 368:../../libDaisy//src/dev/oled_ssd130x.h ****     }
 1339              		.loc 3 368 42 is_stmt 0 view .LVU277
 1340 002c 21EA0201 		bic	r1, r1, r2
 1341 0030 F9E7     		b	.L29
 1342              	.LBE492:
 1343              	.LBE493:
 1344              		.cfi_endproc
 1345              	.LFE2847:
 1347              		.section	.text._ZN5daisy11OledDisplayINS_13SSD130xDriverILj128ELj64ENS_24SSD130x4WireSpiTransportE
 1348              		.align	1
 1349              		.weak	_ZN5daisy11OledDisplayINS_13SSD130xDriverILj128ELj64ENS_24SSD130x4WireSpiTransportEEEE9DrawP
 1350              		.syntax unified
 1351              		.thumb
 1352              		.thumb_func
 1353              		.fpu fpv5-d16
ARM GAS  C:\Users\danig\AppData\Local\Temp\cczbxOjJ.s 			page 47


 1355              	_ZN5daisy11OledDisplayINS_13SSD130xDriverILj128ELj64ENS_24SSD130x4WireSpiTransportEEEE9DrawPixelEjj
 1356              	.LVL95:
 1357              	.LFB2846:
  42:../../libDaisy//src/hid/disp/oled_display.h ****     {
 1358              		.loc 1 42 10 is_stmt 1 view -0
 1359              		.cfi_startproc
 1360              		@ args = 0, pretend = 0, frame = 0
 1361              		@ frame_needed = 0, uses_anonymous_args = 0
  44:../../libDaisy//src/hid/disp/oled_display.h ****     }
 1362              		.loc 1 44 26 is_stmt 0 view .LVU279
 1363 0000 0830     		adds	r0, r0, #8
 1364              	.LVL96:
  42:../../libDaisy//src/hid/disp/oled_display.h ****     {
 1365              		.loc 1 42 10 view .LVU280
 1366 0002 08B5     		push	{r3, lr}
 1367              		.cfi_def_cfa_offset 8
 1368              		.cfi_offset 3, -8
 1369              		.cfi_offset 14, -4
  44:../../libDaisy//src/hid/disp/oled_display.h ****     }
 1370              		.loc 1 44 26 view .LVU281
 1371 0004 FFF7FEFF 		bl	_ZN5daisy13SSD130xDriverILj128ELj64ENS_24SSD130x4WireSpiTransportEE9DrawPixelEjjb
 1372              	.LVL97:
  45:../../libDaisy//src/hid/disp/oled_display.h **** 
 1373              		.loc 1 45 5 view .LVU282
 1374 0008 08BD     		pop	{r3, pc}
 1375              		.cfi_endproc
 1376              	.LFE2846:
 1378              		.section	.text._ZN5daisy25OneBitGraphicsDisplayImplINS_11OledDisplayINS_13SSD130xDriverILj128ELj64
 1379              		.align	1
 1380              		.weak	_ZN5daisy25OneBitGraphicsDisplayImplINS_11OledDisplayINS_13SSD130xDriverILj128ELj64ENS_24SSD
 1381              		.syntax unified
 1382              		.thumb
 1383              		.thumb_func
 1384              		.fpu fpv5-d16
 1386              	_ZN5daisy25OneBitGraphicsDisplayImplINS_11OledDisplayINS_13SSD130xDriverILj128ELj64ENS_24SSD130x4Wi
 1387              	.LVL98:
 1388              	.LFB2843:
 225:../../libDaisy//src/hid/disp/display.h **** 
 226:../../libDaisy//src/hid/disp/display.h ****     void DrawLine(uint_fast8_t x1,
 227:../../libDaisy//src/hid/disp/display.h ****                   uint_fast8_t y1,
 228:../../libDaisy//src/hid/disp/display.h ****                   uint_fast8_t x2,
 229:../../libDaisy//src/hid/disp/display.h ****                   uint_fast8_t y2,
 230:../../libDaisy//src/hid/disp/display.h ****                   bool         on) override
 231:../../libDaisy//src/hid/disp/display.h ****     {
 232:../../libDaisy//src/hid/disp/display.h ****         int_fast16_t deltaX = abs((int_fast16_t)x2 - (int_fast16_t)x1);
 233:../../libDaisy//src/hid/disp/display.h ****         int_fast16_t deltaY = abs((int_fast16_t)y2 - (int_fast16_t)y1);
 234:../../libDaisy//src/hid/disp/display.h ****         int_fast16_t signX  = ((x1 < x2) ? 1 : -1);
 235:../../libDaisy//src/hid/disp/display.h ****         int_fast16_t signY  = ((y1 < y2) ? 1 : -1);
 236:../../libDaisy//src/hid/disp/display.h ****         int_fast16_t error  = deltaX - deltaY;
 237:../../libDaisy//src/hid/disp/display.h ****         int_fast16_t error2;
 238:../../libDaisy//src/hid/disp/display.h **** 
 239:../../libDaisy//src/hid/disp/display.h ****         // If we write "ChildType::DrawPixel(x2, y2, on);", we end up with
 240:../../libDaisy//src/hid/disp/display.h ****         // all sorts of weird compiler errors when the Child class is a template
 241:../../libDaisy//src/hid/disp/display.h ****         // class. The only way around this is to use this very verbose syntax:
 242:../../libDaisy//src/hid/disp/display.h ****         ((ChildType*)(this))->ChildType::DrawPixel(x2, y2, on);
 243:../../libDaisy//src/hid/disp/display.h **** 
 244:../../libDaisy//src/hid/disp/display.h ****         while((x1 != x2) || (y1 != y2))
ARM GAS  C:\Users\danig\AppData\Local\Temp\cczbxOjJ.s 			page 48


 245:../../libDaisy//src/hid/disp/display.h ****         {
 246:../../libDaisy//src/hid/disp/display.h ****             ((ChildType*)(this))->ChildType::DrawPixel(x1, y1, on);
 247:../../libDaisy//src/hid/disp/display.h ****             error2 = error * 2;
 248:../../libDaisy//src/hid/disp/display.h ****             if(error2 > -deltaY)
 249:../../libDaisy//src/hid/disp/display.h ****             {
 250:../../libDaisy//src/hid/disp/display.h ****                 error -= deltaY;
 251:../../libDaisy//src/hid/disp/display.h ****                 x1 += signX;
 252:../../libDaisy//src/hid/disp/display.h ****             }
 253:../../libDaisy//src/hid/disp/display.h **** 
 254:../../libDaisy//src/hid/disp/display.h ****             if(error2 < deltaX)
 255:../../libDaisy//src/hid/disp/display.h ****             {
 256:../../libDaisy//src/hid/disp/display.h ****                 error += deltaX;
 257:../../libDaisy//src/hid/disp/display.h ****                 y1 += signY;
 258:../../libDaisy//src/hid/disp/display.h ****             }
 259:../../libDaisy//src/hid/disp/display.h ****         }
 260:../../libDaisy//src/hid/disp/display.h ****     }
 261:../../libDaisy//src/hid/disp/display.h **** 
 262:../../libDaisy//src/hid/disp/display.h ****     void DrawRect(uint_fast8_t x1,
 263:../../libDaisy//src/hid/disp/display.h ****                   uint_fast8_t y1,
 264:../../libDaisy//src/hid/disp/display.h ****                   uint_fast8_t x2,
 265:../../libDaisy//src/hid/disp/display.h ****                   uint_fast8_t y2,
 266:../../libDaisy//src/hid/disp/display.h ****                   bool         on,
 267:../../libDaisy//src/hid/disp/display.h ****                   bool         fill = false) override
 268:../../libDaisy//src/hid/disp/display.h ****     {
 269:../../libDaisy//src/hid/disp/display.h ****         if(fill)
 270:../../libDaisy//src/hid/disp/display.h ****         {
 271:../../libDaisy//src/hid/disp/display.h ****             for(uint_fast8_t x = x1; x <= x2; x++)
 272:../../libDaisy//src/hid/disp/display.h ****             {
 273:../../libDaisy//src/hid/disp/display.h ****                 for(uint_fast8_t y = y1; y <= y2; y++)
 274:../../libDaisy//src/hid/disp/display.h ****                 {
 275:../../libDaisy//src/hid/disp/display.h ****                     ((ChildType*)(this))->ChildType::DrawPixel(x, y, on);
 276:../../libDaisy//src/hid/disp/display.h ****                 }
 277:../../libDaisy//src/hid/disp/display.h ****             }
 278:../../libDaisy//src/hid/disp/display.h ****         }
 279:../../libDaisy//src/hid/disp/display.h ****         else
 280:../../libDaisy//src/hid/disp/display.h ****         {
 281:../../libDaisy//src/hid/disp/display.h ****             ((ChildType*)(this))->ChildType::DrawLine(x1, y1, x2, y1, on);
 282:../../libDaisy//src/hid/disp/display.h ****             ((ChildType*)(this))->ChildType::DrawLine(x2, y1, x2, y2, on);
 283:../../libDaisy//src/hid/disp/display.h ****             ((ChildType*)(this))->ChildType::DrawLine(x2, y2, x1, y2, on);
 284:../../libDaisy//src/hid/disp/display.h ****             ((ChildType*)(this))->ChildType::DrawLine(x1, y2, x1, y1, on);
 285:../../libDaisy//src/hid/disp/display.h ****         }
 286:../../libDaisy//src/hid/disp/display.h ****     }
 287:../../libDaisy//src/hid/disp/display.h **** 
 288:../../libDaisy//src/hid/disp/display.h ****     void DrawArc(uint_fast8_t x,
 289:../../libDaisy//src/hid/disp/display.h ****                  uint_fast8_t y,
 290:../../libDaisy//src/hid/disp/display.h ****                  uint_fast8_t radius,
 291:../../libDaisy//src/hid/disp/display.h ****                  int_fast16_t start_angle,
 292:../../libDaisy//src/hid/disp/display.h ****                  int_fast16_t sweep,
 293:../../libDaisy//src/hid/disp/display.h ****                  bool         on) override
 294:../../libDaisy//src/hid/disp/display.h ****     {
 295:../../libDaisy//src/hid/disp/display.h ****         // Values to calculate the circle
 296:../../libDaisy//src/hid/disp/display.h ****         int_fast16_t t_x, t_y, err, e2;
 297:../../libDaisy//src/hid/disp/display.h **** 
 298:../../libDaisy//src/hid/disp/display.h ****         // Temporary values to speed up comparisons
 299:../../libDaisy//src/hid/disp/display.h ****         float t_sxy, t_syx, t_sxny, t_synx;
 300:../../libDaisy//src/hid/disp/display.h ****         float t_exy, t_eyx, t_exny, t_eynx;
 301:../../libDaisy//src/hid/disp/display.h **** 
ARM GAS  C:\Users\danig\AppData\Local\Temp\cczbxOjJ.s 			page 49


 302:../../libDaisy//src/hid/disp/display.h ****         float start_angle_rad, end_angle_rad;
 303:../../libDaisy//src/hid/disp/display.h ****         float start_x, start_y, end_x, end_y;
 304:../../libDaisy//src/hid/disp/display.h **** 
 305:../../libDaisy//src/hid/disp/display.h ****         bool d1, d2, d3, d4;
 306:../../libDaisy//src/hid/disp/display.h **** 
 307:../../libDaisy//src/hid/disp/display.h ****         d1 = d2 = d3 = d4 = true;
 308:../../libDaisy//src/hid/disp/display.h **** 
 309:../../libDaisy//src/hid/disp/display.h ****         bool circle = false;
 310:../../libDaisy//src/hid/disp/display.h **** 
 311:../../libDaisy//src/hid/disp/display.h ****         if(sweep < 0)
 312:../../libDaisy//src/hid/disp/display.h ****         {
 313:../../libDaisy//src/hid/disp/display.h ****             start_angle += sweep;
 314:../../libDaisy//src/hid/disp/display.h ****             sweep = -sweep;
 315:../../libDaisy//src/hid/disp/display.h ****         }
 316:../../libDaisy//src/hid/disp/display.h **** 
 317:../../libDaisy//src/hid/disp/display.h ****         start_angle_rad = deg2rad(start_angle);
 318:../../libDaisy//src/hid/disp/display.h ****         end_angle_rad   = deg2rad(start_angle + sweep);
 319:../../libDaisy//src/hid/disp/display.h **** 
 320:../../libDaisy//src/hid/disp/display.h ****         start_x = cos(start_angle_rad) * radius;
 321:../../libDaisy//src/hid/disp/display.h ****         start_y = -sin(start_angle_rad) * radius;
 322:../../libDaisy//src/hid/disp/display.h ****         end_x   = cos(end_angle_rad) * radius;
 323:../../libDaisy//src/hid/disp/display.h ****         end_y   = -sin(end_angle_rad) * radius;
 324:../../libDaisy//src/hid/disp/display.h **** 
 325:../../libDaisy//src/hid/disp/display.h ****         // Check if start and endpoint are very near
 326:../../libDaisy//src/hid/disp/display.h ****         if((end_x - start_x) * (end_x - start_x)
 327:../../libDaisy//src/hid/disp/display.h ****                + (end_y - start_y) * (end_y - start_y)
 328:../../libDaisy//src/hid/disp/display.h ****            < 2.0f)
 329:../../libDaisy//src/hid/disp/display.h ****         {
 330:../../libDaisy//src/hid/disp/display.h ****             if(sweep > 180)
 331:../../libDaisy//src/hid/disp/display.h ****                 circle = true;
 332:../../libDaisy//src/hid/disp/display.h ****             else
 333:../../libDaisy//src/hid/disp/display.h ****                 // Nothing to draw
 334:../../libDaisy//src/hid/disp/display.h ****                 return;
 335:../../libDaisy//src/hid/disp/display.h ****         }
 336:../../libDaisy//src/hid/disp/display.h **** 
 337:../../libDaisy//src/hid/disp/display.h ****         t_x = -radius;
 338:../../libDaisy//src/hid/disp/display.h ****         t_y = 0;
 339:../../libDaisy//src/hid/disp/display.h ****         err = 2 - 2 * radius;
 340:../../libDaisy//src/hid/disp/display.h **** 
 341:../../libDaisy//src/hid/disp/display.h ****         do
 342:../../libDaisy//src/hid/disp/display.h ****         {
 343:../../libDaisy//src/hid/disp/display.h ****             if(!circle)
 344:../../libDaisy//src/hid/disp/display.h ****             {
 345:../../libDaisy//src/hid/disp/display.h ****                 t_sxy  = start_x * t_y;
 346:../../libDaisy//src/hid/disp/display.h ****                 t_syx  = start_y * t_x;
 347:../../libDaisy//src/hid/disp/display.h ****                 t_sxny = start_x * -t_y;
 348:../../libDaisy//src/hid/disp/display.h ****                 t_synx = start_y * -t_x;
 349:../../libDaisy//src/hid/disp/display.h ****                 t_exy  = end_x * t_y;
 350:../../libDaisy//src/hid/disp/display.h ****                 t_eyx  = end_y * t_x;
 351:../../libDaisy//src/hid/disp/display.h ****                 t_exny = end_x * -t_y;
 352:../../libDaisy//src/hid/disp/display.h ****                 t_eynx = end_y * -t_x;
 353:../../libDaisy//src/hid/disp/display.h **** 
 354:../../libDaisy//src/hid/disp/display.h ****                 if(sweep > 180)
 355:../../libDaisy//src/hid/disp/display.h ****                 {
 356:../../libDaisy//src/hid/disp/display.h ****                     d1 = (t_sxy - t_synx < 0 || t_exy - t_eynx > 0);
 357:../../libDaisy//src/hid/disp/display.h ****                     d2 = (t_sxy - t_syx < 0 || t_exy - t_eyx > 0);
 358:../../libDaisy//src/hid/disp/display.h ****                     d3 = (t_sxny - t_syx < 0 || t_exny - t_eyx > 0);
ARM GAS  C:\Users\danig\AppData\Local\Temp\cczbxOjJ.s 			page 50


 359:../../libDaisy//src/hid/disp/display.h ****                     d4 = (t_sxny - t_synx < 0 || t_exny - t_eynx > 0);
 360:../../libDaisy//src/hid/disp/display.h ****                 }
 361:../../libDaisy//src/hid/disp/display.h ****                 else
 362:../../libDaisy//src/hid/disp/display.h ****                 {
 363:../../libDaisy//src/hid/disp/display.h ****                     d1 = (t_sxy - t_synx < 0 && t_exy - t_eynx > 0);
 364:../../libDaisy//src/hid/disp/display.h ****                     d2 = (t_sxy - t_syx < 0 && t_exy - t_eyx > 0);
 365:../../libDaisy//src/hid/disp/display.h ****                     d3 = (t_sxny - t_syx < 0 && t_exny - t_eyx > 0);
 366:../../libDaisy//src/hid/disp/display.h ****                     d4 = (t_sxny - t_synx < 0 && t_exny - t_eynx > 0);
 367:../../libDaisy//src/hid/disp/display.h ****                 }
 368:../../libDaisy//src/hid/disp/display.h ****             }
 369:../../libDaisy//src/hid/disp/display.h **** 
 370:../../libDaisy//src/hid/disp/display.h ****             if(d1)
 371:../../libDaisy//src/hid/disp/display.h ****                 ((ChildType*)(this))
 372:../../libDaisy//src/hid/disp/display.h ****                     ->ChildType::DrawPixel(x - t_x, y + t_y, on);
 373:../../libDaisy//src/hid/disp/display.h ****             if(d2)
 374:../../libDaisy//src/hid/disp/display.h ****                 ((ChildType*)(this))
 375:../../libDaisy//src/hid/disp/display.h ****                     ->ChildType::DrawPixel(x + t_x, y + t_y, on);
 376:../../libDaisy//src/hid/disp/display.h ****             if(d3)
 377:../../libDaisy//src/hid/disp/display.h ****                 ((ChildType*)(this))
 378:../../libDaisy//src/hid/disp/display.h ****                     ->ChildType::DrawPixel(x + t_x, y - t_y, on);
 379:../../libDaisy//src/hid/disp/display.h ****             if(d4)
 380:../../libDaisy//src/hid/disp/display.h ****                 ((ChildType*)(this))
 381:../../libDaisy//src/hid/disp/display.h ****                     ->ChildType::DrawPixel(x - t_x, y - t_y, on);
 382:../../libDaisy//src/hid/disp/display.h **** 
 383:../../libDaisy//src/hid/disp/display.h ****             e2 = err;
 384:../../libDaisy//src/hid/disp/display.h ****             if(e2 <= t_y)
 385:../../libDaisy//src/hid/disp/display.h ****             {
 386:../../libDaisy//src/hid/disp/display.h ****                 t_y++;
 387:../../libDaisy//src/hid/disp/display.h ****                 err = err + (t_y * 2 + 1);
 388:../../libDaisy//src/hid/disp/display.h ****                 if(-t_x == t_y && e2 <= t_x)
 389:../../libDaisy//src/hid/disp/display.h ****                 {
 390:../../libDaisy//src/hid/disp/display.h ****                     e2 = 0;
 391:../../libDaisy//src/hid/disp/display.h ****                 }
 392:../../libDaisy//src/hid/disp/display.h ****             }
 393:../../libDaisy//src/hid/disp/display.h ****             if(e2 > t_x)
 394:../../libDaisy//src/hid/disp/display.h ****             {
 395:../../libDaisy//src/hid/disp/display.h ****                 t_x++;
 396:../../libDaisy//src/hid/disp/display.h ****                 err = err + (t_x * 2 + 1);
 397:../../libDaisy//src/hid/disp/display.h ****             }
 398:../../libDaisy//src/hid/disp/display.h ****         } while(t_x <= 0);
 399:../../libDaisy//src/hid/disp/display.h ****     }
 400:../../libDaisy//src/hid/disp/display.h **** 
 401:../../libDaisy//src/hid/disp/display.h ****     char WriteChar(char ch, FontDef font, bool on) override
 1389              		.loc 2 401 10 is_stmt 1 view -0
 1390              		.cfi_startproc
 1391              		@ args = 4, pretend = 0, frame = 16
 1392              		@ frame_needed = 0, uses_anonymous_args = 0
 1393              		.loc 2 401 10 is_stmt 0 view .LVU284
 1394 0000 2DE9F04F 		push	{r4, r5, r6, r7, r8, r9, r10, fp, lr}
 1395              		.cfi_def_cfa_offset 36
 1396              		.cfi_offset 4, -36
 1397              		.cfi_offset 5, -32
 1398              		.cfi_offset 6, -28
 1399              		.cfi_offset 7, -24
 1400              		.cfi_offset 8, -20
 1401              		.cfi_offset 9, -16
 1402              		.cfi_offset 10, -12
ARM GAS  C:\Users\danig\AppData\Local\Temp\cczbxOjJ.s 			page 51


 1403              		.cfi_offset 11, -8
 1404              		.cfi_offset 14, -4
 1405 0004 0E46     		mov	r6, r1
 1406 0006 85B0     		sub	sp, sp, #20
 1407              		.cfi_def_cfa_offset 56
 1408              	.LVL99:
 1409              		.loc 2 401 10 view .LVU285
 1410 0008 0446     		mov	r4, r0
 1411 000a 04A9     		add	r1, sp, #16
 1412              	.LVL100:
 402:../../libDaisy//src/hid/disp/display.h ****     {
 403:../../libDaisy//src/hid/disp/display.h ****         uint32_t i, b, j;
 404:../../libDaisy//src/hid/disp/display.h **** 
 405:../../libDaisy//src/hid/disp/display.h ****         // Check if character is valid
 406:../../libDaisy//src/hid/disp/display.h ****         if(ch < 32 || ch > 126)
 1413              		.loc 2 406 20 view .LVU286
 1414 000c A6F12005 		sub	r5, r6, #32
 401:../../libDaisy//src/hid/disp/display.h ****     {
 1415              		.loc 2 401 10 view .LVU287
 1416 0010 9DF838B0 		ldrb	fp, [sp, #56]	@ zero_extendqisi2
 1417 0014 01E90C00 		stmdb	r1, {r2, r3}
 1418              	.LVL101:
 1419              		.loc 2 406 9 view .LVU288
 1420 0018 EBB2     		uxtb	r3, r5
 1421 001a 5E2B     		cmp	r3, #94
 1422 001c 04D9     		bls	.L32
 1423              	.LVL102:
 1424              	.L34:
 407:../../libDaisy//src/hid/disp/display.h ****             return 0;
 1425              		.loc 2 407 20 view .LVU289
 1426 001e 0026     		movs	r6, #0
 1427              	.L33:
 408:../../libDaisy//src/hid/disp/display.h **** 
 409:../../libDaisy//src/hid/disp/display.h ****         // Check remaining space on current line
 410:../../libDaisy//src/hid/disp/display.h ****         if(Width() < (currentX_ + font.FontWidth)
 411:../../libDaisy//src/hid/disp/display.h ****            || Height() < (currentY_ + font.FontHeight))
 412:../../libDaisy//src/hid/disp/display.h ****         {
 413:../../libDaisy//src/hid/disp/display.h ****             // Not enough space on current line
 414:../../libDaisy//src/hid/disp/display.h ****             return 0;
 415:../../libDaisy//src/hid/disp/display.h ****         }
 416:../../libDaisy//src/hid/disp/display.h **** 
 417:../../libDaisy//src/hid/disp/display.h ****         // Use the font to write
 418:../../libDaisy//src/hid/disp/display.h ****         for(i = 0; i < font.FontHeight; i++)
 419:../../libDaisy//src/hid/disp/display.h ****         {
 420:../../libDaisy//src/hid/disp/display.h ****             b = font.data[(ch - 32) * font.FontHeight + i];
 421:../../libDaisy//src/hid/disp/display.h ****             for(j = 0; j < font.FontWidth; j++)
 422:../../libDaisy//src/hid/disp/display.h ****             {
 423:../../libDaisy//src/hid/disp/display.h ****                 if((b << j) & 0x8000)
 424:../../libDaisy//src/hid/disp/display.h ****                 {
 425:../../libDaisy//src/hid/disp/display.h ****                     ((ChildType*)(this))
 426:../../libDaisy//src/hid/disp/display.h ****                         ->ChildType::DrawPixel(
 427:../../libDaisy//src/hid/disp/display.h ****                             currentX_ + j, (currentY_ + i), on);
 428:../../libDaisy//src/hid/disp/display.h ****                 }
 429:../../libDaisy//src/hid/disp/display.h ****                 else
 430:../../libDaisy//src/hid/disp/display.h ****                 {
 431:../../libDaisy//src/hid/disp/display.h ****                     ((ChildType*)(this))
 432:../../libDaisy//src/hid/disp/display.h ****                         ->ChildType::DrawPixel(
ARM GAS  C:\Users\danig\AppData\Local\Temp\cczbxOjJ.s 			page 52


 433:../../libDaisy//src/hid/disp/display.h ****                             currentX_ + j, (currentY_ + i), !on);
 434:../../libDaisy//src/hid/disp/display.h ****                 }
 435:../../libDaisy//src/hid/disp/display.h ****             }
 436:../../libDaisy//src/hid/disp/display.h ****         }
 437:../../libDaisy//src/hid/disp/display.h **** 
 438:../../libDaisy//src/hid/disp/display.h ****         // The current space is now taken
 439:../../libDaisy//src/hid/disp/display.h ****         SetCursor(currentX_ + font.FontWidth, currentY_);
 440:../../libDaisy//src/hid/disp/display.h **** 
 441:../../libDaisy//src/hid/disp/display.h ****         // Return written char for validation
 442:../../libDaisy//src/hid/disp/display.h ****         return ch;
 443:../../libDaisy//src/hid/disp/display.h ****     }
 1428              		.loc 2 443 5 view .LVU290
 1429 0020 3046     		mov	r0, r6
 1430 0022 05B0     		add	sp, sp, #20
 1431              		.cfi_remember_state
 1432              		.cfi_def_cfa_offset 36
 1433              		@ sp needed
 1434 0024 BDE8F08F 		pop	{r4, r5, r6, r7, r8, r9, r10, fp, pc}
 1435              	.LVL103:
 1436              	.L32:
 1437              		.cfi_restore_state
 410:../../libDaisy//src/hid/disp/display.h ****            || Height() < (currentY_ + font.FontHeight))
 1438              		.loc 2 410 17 view .LVU291
 1439 0028 0368     		ldr	r3, [r0]
 1440 002a 9DF80870 		ldrb	r7, [sp, #8]	@ zero_extendqisi2
 1441 002e DB68     		ldr	r3, [r3, #12]
 1442 0030 9DF809A0 		ldrb	r10, [sp, #9]	@ zero_extendqisi2
 1443 0034 9847     		blx	r3
 1444              	.LVL104:
 410:../../libDaisy//src/hid/disp/display.h ****            || Height() < (currentY_ + font.FontHeight))
 1445              		.loc 2 410 23 view .LVU292
 1446 0036 A388     		ldrh	r3, [r4, #4]
 410:../../libDaisy//src/hid/disp/display.h ****            || Height() < (currentY_ + font.FontHeight))
 1447              		.loc 2 410 33 view .LVU293
 1448 0038 3B44     		add	r3, r3, r7
 411:../../libDaisy//src/hid/disp/display.h ****         {
 1449              		.loc 2 411 12 view .LVU294
 1450 003a 9842     		cmp	r0, r3
 1451 003c EFDB     		blt	.L34
 411:../../libDaisy//src/hid/disp/display.h ****         {
 1452              		.loc 2 411 21 discriminator 2 view .LVU295
 1453 003e 2368     		ldr	r3, [r4]
 1454 0040 2046     		mov	r0, r4
 1455 0042 9B68     		ldr	r3, [r3, #8]
 1456 0044 9847     		blx	r3
 1457              	.LVL105:
 411:../../libDaisy//src/hid/disp/display.h ****         {
 1458              		.loc 2 411 27 discriminator 2 view .LVU296
 1459 0046 E388     		ldrh	r3, [r4, #6]
 411:../../libDaisy//src/hid/disp/display.h ****         {
 1460              		.loc 2 411 37 discriminator 2 view .LVU297
 1461 0048 5344     		add	r3, r3, r10
 411:../../libDaisy//src/hid/disp/display.h ****         {
 1462              		.loc 2 411 12 discriminator 2 view .LVU298
 1463 004a 9842     		cmp	r0, r3
 1464 004c E7DB     		blt	.L34
 1465 004e 0AFB05F5 		mul	r5, r10, r5
ARM GAS  C:\Users\danig\AppData\Local\Temp\cczbxOjJ.s 			page 53


 420:../../libDaisy//src/hid/disp/display.h ****             for(j = 0; j < font.FontWidth; j++)
 1466              		.loc 2 420 31 view .LVU299
 1467 0052 4FF00009 		mov	r9, #0
 1468 0056 6D00     		lsls	r5, r5, #1
 1469              	.L40:
 1470              	.LVL106:
 418:../../libDaisy//src/hid/disp/display.h ****         {
 1471              		.loc 2 418 22 is_stmt 1 discriminator 1 view .LVU300
 1472 0058 CA45     		cmp	r10, r9
 1473 005a 1DD9     		bls	.L35
 420:../../libDaisy//src/hid/disp/display.h ****             for(j = 0; j < font.FontWidth; j++)
 1474              		.loc 2 420 58 is_stmt 0 view .LVU301
 1475 005c 039B     		ldr	r3, [sp, #12]
 421:../../libDaisy//src/hid/disp/display.h ****             {
 1476              		.loc 2 421 19 view .LVU302
 1477 005e 4FF00008 		mov	r8, #0
 420:../../libDaisy//src/hid/disp/display.h ****             for(j = 0; j < font.FontWidth; j++)
 1478              		.loc 2 420 15 view .LVU303
 1479 0062 5B5B     		ldrh	r3, [r3, r5]
 1480 0064 0193     		str	r3, [sp, #4]
 1481              	.LVL107:
 1482              	.L39:
 421:../../libDaisy//src/hid/disp/display.h ****             {
 1483              		.loc 2 421 26 is_stmt 1 discriminator 1 view .LVU304
 1484 0066 4745     		cmp	r7, r8
 427:../../libDaisy//src/hid/disp/display.h ****                 }
 1485              		.loc 2 427 29 is_stmt 0 discriminator 1 view .LVU305
 1486 0068 A188     		ldrh	r1, [r4, #4]
 427:../../libDaisy//src/hid/disp/display.h ****                 }
 1487              		.loc 2 427 45 discriminator 1 view .LVU306
 1488 006a E288     		ldrh	r2, [r4, #6]
 421:../../libDaisy//src/hid/disp/display.h ****             {
 1489              		.loc 2 421 26 discriminator 1 view .LVU307
 1490 006c 10D9     		bls	.L36
 423:../../libDaisy//src/hid/disp/display.h ****                 {
 1491              		.loc 2 423 23 view .LVU308
 1492 006e 019B     		ldr	r3, [sp, #4]
 427:../../libDaisy//src/hid/disp/display.h ****                 }
 1493              		.loc 2 427 39 view .LVU309
 1494 0070 4144     		add	r1, r1, r8
 427:../../libDaisy//src/hid/disp/display.h ****                 }
 1495              		.loc 2 427 55 view .LVU310
 1496 0072 4A44     		add	r2, r2, r9
 1497              	.LBB494:
 1498              	.LBB495:
  44:../../libDaisy//src/hid/disp/oled_display.h ****     }
 1499              		.loc 1 44 26 view .LVU311
 1500 0074 04F10800 		add	r0, r4, #8
 1501              	.LBE495:
 1502              	.LBE494:
 423:../../libDaisy//src/hid/disp/display.h ****                 {
 1503              		.loc 2 423 23 view .LVU312
 1504 0078 03FA08F3 		lsl	r3, r3, r8
 421:../../libDaisy//src/hid/disp/display.h ****             {
 1505              		.loc 2 421 13 view .LVU313
 1506 007c 08F10108 		add	r8, r8, #1
 1507              	.LVL108:
ARM GAS  C:\Users\danig\AppData\Local\Temp\cczbxOjJ.s 			page 54


 423:../../libDaisy//src/hid/disp/display.h ****                 {
 1508              		.loc 2 423 17 view .LVU314
 1509 0080 1B04     		lsls	r3, r3, #16
 1510              	.LVL109:
 1511              	.LBB497:
 1512              	.LBI494:
  42:../../libDaisy//src/hid/disp/oled_display.h ****     {
 1513              		.loc 1 42 10 is_stmt 1 view .LVU315
 1514              	.LBB496:
  44:../../libDaisy//src/hid/disp/oled_display.h ****     }
 1515              		.loc 1 44 26 is_stmt 0 view .LVU316
 1516 0082 4CBF     		ite	mi
 1517 0084 5B46     		movmi	r3, fp
 1518              	.LVL110:
  44:../../libDaisy//src/hid/disp/oled_display.h ****     }
 1519              		.loc 1 44 26 view .LVU317
 1520              	.LBE496:
 1521              	.LBE497:
 1522              	.LBB498:
 1523              	.LBI498:
  42:../../libDaisy//src/hid/disp/oled_display.h ****     {
 1524              		.loc 1 42 10 is_stmt 1 view .LVU318
 1525              	.LBB499:
  44:../../libDaisy//src/hid/disp/oled_display.h ****     }
 1526              		.loc 1 44 26 is_stmt 0 view .LVU319
 1527 0086 8BF00103 		eorpl	r3, fp, #1
 1528 008a FFF7FEFF 		bl	_ZN5daisy13SSD130xDriverILj128ELj64ENS_24SSD130x4WireSpiTransportEE9DrawPixelEjjb
 1529              	.LVL111:
  44:../../libDaisy//src/hid/disp/oled_display.h ****     }
 1530              		.loc 1 44 26 view .LVU320
 1531              	.LBE499:
 1532              	.LBE498:
 421:../../libDaisy//src/hid/disp/display.h ****             {
 1533              		.loc 2 421 13 is_stmt 1 view .LVU321
 421:../../libDaisy//src/hid/disp/display.h ****             {
 1534              		.loc 2 421 13 is_stmt 0 view .LVU322
 1535 008e EAE7     		b	.L39
 1536              	.L36:
 418:../../libDaisy//src/hid/disp/display.h ****         {
 1537              		.loc 2 418 9 is_stmt 1 discriminator 2 view .LVU323
 1538 0090 09F10109 		add	r9, r9, #1
 1539              	.LVL112:
 418:../../libDaisy//src/hid/disp/display.h ****         {
 1540              		.loc 2 418 9 is_stmt 0 discriminator 2 view .LVU324
 1541 0094 0235     		adds	r5, r5, #2
 1542 0096 DFE7     		b	.L40
 1543              	.LVL113:
 1544              	.L35:
 439:../../libDaisy//src/hid/disp/display.h **** 
 1545              		.loc 2 439 18 view .LVU325
 1546 0098 A188     		ldrh	r1, [r4, #4]
 1547 009a 2046     		mov	r0, r4
 1548 009c E288     		ldrh	r2, [r4, #6]
 1549 009e 3944     		add	r1, r1, r7
 1550 00a0 89B2     		uxth	r1, r1
 1551 00a2 FFF7FEFF 		bl	_ZN5daisy21OneBitGraphicsDisplay9SetCursorEtt
 1552              	.LVL114:
ARM GAS  C:\Users\danig\AppData\Local\Temp\cczbxOjJ.s 			page 55


 442:../../libDaisy//src/hid/disp/display.h ****     }
 1553              		.loc 2 442 16 view .LVU326
 1554 00a6 BBE7     		b	.L33
 1555              		.cfi_endproc
 1556              	.LFE2843:
 1558              		.section	.text._ZN5daisy25OneBitGraphicsDisplayImplINS_11OledDisplayINS_13SSD130xDriverILj128ELj64
 1559              		.align	1
 1560              		.weak	_ZN5daisy25OneBitGraphicsDisplayImplINS_11OledDisplayINS_13SSD130xDriverILj128ELj64ENS_24SSD
 1561              		.syntax unified
 1562              		.thumb
 1563              		.thumb_func
 1564              		.fpu fpv5-d16
 1566              	_ZN5daisy25OneBitGraphicsDisplayImplINS_11OledDisplayINS_13SSD130xDriverILj128ELj64ENS_24SSD130x4Wi
 1567              	.LVL115:
 1568              	.LFB2827:
 444:../../libDaisy//src/hid/disp/display.h **** 
 445:../../libDaisy//src/hid/disp/display.h ****     char WriteString(const char* str, FontDef font, bool on) override
 1569              		.loc 2 445 10 is_stmt 1 view -0
 1570              		.cfi_startproc
 1571              		@ args = 4, pretend = 0, frame = 8
 1572              		@ frame_needed = 0, uses_anonymous_args = 0
 1573              		.loc 2 445 10 is_stmt 0 view .LVU328
 1574 0000 F0B5     		push	{r4, r5, r6, r7, lr}
 1575              		.cfi_def_cfa_offset 20
 1576              		.cfi_offset 4, -20
 1577              		.cfi_offset 5, -16
 1578              		.cfi_offset 6, -12
 1579              		.cfi_offset 7, -8
 1580              		.cfi_offset 14, -4
 1581 0002 85B0     		sub	sp, sp, #20
 1582              		.cfi_def_cfa_offset 40
 1583              		.loc 2 445 10 view .LVU329
 1584 0004 0646     		mov	r6, r0
 1585 0006 4C1E     		subs	r4, r1, #1
 1586 0008 02AD     		add	r5, sp, #8
 1587 000a 9DF82870 		ldrb	r7, [sp, #40]	@ zero_extendqisi2
 1588 000e 85E80C00 		stm	r5, {r2, r3}
 1589              	.LVL116:
 1590              	.L44:
 446:../../libDaisy//src/hid/disp/display.h ****     {
 447:../../libDaisy//src/hid/disp/display.h ****         // Write until null-byte
 448:../../libDaisy//src/hid/disp/display.h ****         while(*str)
 1591              		.loc 2 448 9 is_stmt 1 view .LVU330
 1592 0012 14F8011F 		ldrb	r1, [r4, #1]!	@ zero_extendqisi2
 1593              	.LVL117:
 1594              		.loc 2 448 9 is_stmt 0 view .LVU331
 1595 0016 41B1     		cbz	r1, .L43
 449:../../libDaisy//src/hid/disp/display.h ****         {
 450:../../libDaisy//src/hid/disp/display.h ****             if(((ChildType*)(this))->ChildType::WriteChar(*str, font, on)
 1596              		.loc 2 450 58 view .LVU332
 1597 0018 0097     		str	r7, [sp]
 1598 001a 3046     		mov	r0, r6
 1599 001c 95E80C00 		ldm	r5, {r2, r3}
 1600 0020 FFF7FEFF 		bl	_ZN5daisy25OneBitGraphicsDisplayImplINS_11OledDisplayINS_13SSD130xDriverILj128ELj64ENS_24SSD130
 1601              	.LVL118:
 451:../../libDaisy//src/hid/disp/display.h ****                != *str)
 1602              		.loc 2 451 16 view .LVU333
ARM GAS  C:\Users\danig\AppData\Local\Temp\cczbxOjJ.s 			page 56


 1603 0024 2178     		ldrb	r1, [r4]	@ zero_extendqisi2
 450:../../libDaisy//src/hid/disp/display.h ****                != *str)
 1604              		.loc 2 450 13 view .LVU334
 1605 0026 8842     		cmp	r0, r1
 1606 0028 F3D0     		beq	.L44
 1607              	.L43:
 452:../../libDaisy//src/hid/disp/display.h ****             {
 453:../../libDaisy//src/hid/disp/display.h ****                 // Char could not be written
 454:../../libDaisy//src/hid/disp/display.h ****                 return *str;
 455:../../libDaisy//src/hid/disp/display.h ****             }
 456:../../libDaisy//src/hid/disp/display.h **** 
 457:../../libDaisy//src/hid/disp/display.h ****             // Next char
 458:../../libDaisy//src/hid/disp/display.h ****             str++;
 459:../../libDaisy//src/hid/disp/display.h ****         }
 460:../../libDaisy//src/hid/disp/display.h **** 
 461:../../libDaisy//src/hid/disp/display.h ****         // Everything ok
 462:../../libDaisy//src/hid/disp/display.h ****         return *str;
 463:../../libDaisy//src/hid/disp/display.h ****     }
 1608              		.loc 2 463 5 view .LVU335
 1609 002a 0846     		mov	r0, r1
 1610 002c 05B0     		add	sp, sp, #20
 1611              		.cfi_def_cfa_offset 20
 1612              		@ sp needed
 1613 002e F0BD     		pop	{r4, r5, r6, r7, pc}
 1614              		.loc 2 463 5 view .LVU336
 1615              		.cfi_endproc
 1616              	.LFE2827:
 1618              		.section	.rodata._ZN7Display7ShowBpmEi.str1.1,"aMS",%progbits,1
 1619              	.LC0:
 1620 0000 42504D3A 		.ascii	"BPM: %d\000"
 1620      20256400 
 1621              		.section	.text._ZN7Display7ShowBpmEi,"ax",%progbits
 1622              		.align	1
 1623              		.global	_ZN7Display7ShowBpmEi
 1624              		.syntax unified
 1625              		.thumb
 1626              		.thumb_func
 1627              		.fpu fpv5-d16
 1629              	_ZN7Display7ShowBpmEi:
 1630              	.LVL119:
 1631              	.LFB2793:
  19:Display.cpp   **** 
  20:Display.cpp   **** void Display::ShowBpm(int bpm)
  21:Display.cpp   **** {
 1632              		.loc 4 21 1 is_stmt 1 view -0
 1633              		.cfi_startproc
 1634              		@ args = 0, pretend = 0, frame = 8
 1635              		@ frame_needed = 0, uses_anonymous_args = 0
  22:Display.cpp   ****     sprintf(strbuff_, "BPM: %d", bpm);
 1636              		.loc 4 22 5 view .LVU338
  21:Display.cpp   ****     sprintf(strbuff_, "BPM: %d", bpm);
 1637              		.loc 4 21 1 is_stmt 0 view .LVU339
 1638 0000 30B5     		push	{r4, r5, lr}
 1639              		.cfi_def_cfa_offset 12
 1640              		.cfi_offset 4, -12
 1641              		.cfi_offset 5, -8
 1642              		.cfi_offset 14, -4
ARM GAS  C:\Users\danig\AppData\Local\Temp\cczbxOjJ.s 			page 57


 1643              		.loc 4 22 13 view .LVU340
 1644 0002 00F58765 		add	r5, r0, #1080
  21:Display.cpp   ****     sprintf(strbuff_, "BPM: %d", bpm);
 1645              		.loc 4 21 1 view .LVU341
 1646 0006 85B0     		sub	sp, sp, #20
 1647              		.cfi_def_cfa_offset 32
  21:Display.cpp   ****     sprintf(strbuff_, "BPM: %d", bpm);
 1648              		.loc 4 21 1 view .LVU342
 1649 0008 0446     		mov	r4, r0
 1650 000a 0A46     		mov	r2, r1
 1651              		.loc 4 22 12 view .LVU343
 1652 000c 2846     		mov	r0, r5
 1653              	.LVL120:
 1654              		.loc 4 22 12 view .LVU344
 1655 000e 0949     		ldr	r1, .L50
 1656              	.LVL121:
 1657              		.loc 4 22 12 view .LVU345
 1658 0010 FFF7FEFF 		bl	sprintf
 1659              	.LVL122:
  23:Display.cpp   ****     display_.SetCursor(0, 0);
 1660              		.loc 4 23 5 is_stmt 1 view .LVU346
 1661              		.loc 4 23 23 is_stmt 0 view .LVU347
 1662 0014 0022     		movs	r2, #0
 1663 0016 201D     		adds	r0, r4, #4
 1664 0018 1146     		mov	r1, r2
 1665 001a 0390     		str	r0, [sp, #12]
 1666 001c FFF7FEFF 		bl	_ZN5daisy21OneBitGraphicsDisplay9SetCursorEtt
 1667              	.LVL123:
  24:Display.cpp   ****     display_.WriteString(strbuff_, Font_7x10, true);
 1668              		.loc 4 24 5 is_stmt 1 view .LVU348
 1669              		.loc 4 24 25 is_stmt 0 view .LVU349
 1670 0020 0122     		movs	r2, #1
 1671 0022 054B     		ldr	r3, .L50+4
 1672 0024 2946     		mov	r1, r5
 1673 0026 0398     		ldr	r0, [sp, #12]
 1674 0028 0092     		str	r2, [sp]
 1675 002a 0CCB     		ldm	r3, {r2, r3}
 1676 002c FFF7FEFF 		bl	_ZN5daisy25OneBitGraphicsDisplayImplINS_11OledDisplayINS_13SSD130xDriverILj128ELj64ENS_24SSD130
 1677              	.LVL124:
  25:Display.cpp   **** }
 1678              		.loc 4 25 1 view .LVU350
 1679 0030 05B0     		add	sp, sp, #20
 1680              		.cfi_def_cfa_offset 12
 1681              		@ sp needed
 1682 0032 30BD     		pop	{r4, r5, pc}
 1683              	.LVL125:
 1684              	.L51:
 1685              		.loc 4 25 1 view .LVU351
 1686              		.align	2
 1687              	.L50:
 1688 0034 00000000 		.word	.LC0
 1689 0038 00000000 		.word	Font_7x10
 1690              		.cfi_endproc
 1691              	.LFE2793:
 1693              		.section	.text._ZN7Display11ShowPadNameEPKc,"ax",%progbits
 1694              		.align	1
 1695              		.global	_ZN7Display11ShowPadNameEPKc
ARM GAS  C:\Users\danig\AppData\Local\Temp\cczbxOjJ.s 			page 58


 1696              		.syntax unified
 1697              		.thumb
 1698              		.thumb_func
 1699              		.fpu fpv5-d16
 1701              	_ZN7Display11ShowPadNameEPKc:
 1702              	.LVL126:
 1703              	.LFB2794:
  26:Display.cpp   **** 
  27:Display.cpp   **** void Display::ShowPadName(const char* name)
  28:Display.cpp   **** {
 1704              		.loc 4 28 1 is_stmt 1 view -0
 1705              		.cfi_startproc
 1706              		@ args = 0, pretend = 0, frame = 8
 1707              		@ frame_needed = 0, uses_anonymous_args = 0
  29:Display.cpp   ****     display_.SetCursor(0, 25);
 1708              		.loc 4 29 5 view .LVU353
  28:Display.cpp   ****     display_.SetCursor(0, 25);
 1709              		.loc 4 28 1 is_stmt 0 view .LVU354
 1710 0000 1FB5     		push	{r0, r1, r2, r3, r4, lr}
 1711              		.cfi_def_cfa_offset 24
 1712              		.cfi_offset 4, -8
 1713              		.cfi_offset 14, -4
 1714              		.loc 4 29 23 view .LVU355
 1715 0002 0430     		adds	r0, r0, #4
 1716              	.LVL127:
  28:Display.cpp   ****     display_.SetCursor(0, 25);
 1717              		.loc 4 28 1 view .LVU356
 1718 0004 0C46     		mov	r4, r1
 1719              		.loc 4 29 23 view .LVU357
 1720 0006 1922     		movs	r2, #25
 1721 0008 0021     		movs	r1, #0
 1722              	.LVL128:
 1723              		.loc 4 29 23 view .LVU358
 1724 000a 0390     		str	r0, [sp, #12]
 1725 000c FFF7FEFF 		bl	_ZN5daisy21OneBitGraphicsDisplay9SetCursorEtt
 1726              	.LVL129:
  30:Display.cpp   ****     display_.WriteString(name, Font_11x18, true);
 1727              		.loc 4 30 5 is_stmt 1 view .LVU359
 1728              		.loc 4 30 25 is_stmt 0 view .LVU360
 1729 0010 0122     		movs	r2, #1
 1730 0012 044B     		ldr	r3, .L53
 1731 0014 2146     		mov	r1, r4
 1732 0016 0398     		ldr	r0, [sp, #12]
 1733 0018 0092     		str	r2, [sp]
 1734 001a 0CCB     		ldm	r3, {r2, r3}
 1735 001c FFF7FEFF 		bl	_ZN5daisy25OneBitGraphicsDisplayImplINS_11OledDisplayINS_13SSD130xDriverILj128ELj64ENS_24SSD130
 1736              	.LVL130:
  31:Display.cpp   **** }
 1737              		.loc 4 31 1 view .LVU361
 1738 0020 04B0     		add	sp, sp, #16
 1739              		.cfi_def_cfa_offset 8
 1740              		@ sp needed
 1741 0022 10BD     		pop	{r4, pc}
 1742              	.LVL131:
 1743              	.L54:
 1744              		.loc 4 31 1 view .LVU362
 1745              		.align	2
ARM GAS  C:\Users\danig\AppData\Local\Temp\cczbxOjJ.s 			page 59


 1746              	.L53:
 1747 0024 00000000 		.word	Font_11x18
 1748              		.cfi_endproc
 1749              	.LFE2794:
 1751              		.section	.rodata._ZN7Display7ShowKeyEPKc.str1.1,"aMS",%progbits,1
 1752              	.LC1:
 1753 0000 4B65793A 		.ascii	"Key: %s\000"
 1753      20257300 
 1754              		.section	.text._ZN7Display7ShowKeyEPKc,"ax",%progbits
 1755              		.align	1
 1756              		.global	_ZN7Display7ShowKeyEPKc
 1757              		.syntax unified
 1758              		.thumb
 1759              		.thumb_func
 1760              		.fpu fpv5-d16
 1762              	_ZN7Display7ShowKeyEPKc:
 1763              	.LVL132:
 1764              	.LFB2795:
  32:Display.cpp   **** 
  33:Display.cpp   **** void Display::ShowKey(const char* key)
  34:Display.cpp   **** {
 1765              		.loc 4 34 1 is_stmt 1 view -0
 1766              		.cfi_startproc
 1767              		@ args = 0, pretend = 0, frame = 8
 1768              		@ frame_needed = 0, uses_anonymous_args = 0
  35:Display.cpp   ****     sprintf(strbuff_, "Key: %s", key);
 1769              		.loc 4 35 5 view .LVU364
  34:Display.cpp   ****     sprintf(strbuff_, "Key: %s", key);
 1770              		.loc 4 34 1 is_stmt 0 view .LVU365
 1771 0000 30B5     		push	{r4, r5, lr}
 1772              		.cfi_def_cfa_offset 12
 1773              		.cfi_offset 4, -12
 1774              		.cfi_offset 5, -8
 1775              		.cfi_offset 14, -4
 1776              		.loc 4 35 13 view .LVU366
 1777 0002 00F58765 		add	r5, r0, #1080
  34:Display.cpp   ****     sprintf(strbuff_, "Key: %s", key);
 1778              		.loc 4 34 1 view .LVU367
 1779 0006 0446     		mov	r4, r0
 1780 0008 85B0     		sub	sp, sp, #20
 1781              		.cfi_def_cfa_offset 32
  34:Display.cpp   ****     sprintf(strbuff_, "Key: %s", key);
 1782              		.loc 4 34 1 view .LVU368
 1783 000a 0A46     		mov	r2, r1
 1784              		.loc 4 35 12 view .LVU369
 1785 000c 2846     		mov	r0, r5
 1786              	.LVL133:
 1787              		.loc 4 35 12 view .LVU370
 1788 000e 0949     		ldr	r1, .L56
 1789              	.LVL134:
 1790              		.loc 4 35 12 view .LVU371
 1791 0010 FFF7FEFF 		bl	sprintf
 1792              	.LVL135:
  36:Display.cpp   ****     display_.SetCursor(80, 0);
 1793              		.loc 4 36 5 is_stmt 1 view .LVU372
 1794              		.loc 4 36 23 is_stmt 0 view .LVU373
 1795 0014 201D     		adds	r0, r4, #4
ARM GAS  C:\Users\danig\AppData\Local\Temp\cczbxOjJ.s 			page 60


 1796 0016 0022     		movs	r2, #0
 1797 0018 5021     		movs	r1, #80
 1798 001a 0390     		str	r0, [sp, #12]
 1799 001c FFF7FEFF 		bl	_ZN5daisy21OneBitGraphicsDisplay9SetCursorEtt
 1800              	.LVL136:
  37:Display.cpp   ****     display_.WriteString(strbuff_, Font_7x10, true);
 1801              		.loc 4 37 5 is_stmt 1 view .LVU374
 1802              		.loc 4 37 25 is_stmt 0 view .LVU375
 1803 0020 0122     		movs	r2, #1
 1804 0022 054B     		ldr	r3, .L56+4
 1805 0024 2946     		mov	r1, r5
 1806 0026 0398     		ldr	r0, [sp, #12]
 1807 0028 0092     		str	r2, [sp]
 1808 002a 0CCB     		ldm	r3, {r2, r3}
 1809 002c FFF7FEFF 		bl	_ZN5daisy25OneBitGraphicsDisplayImplINS_11OledDisplayINS_13SSD130xDriverILj128ELj64ENS_24SSD130
 1810              	.LVL137:
  38:Display.cpp   **** }
 1811              		.loc 4 38 1 view .LVU376
 1812 0030 05B0     		add	sp, sp, #20
 1813              		.cfi_def_cfa_offset 12
 1814              		@ sp needed
 1815 0032 30BD     		pop	{r4, r5, pc}
 1816              	.LVL138:
 1817              	.L57:
 1818              		.loc 4 38 1 view .LVU377
 1819              		.align	2
 1820              	.L56:
 1821 0034 00000000 		.word	.LC1
 1822 0038 00000000 		.word	Font_7x10
 1823              		.cfi_endproc
 1824              	.LFE2795:
 1826              		.section	.rodata._ZN7Display15ShowNextPadNameEPKcS1_.str1.1,"aMS",%progbits,1
 1827              	.LC2:
 1828 0000 3E202573 		.ascii	"> %s %s\000"
 1828      20257300 
 1829              		.section	.text._ZN7Display15ShowNextPadNameEPKcS1_,"ax",%progbits
 1830              		.align	1
 1831              		.global	_ZN7Display15ShowNextPadNameEPKcS1_
 1832              		.syntax unified
 1833              		.thumb
 1834              		.thumb_func
 1835              		.fpu fpv5-d16
 1837              	_ZN7Display15ShowNextPadNameEPKcS1_:
 1838              	.LVL139:
 1839              	.LFB2796:
  39:Display.cpp   **** 
  40:Display.cpp   **** void Display::ShowNextPadName(const char* key, const char* name)
  41:Display.cpp   **** {
 1840              		.loc 4 41 1 is_stmt 1 view -0
 1841              		.cfi_startproc
 1842              		@ args = 0, pretend = 0, frame = 8
 1843              		@ frame_needed = 0, uses_anonymous_args = 0
  42:Display.cpp   ****     sprintf(strbuff_, "> %s %s", key, name);
 1844              		.loc 4 42 5 view .LVU379
  41:Display.cpp   ****     sprintf(strbuff_, "> %s %s", key, name);
 1845              		.loc 4 41 1 is_stmt 0 view .LVU380
 1846 0000 30B5     		push	{r4, r5, lr}
ARM GAS  C:\Users\danig\AppData\Local\Temp\cczbxOjJ.s 			page 61


 1847              		.cfi_def_cfa_offset 12
 1848              		.cfi_offset 4, -12
 1849              		.cfi_offset 5, -8
 1850              		.cfi_offset 14, -4
 1851              		.loc 4 42 13 view .LVU381
 1852 0002 00F58765 		add	r5, r0, #1080
  41:Display.cpp   ****     sprintf(strbuff_, "> %s %s", key, name);
 1853              		.loc 4 41 1 view .LVU382
 1854 0006 0446     		mov	r4, r0
 1855 0008 85B0     		sub	sp, sp, #20
 1856              		.cfi_def_cfa_offset 32
  41:Display.cpp   ****     sprintf(strbuff_, "> %s %s", key, name);
 1857              		.loc 4 41 1 view .LVU383
 1858 000a 1346     		mov	r3, r2
 1859              		.loc 4 42 12 view .LVU384
 1860 000c 2846     		mov	r0, r5
 1861              	.LVL140:
 1862              		.loc 4 42 12 view .LVU385
 1863 000e 0A46     		mov	r2, r1
 1864              	.LVL141:
 1865              		.loc 4 42 12 view .LVU386
 1866 0010 0949     		ldr	r1, .L59
 1867              	.LVL142:
 1868              		.loc 4 42 12 view .LVU387
 1869 0012 FFF7FEFF 		bl	sprintf
 1870              	.LVL143:
  43:Display.cpp   ****     display_.SetCursor(0, 56);
 1871              		.loc 4 43 5 is_stmt 1 view .LVU388
 1872              		.loc 4 43 23 is_stmt 0 view .LVU389
 1873 0016 201D     		adds	r0, r4, #4
 1874 0018 3822     		movs	r2, #56
 1875 001a 0021     		movs	r1, #0
 1876 001c 0390     		str	r0, [sp, #12]
 1877 001e FFF7FEFF 		bl	_ZN5daisy21OneBitGraphicsDisplay9SetCursorEtt
 1878              	.LVL144:
  44:Display.cpp   ****     display_.WriteString(strbuff_, Font_6x8, true);
 1879              		.loc 4 44 5 is_stmt 1 view .LVU390
 1880              		.loc 4 44 25 is_stmt 0 view .LVU391
 1881 0022 0122     		movs	r2, #1
 1882 0024 054B     		ldr	r3, .L59+4
 1883 0026 2946     		mov	r1, r5
 1884 0028 0398     		ldr	r0, [sp, #12]
 1885 002a 0092     		str	r2, [sp]
 1886 002c 0CCB     		ldm	r3, {r2, r3}
 1887 002e FFF7FEFF 		bl	_ZN5daisy25OneBitGraphicsDisplayImplINS_11OledDisplayINS_13SSD130xDriverILj128ELj64ENS_24SSD130
 1888              	.LVL145:
  45:Display.cpp   **** }
 1889              		.loc 4 45 1 view .LVU392
 1890 0032 05B0     		add	sp, sp, #20
 1891              		.cfi_def_cfa_offset 12
 1892              		@ sp needed
 1893 0034 30BD     		pop	{r4, r5, pc}
 1894              	.LVL146:
 1895              	.L60:
 1896              		.loc 4 45 1 view .LVU393
 1897 0036 00BF     		.align	2
 1898              	.L59:
ARM GAS  C:\Users\danig\AppData\Local\Temp\cczbxOjJ.s 			page 62


 1899 0038 00000000 		.word	.LC2
 1900 003c 00000000 		.word	Font_6x8
 1901              		.cfi_endproc
 1902              	.LFE2796:
 1904              		.section	.rodata._ZN7Display17ShowTimeSignatureEii.str1.1,"aMS",%progbits,1
 1905              	.LC3:
 1906 0000 25642F25 		.ascii	"%d/%d\000"
 1906      6400
 1907              		.section	.text._ZN7Display17ShowTimeSignatureEii,"ax",%progbits
 1908              		.align	1
 1909              		.global	_ZN7Display17ShowTimeSignatureEii
 1910              		.syntax unified
 1911              		.thumb
 1912              		.thumb_func
 1913              		.fpu fpv5-d16
 1915              	_ZN7Display17ShowTimeSignatureEii:
 1916              	.LVL147:
 1917              	.LFB2797:
  46:Display.cpp   **** 
  47:Display.cpp   **** void Display::ShowTimeSignature(int numerator, int denominator)
  48:Display.cpp   **** {
 1918              		.loc 4 48 1 is_stmt 1 view -0
 1919              		.cfi_startproc
 1920              		@ args = 0, pretend = 0, frame = 8
 1921              		@ frame_needed = 0, uses_anonymous_args = 0
  49:Display.cpp   ****     sprintf(strbuff_, "%d/%d", numerator, denominator);
 1922              		.loc 4 49 5 view .LVU395
  48:Display.cpp   ****     sprintf(strbuff_, "%d/%d", numerator, denominator);
 1923              		.loc 4 48 1 is_stmt 0 view .LVU396
 1924 0000 30B5     		push	{r4, r5, lr}
 1925              		.cfi_def_cfa_offset 12
 1926              		.cfi_offset 4, -12
 1927              		.cfi_offset 5, -8
 1928              		.cfi_offset 14, -4
 1929              		.loc 4 49 13 view .LVU397
 1930 0002 00F58765 		add	r5, r0, #1080
  48:Display.cpp   ****     sprintf(strbuff_, "%d/%d", numerator, denominator);
 1931              		.loc 4 48 1 view .LVU398
 1932 0006 0446     		mov	r4, r0
 1933 0008 85B0     		sub	sp, sp, #20
 1934              		.cfi_def_cfa_offset 32
  48:Display.cpp   ****     sprintf(strbuff_, "%d/%d", numerator, denominator);
 1935              		.loc 4 48 1 view .LVU399
 1936 000a 1346     		mov	r3, r2
 1937              		.loc 4 49 12 view .LVU400
 1938 000c 2846     		mov	r0, r5
 1939              	.LVL148:
 1940              		.loc 4 49 12 view .LVU401
 1941 000e 0A46     		mov	r2, r1
 1942              	.LVL149:
 1943              		.loc 4 49 12 view .LVU402
 1944 0010 0949     		ldr	r1, .L62
 1945              	.LVL150:
 1946              		.loc 4 49 12 view .LVU403
 1947 0012 FFF7FEFF 		bl	sprintf
 1948              	.LVL151:
  50:Display.cpp   ****     display_.SetCursor(100, 14);
ARM GAS  C:\Users\danig\AppData\Local\Temp\cczbxOjJ.s 			page 63


 1949              		.loc 4 50 5 is_stmt 1 view .LVU404
 1950              		.loc 4 50 23 is_stmt 0 view .LVU405
 1951 0016 201D     		adds	r0, r4, #4
 1952 0018 0E22     		movs	r2, #14
 1953 001a 6421     		movs	r1, #100
 1954 001c 0390     		str	r0, [sp, #12]
 1955 001e FFF7FEFF 		bl	_ZN5daisy21OneBitGraphicsDisplay9SetCursorEtt
 1956              	.LVL152:
  51:Display.cpp   ****     display_.WriteString(strbuff_, Font_7x10, true);
 1957              		.loc 4 51 5 is_stmt 1 view .LVU406
 1958              		.loc 4 51 25 is_stmt 0 view .LVU407
 1959 0022 0122     		movs	r2, #1
 1960 0024 054B     		ldr	r3, .L62+4
 1961 0026 2946     		mov	r1, r5
 1962 0028 0398     		ldr	r0, [sp, #12]
 1963 002a 0092     		str	r2, [sp]
 1964 002c 0CCB     		ldm	r3, {r2, r3}
 1965 002e FFF7FEFF 		bl	_ZN5daisy25OneBitGraphicsDisplayImplINS_11OledDisplayINS_13SSD130xDriverILj128ELj64ENS_24SSD130
 1966              	.LVL153:
  52:Display.cpp   **** }
 1967              		.loc 4 52 1 view .LVU408
 1968 0032 05B0     		add	sp, sp, #20
 1969              		.cfi_def_cfa_offset 12
 1970              		@ sp needed
 1971 0034 30BD     		pop	{r4, r5, pc}
 1972              	.LVL154:
 1973              	.L63:
 1974              		.loc 4 52 1 view .LVU409
 1975 0036 00BF     		.align	2
 1976              	.L62:
 1977 0038 00000000 		.word	.LC3
 1978 003c 00000000 		.word	Font_7x10
 1979              		.cfi_endproc
 1980              	.LFE2797:
 1982              		.section	.rodata._ZN7Display10ShowStatusEbb.str1.1,"aMS",%progbits,1
 1983              	.LC4:
 1984 0000 5041443A 		.ascii	"PAD:>\000"
 1984      3E00
 1985              	.LC5:
 1986 0006 5041443A 		.ascii	"PAD:||\000"
 1986      7C7C00
 1987              	.LC6:
 1988 000d 434C4B3A 		.ascii	"CLK:>\000"
 1988      3E00
 1989              	.LC7:
 1990 0013 434C4B3A 		.ascii	"CLK:||\000"
 1990      7C7C00
 1991              	.LC8:
 1992 001a 25732025 		.ascii	"%s %s\000"
 1992      7300
 1993              		.section	.text._ZN7Display10ShowStatusEbb,"ax",%progbits
 1994              		.align	1
 1995              		.global	_ZN7Display10ShowStatusEbb
 1996              		.syntax unified
 1997              		.thumb
 1998              		.thumb_func
 1999              		.fpu fpv5-d16
ARM GAS  C:\Users\danig\AppData\Local\Temp\cczbxOjJ.s 			page 64


 2001              	_ZN7Display10ShowStatusEbb:
 2002              	.LVL155:
 2003              	.LFB2798:
  53:Display.cpp   **** 
  54:Display.cpp   **** void Display::ShowStatus(bool padPlaying, bool clickPlaying)
  55:Display.cpp   **** {
 2004              		.loc 4 55 1 is_stmt 1 view -0
 2005              		.cfi_startproc
 2006              		@ args = 0, pretend = 0, frame = 8
 2007              		@ frame_needed = 0, uses_anonymous_args = 0
  56:Display.cpp   ****     sprintf(strbuff_,
 2008              		.loc 4 56 5 view .LVU411
  55:Display.cpp   ****     sprintf(strbuff_,
 2009              		.loc 4 55 1 is_stmt 0 view .LVU412
 2010 0000 7FB5     		push	{r0, r1, r2, r3, r4, r5, r6, lr}
 2011              		.cfi_def_cfa_offset 32
 2012              		.cfi_offset 4, -16
 2013              		.cfi_offset 5, -12
 2014              		.cfi_offset 6, -8
 2015              		.cfi_offset 14, -4
 2016              		.loc 4 56 12 view .LVU413
 2017 0002 144E     		ldr	r6, .L69
 2018              		.loc 4 56 13 view .LVU414
 2019 0004 00F58765 		add	r5, r0, #1080
 2020              		.loc 4 56 12 view .LVU415
 2021 0008 134B     		ldr	r3, .L69+4
  55:Display.cpp   ****     sprintf(strbuff_,
 2022              		.loc 4 55 1 view .LVU416
 2023 000a 0446     		mov	r4, r0
 2024              		.loc 4 56 12 view .LVU417
 2025 000c 1348     		ldr	r0, .L69+8
 2026              	.LVL156:
 2027              		.loc 4 56 12 view .LVU418
 2028 000e 002A     		cmp	r2, #0
 2029 0010 18BF     		it	ne
 2030 0012 3346     		movne	r3, r6
 2031 0014 124A     		ldr	r2, .L69+12
 2032              	.LVL157:
 2033              		.loc 4 56 12 view .LVU419
 2034 0016 0029     		cmp	r1, #0
 2035 0018 18BF     		it	ne
 2036 001a 0246     		movne	r2, r0
 2037 001c 1149     		ldr	r1, .L69+16
 2038              	.LVL158:
 2039              		.loc 4 56 12 view .LVU420
 2040 001e 2846     		mov	r0, r5
 2041 0020 FFF7FEFF 		bl	sprintf
 2042              	.LVL159:
  57:Display.cpp   ****             "%s %s",
  58:Display.cpp   ****             padPlaying ? "PAD:>" : "PAD:||",
  59:Display.cpp   ****             clickPlaying ? "CLK:>" : "CLK:||");
  60:Display.cpp   **** 
  61:Display.cpp   ****     int len = strlen(strbuff_);
 2043              		.loc 4 61 5 is_stmt 1 view .LVU421
 2044              		.loc 4 61 21 is_stmt 0 view .LVU422
 2045 0024 2846     		mov	r0, r5
 2046 0026 FFF7FEFF 		bl	strlen
ARM GAS  C:\Users\danig\AppData\Local\Temp\cczbxOjJ.s 			page 65


 2047              	.LVL160:
 2048 002a 0146     		mov	r1, r0
 2049              	.LVL161:
  62:Display.cpp   **** 
  63:Display.cpp   ****     // Font_4x6 → 4 pixels wide per char
  64:Display.cpp   ****     int x = 128 - (len * 4);
 2050              		.loc 4 64 5 is_stmt 1 view .LVU423
  65:Display.cpp   ****     int y = 64 - 8;
 2051              		.loc 4 65 5 view .LVU424
  66:Display.cpp   **** 
  67:Display.cpp   ****     display_.SetCursor(x, y);
 2052              		.loc 4 67 5 view .LVU425
 2053              		.loc 4 67 23 is_stmt 0 view .LVU426
 2054 002c 201D     		adds	r0, r4, #4
 2055              	.LVL162:
 2056              		.loc 4 67 23 view .LVU427
 2057 002e 3822     		movs	r2, #56
  64:Display.cpp   ****     int y = 64 - 8;
 2058              		.loc 4 64 17 view .LVU428
 2059 0030 C1F12001 		rsb	r1, r1, #32
 2060              	.LVL163:
 2061              		.loc 4 67 23 view .LVU429
 2062 0034 0390     		str	r0, [sp, #12]
  64:Display.cpp   ****     int y = 64 - 8;
 2063              		.loc 4 64 9 view .LVU430
 2064 0036 8900     		lsls	r1, r1, #2
 2065              	.LVL164:
 2066              		.loc 4 67 23 view .LVU431
 2067 0038 89B2     		uxth	r1, r1
 2068              	.LVL165:
 2069              		.loc 4 67 23 view .LVU432
 2070 003a FFF7FEFF 		bl	_ZN5daisy21OneBitGraphicsDisplay9SetCursorEtt
 2071              	.LVL166:
  68:Display.cpp   ****     display_.WriteString(strbuff_, Font_4x6, true);
 2072              		.loc 4 68 5 is_stmt 1 view .LVU433
 2073              		.loc 4 68 25 is_stmt 0 view .LVU434
 2074 003e 0122     		movs	r2, #1
 2075 0040 094B     		ldr	r3, .L69+20
 2076 0042 2946     		mov	r1, r5
 2077 0044 0092     		str	r2, [sp]
 2078 0046 0398     		ldr	r0, [sp, #12]
 2079 0048 0CCB     		ldm	r3, {r2, r3}
 2080 004a FFF7FEFF 		bl	_ZN5daisy25OneBitGraphicsDisplayImplINS_11OledDisplayINS_13SSD130xDriverILj128ELj64ENS_24SSD130
 2081              	.LVL167:
  69:Display.cpp   **** }
 2082              		.loc 4 69 1 view .LVU435
 2083 004e 04B0     		add	sp, sp, #16
 2084              		.cfi_def_cfa_offset 16
 2085              		@ sp needed
 2086 0050 70BD     		pop	{r4, r5, r6, pc}
 2087              	.LVL168:
 2088              	.L70:
 2089              		.loc 4 69 1 view .LVU436
 2090 0052 00BF     		.align	2
 2091              	.L69:
 2092 0054 0D000000 		.word	.LC6
 2093 0058 13000000 		.word	.LC7
ARM GAS  C:\Users\danig\AppData\Local\Temp\cczbxOjJ.s 			page 66


 2094 005c 00000000 		.word	.LC4
 2095 0060 06000000 		.word	.LC5
 2096 0064 1A000000 		.word	.LC8
 2097 0068 00000000 		.word	Font_4x6
 2098              		.cfi_endproc
 2099              	.LFE2798:
 2101              		.section	.text._ZN7Display6RenderEiPKcS1_S1_S1_iibb,"ax",%progbits
 2102              		.align	1
 2103              		.global	_ZN7Display6RenderEiPKcS1_S1_S1_iibb
 2104              		.syntax unified
 2105              		.thumb
 2106              		.thumb_func
 2107              		.fpu fpv5-d16
 2109              	_ZN7Display6RenderEiPKcS1_S1_S1_iibb:
 2110              	.LVL169:
 2111              	.LFB2800:
  70:Display.cpp   **** 
  71:Display.cpp   **** void Display::ShowPadBrowser(const char* key,
  72:Display.cpp   ****                              const char* name,
  73:Display.cpp   ****                              int         index,
  74:Display.cpp   ****                              int         total)
  75:Display.cpp   **** {
  76:Display.cpp   ****     display_.Fill(false);
  77:Display.cpp   **** 
  78:Display.cpp   ****     display_.SetCursor(0, 0);
  79:Display.cpp   ****     display_.WriteString("SELECT PAD", Font_6x8, true);
  80:Display.cpp   **** 
  81:Display.cpp   ****     // Key
  82:Display.cpp   ****     display_.SetCursor(0, 14);
  83:Display.cpp   ****     display_.WriteString(key, Font_11x18, true);
  84:Display.cpp   **** 
  85:Display.cpp   ****     // Name — truncate to fit display (max ~18 chars at Font_7x10)
  86:Display.cpp   ****     char nameBuf[20];
  87:Display.cpp   ****     strncpy(nameBuf, name, 19);
  88:Display.cpp   ****     nameBuf[19] = '\0';
  89:Display.cpp   ****     display_.SetCursor(0, 35);
  90:Display.cpp   ****     display_.WriteString(nameBuf, Font_7x10, true);
  91:Display.cpp   **** 
  92:Display.cpp   ****     // Index
  93:Display.cpp   ****     char idxBuf[24];
  94:Display.cpp   ****     snprintf(idxBuf, sizeof(idxBuf), "%d/%d", index + 1, total);
  95:Display.cpp   ****     display_.SetCursor(90, 56);
  96:Display.cpp   ****     display_.WriteString(idxBuf, Font_6x8, true);
  97:Display.cpp   **** 
  98:Display.cpp   ****     display_.SetCursor(0, 56);
  99:Display.cpp   ****     display_.WriteString("HOLD=OK", Font_6x8, true);
 100:Display.cpp   **** 
 101:Display.cpp   ****     display_.Update();
 102:Display.cpp   **** }
 103:Display.cpp   **** 
 104:Display.cpp   **** void Display::Render(int         bpm,
 105:Display.cpp   ****                      const char* key,
 106:Display.cpp   ****                      const char* padName,
 107:Display.cpp   ****                      const char* nextKey,
 108:Display.cpp   ****                      const char* nextPadName,
 109:Display.cpp   ****                      int         numerator,
 110:Display.cpp   ****                      int         denominator,
ARM GAS  C:\Users\danig\AppData\Local\Temp\cczbxOjJ.s 			page 67


 111:Display.cpp   ****                      bool        padPlaying,
 112:Display.cpp   ****                      bool        clickPlaying)
 113:Display.cpp   **** {
 2112              		.loc 4 113 1 is_stmt 1 view -0
 2113              		.cfi_startproc
 2114              		@ args = 24, pretend = 0, frame = 8
 2115              		@ frame_needed = 0, uses_anonymous_args = 0
 114:Display.cpp   ****     Clear();
 2116              		.loc 4 114 5 view .LVU438
 113:Display.cpp   ****     Clear();
 2117              		.loc 4 113 1 is_stmt 0 view .LVU439
 2118 0000 73B5     		push	{r0, r1, r4, r5, r6, lr}
 2119              		.cfi_def_cfa_offset 24
 2120              		.cfi_offset 4, -16
 2121              		.cfi_offset 5, -12
 2122              		.cfi_offset 6, -8
 2123              		.cfi_offset 14, -4
 113:Display.cpp   ****     Clear();
 2124              		.loc 4 113 1 view .LVU440
 2125 0002 0446     		mov	r4, r0
 2126 0004 1D46     		mov	r5, r3
 2127 0006 1646     		mov	r6, r2
 2128 0008 0191     		str	r1, [sp, #4]
 2129              		.loc 4 114 10 view .LVU441
 2130 000a FFF7FEFF 		bl	_ZN7Display5ClearEv
 2131              	.LVL170:
 115:Display.cpp   ****     ShowBpm(bpm);
 2132              		.loc 4 115 5 is_stmt 1 view .LVU442
 2133              		.loc 4 115 12 is_stmt 0 view .LVU443
 2134 000e 0199     		ldr	r1, [sp, #4]
 2135 0010 2046     		mov	r0, r4
 2136 0012 FFF7FEFF 		bl	_ZN7Display7ShowBpmEi
 2137              	.LVL171:
 116:Display.cpp   ****     ShowTimeSignature(numerator, denominator);
 2138              		.loc 4 116 5 is_stmt 1 view .LVU444
 2139              		.loc 4 116 22 is_stmt 0 view .LVU445
 2140 0016 2046     		mov	r0, r4
 2141 0018 DDE90812 		ldrd	r1, r2, [sp, #32]
 2142 001c FFF7FEFF 		bl	_ZN7Display17ShowTimeSignatureEii
 2143              	.LVL172:
 117:Display.cpp   ****     ShowKey(key);
 2144              		.loc 4 117 5 is_stmt 1 view .LVU446
 2145              		.loc 4 117 12 is_stmt 0 view .LVU447
 2146 0020 3146     		mov	r1, r6
 2147 0022 2046     		mov	r0, r4
 2148 0024 FFF7FEFF 		bl	_ZN7Display7ShowKeyEPKc
 2149              	.LVL173:
 118:Display.cpp   ****     ShowPadName(padName);
 2150              		.loc 4 118 5 is_stmt 1 view .LVU448
 2151              		.loc 4 118 16 is_stmt 0 view .LVU449
 2152 0028 2946     		mov	r1, r5
 2153 002a 2046     		mov	r0, r4
 2154 002c FFF7FEFF 		bl	_ZN7Display11ShowPadNameEPKc
 2155              	.LVL174:
 119:Display.cpp   ****     ShowNextPadName(nextKey, nextPadName);
 2156              		.loc 4 119 5 is_stmt 1 view .LVU450
 2157              		.loc 4 119 20 is_stmt 0 view .LVU451
ARM GAS  C:\Users\danig\AppData\Local\Temp\cczbxOjJ.s 			page 68


 2158 0030 2046     		mov	r0, r4
 2159 0032 DDE90612 		ldrd	r1, r2, [sp, #24]
 2160 0036 FFF7FEFF 		bl	_ZN7Display15ShowNextPadNameEPKcS1_
 2161              	.LVL175:
 120:Display.cpp   ****     ShowStatus(padPlaying, clickPlaying);
 2162              		.loc 4 120 5 is_stmt 1 view .LVU452
 2163              		.loc 4 120 15 is_stmt 0 view .LVU453
 2164 003a 9DF82C20 		ldrb	r2, [sp, #44]	@ zero_extendqisi2
 2165 003e 9DF82810 		ldrb	r1, [sp, #40]	@ zero_extendqisi2
 2166 0042 2046     		mov	r0, r4
 2167 0044 FFF7FEFF 		bl	_ZN7Display10ShowStatusEbb
 2168              	.LVL176:
 121:Display.cpp   ****     Update();
 2169              		.loc 4 121 5 is_stmt 1 view .LVU454
 2170              	.LBB500:
 2171              	.LBI500:
  17:Display.cpp   **** { display_.Update(); }
 2172              		.loc 4 17 6 view .LVU455
 2173              	.LBE500:
  18:Display.cpp   **** 
 2174              		.loc 4 18 3 view .LVU456
 2175              	.LBB503:
 2176              	.LBB501:
 2177              	.LBI501:
  51:../../libDaisy//src/hid/disp/oled_display.h **** 
 2178              		.loc 1 51 10 view .LVU457
 2179              	.LBB502:
  51:../../libDaisy//src/hid/disp/oled_display.h **** 
 2180              		.loc 1 51 44 is_stmt 0 view .LVU458
 2181 0048 04F10C00 		add	r0, r4, #12
 2182 004c FFF7FEFF 		bl	_ZN5daisy13SSD130xDriverILj128ELj64ENS_24SSD130x4WireSpiTransportEE6UpdateEv
 2183              	.LVL177:
  51:../../libDaisy//src/hid/disp/oled_display.h **** 
 2184              		.loc 1 51 44 view .LVU459
 2185              	.LBE502:
 2186              	.LBE501:
 2187              	.LBE503:
 122:Display.cpp   **** }...
 2188              		.loc 4 122 1 view .LVU460
 2189 0050 02B0     		add	sp, sp, #8
 2190              		.cfi_def_cfa_offset 16
 2191              		@ sp needed
 2192 0052 70BD     		pop	{r4, r5, r6, pc}
 2193              		.loc 4 122 1 view .LVU461
 2194              		.cfi_endproc
 2195              	.LFE2800:
 2197              		.section	.rodata._ZN7Display14ShowPadBrowserEPKcS1_ii.str1.1,"aMS",%progbits,1
 2198              	.LC9:
 2199 0000 53454C45 		.ascii	"SELECT PAD\000"
 2199      43542050 
 2199      414400
 2200              	.LC10:
 2201 000b 484F4C44 		.ascii	"HOLD=OK\000"
 2201      3D4F4B00 
 2202              		.section	.text._ZN7Display14ShowPadBrowserEPKcS1_ii,"ax",%progbits
 2203              		.align	1
 2204              		.global	_ZN7Display14ShowPadBrowserEPKcS1_ii
ARM GAS  C:\Users\danig\AppData\Local\Temp\cczbxOjJ.s 			page 69


 2205              		.syntax unified
 2206              		.thumb
 2207              		.thumb_func
 2208              		.fpu fpv5-d16
 2210              	_ZN7Display14ShowPadBrowserEPKcS1_ii:
 2211              	.LVL178:
 2212              	.LFB2799:
  75:Display.cpp   **** {
 2213              		.loc 4 75 1 is_stmt 1 view -0
 2214              		.cfi_startproc
 2215              		@ args = 4, pretend = 0, frame = 48
 2216              		@ frame_needed = 0, uses_anonymous_args = 0
  76:Display.cpp   ****     display_.Fill(false);
 2217              		.loc 4 76 5 view .LVU463
 2218              	.LBB511:
 2219              	.LBI511:
  34:../../libDaisy//src/hid/disp/oled_display.h **** 
 2220              		.loc 1 34 10 view .LVU464
 2221              	.LBB512:
 2222              	.LBB513:
 2223              	.LBI513:
 371:../../libDaisy//src/dev/oled_ssd130x.h ****     {
 2224              		.loc 3 371 10 view .LVU465
 2225              	.LBB514:
 373:../../libDaisy//src/dev/oled_ssd130x.h ****         {
 2226              		.loc 3 373 29 view .LVU466
 2227              	.LBE514:
 2228              	.LBE513:
 2229              	.LBE512:
 2230              	.LBE511:
  75:Display.cpp   **** {
 2231              		.loc 4 75 1 is_stmt 0 view .LVU467
 2232 0000 2DE9F047 		push	{r4, r5, r6, r7, r8, r9, r10, lr}
 2233              		.cfi_def_cfa_offset 32
 2234              		.cfi_offset 4, -32
 2235              		.cfi_offset 5, -28
 2236              		.cfi_offset 6, -24
 2237              		.cfi_offset 7, -20
 2238              		.cfi_offset 8, -16
 2239              		.cfi_offset 9, -12
 2240              		.cfi_offset 10, -8
 2241              		.cfi_offset 14, -4
 2242 0004 0646     		mov	r6, r0
 2243 0006 8EB0     		sub	sp, sp, #56
 2244              		.cfi_def_cfa_offset 88
  75:Display.cpp   **** {
 2245              		.loc 4 75 1 view .LVU468
 2246 0008 8A46     		mov	r10, r1
 2247 000a 9046     		mov	r8, r2
 2248              	.LBB521:
 2249              	.LBB519:
 2250              	.LBB517:
 2251              	.LBB515:
 375:../../libDaisy//src/dev/oled_ssd130x.h ****         }
 2252              		.loc 3 375 24 view .LVU469
 2253 000c 0021     		movs	r1, #0
 2254              	.LVL179:
ARM GAS  C:\Users\danig\AppData\Local\Temp\cczbxOjJ.s 			page 70


 375:../../libDaisy//src/dev/oled_ssd130x.h ****         }
 2255              		.loc 3 375 24 view .LVU470
 2256 000e 4FF48062 		mov	r2, #1024
 2257              	.LVL180:
 375:../../libDaisy//src/dev/oled_ssd130x.h ****         }
 2258              		.loc 3 375 24 view .LVU471
 2259 0012 3830     		adds	r0, r0, #56
 2260              	.LVL181:
 375:../../libDaisy//src/dev/oled_ssd130x.h ****         }
 2261              		.loc 3 375 24 view .LVU472
 2262              	.LBE515:
 2263              	.LBE517:
 2264              	.LBE519:
 2265              	.LBE521:
  78:Display.cpp   ****     display_.SetCursor(0, 0);
 2266              		.loc 4 78 23 view .LVU473
 2267 0014 341D     		adds	r4, r6, #4
 2268              	.LVL182:
  75:Display.cpp   **** {
 2269              		.loc 4 75 1 view .LVU474
 2270 0016 9946     		mov	r9, r3
 2271              	.LBB522:
 2272              	.LBB520:
 2273              	.LBB518:
 2274              	.LBB516:
 375:../../libDaisy//src/dev/oled_ssd130x.h ****         }
 2275              		.loc 3 375 24 view .LVU475
 2276 0018 FFF7FEFF 		bl	memset
 2277              	.LVL183:
 375:../../libDaisy//src/dev/oled_ssd130x.h ****         }
 2278              		.loc 3 375 24 view .LVU476
 2279              	.LBE516:
 2280              	.LBE518:
 2281              	.LBE520:
 2282              	.LBE522:
  78:Display.cpp   ****     display_.SetCursor(0, 0);
 2283              		.loc 4 78 5 is_stmt 1 view .LVU477
  78:Display.cpp   ****     display_.SetCursor(0, 0);
 2284              		.loc 4 78 23 is_stmt 0 view .LVU478
 2285 001c 0022     		movs	r2, #0
  79:Display.cpp   ****     display_.WriteString("SELECT PAD", Font_6x8, true);
 2286              		.loc 4 79 25 view .LVU479
 2287 001e 0127     		movs	r7, #1
 2288 0020 2A4D     		ldr	r5, .L73
  78:Display.cpp   ****     display_.SetCursor(0, 0);
 2289              		.loc 4 78 23 view .LVU480
 2290 0022 2046     		mov	r0, r4
 2291 0024 1146     		mov	r1, r2
 2292 0026 FFF7FEFF 		bl	_ZN5daisy21OneBitGraphicsDisplay9SetCursorEtt
 2293              	.LVL184:
  79:Display.cpp   ****     display_.WriteString("SELECT PAD", Font_6x8, true);
 2294              		.loc 4 79 5 is_stmt 1 view .LVU481
  79:Display.cpp   ****     display_.WriteString("SELECT PAD", Font_6x8, true);
 2295              		.loc 4 79 25 is_stmt 0 view .LVU482
 2296 002a 2949     		ldr	r1, .L73+4
 2297 002c 2046     		mov	r0, r4
 2298 002e 0097     		str	r7, [sp]
ARM GAS  C:\Users\danig\AppData\Local\Temp\cczbxOjJ.s 			page 71


 2299 0030 95E80C00 		ldm	r5, {r2, r3}
 2300 0034 FFF7FEFF 		bl	_ZN5daisy25OneBitGraphicsDisplayImplINS_11OledDisplayINS_13SSD130xDriverILj128ELj64ENS_24SSD130
 2301              	.LVL185:
  82:Display.cpp   ****     display_.SetCursor(0, 14);
 2302              		.loc 4 82 5 is_stmt 1 view .LVU483
  82:Display.cpp   ****     display_.SetCursor(0, 14);
 2303              		.loc 4 82 23 is_stmt 0 view .LVU484
 2304 0038 2046     		mov	r0, r4
 2305 003a 0E22     		movs	r2, #14
 2306 003c 0021     		movs	r1, #0
 2307 003e FFF7FEFF 		bl	_ZN5daisy21OneBitGraphicsDisplay9SetCursorEtt
 2308              	.LVL186:
  83:Display.cpp   ****     display_.WriteString(key, Font_11x18, true);
 2309              		.loc 4 83 5 is_stmt 1 view .LVU485
  83:Display.cpp   ****     display_.WriteString(key, Font_11x18, true);
 2310              		.loc 4 83 25 is_stmt 0 view .LVU486
 2311 0042 244B     		ldr	r3, .L73+8
 2312 0044 5146     		mov	r1, r10
 2313 0046 0097     		str	r7, [sp]
 2314 0048 2046     		mov	r0, r4
 2315 004a 0CCB     		ldm	r3, {r2, r3}
 2316 004c FFF7FEFF 		bl	_ZN5daisy25OneBitGraphicsDisplayImplINS_11OledDisplayINS_13SSD130xDriverILj128ELj64ENS_24SSD130
 2317              	.LVL187:
  86:Display.cpp   ****     char nameBuf[20];
 2318              		.loc 4 86 5 is_stmt 1 view .LVU487
  87:Display.cpp   ****     strncpy(nameBuf, name, 19);
 2319              		.loc 4 87 5 view .LVU488
  87:Display.cpp   ****     strncpy(nameBuf, name, 19);
 2320              		.loc 4 87 12 is_stmt 0 view .LVU489
 2321 0050 4146     		mov	r1, r8
  88:Display.cpp   ****     nameBuf[19] = '\0';
 2322              		.loc 4 88 17 view .LVU490
 2323 0052 4FF00008 		mov	r8, #0
 2324              	.LVL188:
  87:Display.cpp   ****     strncpy(nameBuf, name, 19);
 2325              		.loc 4 87 12 view .LVU491
 2326 0056 1322     		movs	r2, #19
 2327 0058 03A8     		add	r0, sp, #12
 2328 005a FFF7FEFF 		bl	strncpy
 2329              	.LVL189:
  88:Display.cpp   ****     nameBuf[19] = '\0';
 2330              		.loc 4 88 5 is_stmt 1 view .LVU492
  89:Display.cpp   ****     display_.SetCursor(0, 35);
 2331              		.loc 4 89 23 is_stmt 0 view .LVU493
 2332 005e 4146     		mov	r1, r8
 2333 0060 2046     		mov	r0, r4
 2334 0062 2322     		movs	r2, #35
  88:Display.cpp   ****     nameBuf[19] = '\0';
 2335              		.loc 4 88 17 view .LVU494
 2336 0064 8DF81F80 		strb	r8, [sp, #31]
  89:Display.cpp   ****     display_.SetCursor(0, 35);
 2337              		.loc 4 89 5 is_stmt 1 view .LVU495
  89:Display.cpp   ****     display_.SetCursor(0, 35);
 2338              		.loc 4 89 23 is_stmt 0 view .LVU496
 2339 0068 FFF7FEFF 		bl	_ZN5daisy21OneBitGraphicsDisplay9SetCursorEtt
 2340              	.LVL190:
  90:Display.cpp   ****     display_.WriteString(nameBuf, Font_7x10, true);
ARM GAS  C:\Users\danig\AppData\Local\Temp\cczbxOjJ.s 			page 72


 2341              		.loc 4 90 5 is_stmt 1 view .LVU497
  90:Display.cpp   ****     display_.WriteString(nameBuf, Font_7x10, true);
 2342              		.loc 4 90 25 is_stmt 0 view .LVU498
 2343 006c 1A4B     		ldr	r3, .L73+12
 2344 006e 03A9     		add	r1, sp, #12
 2345 0070 0097     		str	r7, [sp]
 2346 0072 2046     		mov	r0, r4
 2347 0074 0CCB     		ldm	r3, {r2, r3}
 2348 0076 FFF7FEFF 		bl	_ZN5daisy25OneBitGraphicsDisplayImplINS_11OledDisplayINS_13SSD130xDriverILj128ELj64ENS_24SSD130
 2349              	.LVL191:
  93:Display.cpp   ****     char idxBuf[24];
 2350              		.loc 4 93 5 is_stmt 1 view .LVU499
  94:Display.cpp   ****     snprintf(idxBuf, sizeof(idxBuf), "%d/%d", index + 1, total);
 2351              		.loc 4 94 5 view .LVU500
  94:Display.cpp   ****     snprintf(idxBuf, sizeof(idxBuf), "%d/%d", index + 1, total);
 2352              		.loc 4 94 13 is_stmt 0 view .LVU501
 2353 007a 169B     		ldr	r3, [sp, #88]
 2354 007c 174A     		ldr	r2, .L73+16
 2355 007e 1821     		movs	r1, #24
 2356 0080 0093     		str	r3, [sp]
 2357 0082 08A8     		add	r0, sp, #32
 2358 0084 09EB0703 		add	r3, r9, r7
 2359 0088 FFF7FEFF 		bl	snprintf
 2360              	.LVL192:
  95:Display.cpp   ****     display_.SetCursor(90, 56);
 2361              		.loc 4 95 5 is_stmt 1 view .LVU502
  95:Display.cpp   ****     display_.SetCursor(90, 56);
 2362              		.loc 4 95 23 is_stmt 0 view .LVU503
 2363 008c 2046     		mov	r0, r4
 2364 008e 3822     		movs	r2, #56
 2365 0090 5A21     		movs	r1, #90
 2366 0092 FFF7FEFF 		bl	_ZN5daisy21OneBitGraphicsDisplay9SetCursorEtt
 2367              	.LVL193:
  96:Display.cpp   ****     display_.WriteString(idxBuf, Font_6x8, true);
 2368              		.loc 4 96 5 is_stmt 1 view .LVU504
  96:Display.cpp   ****     display_.WriteString(idxBuf, Font_6x8, true);
 2369              		.loc 4 96 25 is_stmt 0 view .LVU505
 2370 0096 08A9     		add	r1, sp, #32
 2371 0098 2046     		mov	r0, r4
 2372 009a 0097     		str	r7, [sp]
 2373 009c 95E80C00 		ldm	r5, {r2, r3}
 2374 00a0 FFF7FEFF 		bl	_ZN5daisy25OneBitGraphicsDisplayImplINS_11OledDisplayINS_13SSD130xDriverILj128ELj64ENS_24SSD130
 2375              	.LVL194:
  98:Display.cpp   ****     display_.SetCursor(0, 56);
 2376              		.loc 4 98 5 is_stmt 1 view .LVU506
  98:Display.cpp   ****     display_.SetCursor(0, 56);
 2377              		.loc 4 98 23 is_stmt 0 view .LVU507
 2378 00a4 4146     		mov	r1, r8
 2379 00a6 2046     		mov	r0, r4
 2380 00a8 3822     		movs	r2, #56
 2381 00aa FFF7FEFF 		bl	_ZN5daisy21OneBitGraphicsDisplay9SetCursorEtt
 2382              	.LVL195:
  99:Display.cpp   ****     display_.WriteString("HOLD=OK", Font_6x8, true);
 2383              		.loc 4 99 5 is_stmt 1 view .LVU508
  99:Display.cpp   ****     display_.WriteString("HOLD=OK", Font_6x8, true);
 2384              		.loc 4 99 25 is_stmt 0 view .LVU509
 2385 00ae 0C49     		ldr	r1, .L73+20
ARM GAS  C:\Users\danig\AppData\Local\Temp\cczbxOjJ.s 			page 73


 2386 00b0 2046     		mov	r0, r4
 2387 00b2 0097     		str	r7, [sp]
 2388 00b4 95E80C00 		ldm	r5, {r2, r3}
 2389 00b8 FFF7FEFF 		bl	_ZN5daisy25OneBitGraphicsDisplayImplINS_11OledDisplayINS_13SSD130xDriverILj128ELj64ENS_24SSD130
 2390              	.LVL196:
 101:Display.cpp   ****     display_.Update();
 2391              		.loc 4 101 5 is_stmt 1 view .LVU510
 2392              	.LBB523:
 2393              	.LBI523:
  51:../../libDaisy//src/hid/disp/oled_display.h **** 
 2394              		.loc 1 51 10 view .LVU511
 2395              	.LBB524:
  51:../../libDaisy//src/hid/disp/oled_display.h **** 
 2396              		.loc 1 51 44 is_stmt 0 view .LVU512
 2397 00bc 06F10C00 		add	r0, r6, #12
 2398 00c0 FFF7FEFF 		bl	_ZN5daisy13SSD130xDriverILj128ELj64ENS_24SSD130x4WireSpiTransportEE6UpdateEv
 2399              	.LVL197:
  51:../../libDaisy//src/hid/disp/oled_display.h **** 
 2400              		.loc 1 51 44 view .LVU513
 2401              	.LBE524:
 2402              	.LBE523:
 102:Display.cpp   **** }
 2403              		.loc 4 102 1 view .LVU514
 2404 00c4 0EB0     		add	sp, sp, #56
 2405              		.cfi_def_cfa_offset 32
 2406              		@ sp needed
 2407 00c6 BDE8F087 		pop	{r4, r5, r6, r7, r8, r9, r10, pc}
 2408              	.LVL198:
 2409              	.L74:
 102:Display.cpp   **** }
 2410              		.loc 4 102 1 view .LVU515
 2411 00ca 00BF     		.align	2
 2412              	.L73:
 2413 00cc 00000000 		.word	Font_6x8
 2414 00d0 00000000 		.word	.LC9
 2415 00d4 00000000 		.word	Font_11x18
 2416 00d8 00000000 		.word	Font_7x10
 2417 00dc 00000000 		.word	.LC3
 2418 00e0 0B000000 		.word	.LC10
 2419              		.cfi_endproc
 2420              	.LFE2799:
 2422              		.section	.text._ZN5daisy25OneBitGraphicsDisplayImplINS_11OledDisplayINS_13SSD130xDriverILj128ELj64
 2423              		.align	1
 2424              		.weak	_ZN5daisy25OneBitGraphicsDisplayImplINS_11OledDisplayINS_13SSD130xDriverILj128ELj64ENS_24SSD
 2425              		.syntax unified
 2426              		.thumb
 2427              		.thumb_func
 2428              		.fpu fpv5-d16
 2430              	_ZN5daisy25OneBitGraphicsDisplayImplINS_11OledDisplayINS_13SSD130xDriverILj128ELj64ENS_24SSD130x4Wi
 2431              	.LVL199:
 2432              	.LFB2857:
 464:../../libDaisy//src/hid/disp/display.h **** 
 465:../../libDaisy//src/hid/disp/display.h ****     Rectangle WriteStringAligned(const char*    str,
 2433              		.loc 2 465 15 is_stmt 1 view -0
 2434              		.cfi_startproc
 2435              		@ args = 12, pretend = 0, frame = 8
 2436              		@ frame_needed = 0, uses_anonymous_args = 0
ARM GAS  C:\Users\danig\AppData\Local\Temp\cczbxOjJ.s 			page 74


 2437              		.loc 2 465 15 is_stmt 0 view .LVU517
 2438 0000 2DE9F043 		push	{r4, r5, r6, r7, r8, r9, lr}
 2439              		.cfi_def_cfa_offset 28
 2440              		.cfi_offset 4, -28
 2441              		.cfi_offset 5, -24
 2442              		.cfi_offset 6, -20
 2443              		.cfi_offset 7, -16
 2444              		.cfi_offset 8, -12
 2445              		.cfi_offset 9, -8
 2446              		.cfi_offset 14, -4
 2447 0004 9146     		mov	r9, r2
 2448 0006 85B0     		sub	sp, sp, #20
 2449              		.cfi_def_cfa_offset 48
 2450              		.loc 2 465 15 view .LVU518
 2451 0008 0446     		mov	r4, r0
 2452 000a 9846     		mov	r8, r3
 2453 000c 0846     		mov	r0, r1
 2454              	.LVL200:
 2455              	.LBB623:
 2456              	.LBI623:
 466:../../libDaisy//src/hid/disp/display.h ****                                  const FontDef& font,
 467:../../libDaisy//src/hid/disp/display.h ****                                  Rectangle      boundingBox,
 468:../../libDaisy//src/hid/disp/display.h ****                                  Alignment      alignment,
 469:../../libDaisy//src/hid/disp/display.h ****                                  bool           on) override
 470:../../libDaisy//src/hid/disp/display.h ****     {
 471:../../libDaisy//src/hid/disp/display.h ****         const auto alignedRect
 472:../../libDaisy//src/hid/disp/display.h ****             = GetTextRect(str, font).AlignedWithin(boundingBox, alignment);
 473:../../libDaisy//src/hid/disp/display.h ****         SetCursor(alignedRect.GetX(), alignedRect.GetY());
 474:../../libDaisy//src/hid/disp/display.h ****         ((ChildType*)(this))->ChildType::WriteString(str, font, on);
 475:../../libDaisy//src/hid/disp/display.h ****         return alignedRect;
 476:../../libDaisy//src/hid/disp/display.h ****     }
 477:../../libDaisy//src/hid/disp/display.h **** 
 478:../../libDaisy//src/hid/disp/display.h ****   private:
 479:../../libDaisy//src/hid/disp/display.h ****     uint32_t strlen(const char* string)
 480:../../libDaisy//src/hid/disp/display.h ****     {
 481:../../libDaisy//src/hid/disp/display.h ****         uint32_t result = 0;
 482:../../libDaisy//src/hid/disp/display.h ****         while(*string++ != '\0')
 483:../../libDaisy//src/hid/disp/display.h ****             result++;
 484:../../libDaisy//src/hid/disp/display.h ****         return result;
 485:../../libDaisy//src/hid/disp/display.h ****     }
 486:../../libDaisy//src/hid/disp/display.h **** 
 487:../../libDaisy//src/hid/disp/display.h ****     Rectangle GetTextRect(const char* text, const FontDef& font)
 2457              		.loc 2 487 15 is_stmt 1 view .LVU519
 2458              	.LBB624:
 2459              	.LBB625:
 2460              	.LBI625:
 479:../../libDaisy//src/hid/disp/display.h ****     {
 2461              		.loc 2 479 14 view .LVU520
 2462              	.LBE625:
 2463              	.LBE624:
 2464              	.LBE623:
 465:../../libDaisy//src/hid/disp/display.h ****                                  const FontDef& font,
 2465              		.loc 2 465 15 is_stmt 0 view .LVU521
 2466 000e 4B46     		mov	r3, r9
 2467              	.LVL201:
 465:../../libDaisy//src/hid/disp/display.h ****                                  const FontDef& font,
 2468              		.loc 2 465 15 view .LVU522
ARM GAS  C:\Users\danig\AppData\Local\Temp\cczbxOjJ.s 			page 75


 2469 0010 DDE90C52 		ldrd	r5, r2, [sp, #48]
 2470              	.LVL202:
 2471              	.L76:
 465:../../libDaisy//src/hid/disp/display.h ****                                  const FontDef& font,
 2472              		.loc 2 465 15 view .LVU523
 2473 0014 A3EB090C 		sub	ip, r3, r9
 2474              	.LVL203:
 2475              	.LBB634:
 2476              	.LBB632:
 2477              	.LBB627:
 2478              	.LBB626:
 482:../../libDaisy//src/hid/disp/display.h ****             result++;
 2479              		.loc 2 482 25 is_stmt 1 view .LVU524
 482:../../libDaisy//src/hid/disp/display.h ****             result++;
 2480              		.loc 2 482 25 is_stmt 0 view .LVU525
 2481 0018 13F8011B 		ldrb	r1, [r3], #1	@ zero_extendqisi2
 2482              	.LVL204:
 482:../../libDaisy//src/hid/disp/display.h ****             result++;
 2483              		.loc 2 482 25 view .LVU526
 2484 001c 0029     		cmp	r1, #0
 2485 001e F9D1     		bne	.L76
 2486              	.LVL205:
 482:../../libDaisy//src/hid/disp/display.h ****             result++;
 2487              		.loc 2 482 25 view .LVU527
 2488              	.LBE626:
 2489              	.LBE627:
 488:../../libDaisy//src/hid/disp/display.h ****     {
 489:../../libDaisy//src/hid/disp/display.h ****         const auto numChars = strlen(text);
 490:../../libDaisy//src/hid/disp/display.h ****         return {int16_t(numChars * font.FontWidth), font.FontHeight};
 2490              		.loc 2 490 68 view .LVU528
 2491 0020 98F80060 		ldrb	r6, [r8]	@ zero_extendqisi2
 2492              		.loc 2 490 58 view .LVU529
 2493 0024 98F80110 		ldrb	r1, [r8, #1]	@ zero_extendqisi2
 2494              		.loc 2 490 68 view .LVU530
 2495 0028 16FB0CF6 		smulbb	r6, r6, ip
 2496 002c 0F46     		mov	r7, r1
 2497              	.LVL206:
 2498              	.LBB628:
 2499              	.LBI628:
 2500              		.file 8 "../../libDaisy//src/hid/disp/graphics_common.h"
   1:../../libDaisy//src/hid/disp/graphics_common.h **** #pragma once
   2:../../libDaisy//src/hid/disp/graphics_common.h **** 
   3:../../libDaisy//src/hid/disp/graphics_common.h **** #include <cstdint>
   4:../../libDaisy//src/hid/disp/graphics_common.h **** 
   5:../../libDaisy//src/hid/disp/graphics_common.h **** namespace daisy
   6:../../libDaisy//src/hid/disp/graphics_common.h **** {
   7:../../libDaisy//src/hid/disp/graphics_common.h **** /** Justifications */
   8:../../libDaisy//src/hid/disp/graphics_common.h **** enum class Alignment
   9:../../libDaisy//src/hid/disp/graphics_common.h **** {
  10:../../libDaisy//src/hid/disp/graphics_common.h ****     centered,
  11:../../libDaisy//src/hid/disp/graphics_common.h ****     topLeft,
  12:../../libDaisy//src/hid/disp/graphics_common.h ****     topCentered,
  13:../../libDaisy//src/hid/disp/graphics_common.h ****     topRight,
  14:../../libDaisy//src/hid/disp/graphics_common.h ****     bottomLeft,
  15:../../libDaisy//src/hid/disp/graphics_common.h ****     bottomCentered,
  16:../../libDaisy//src/hid/disp/graphics_common.h ****     bottomRight,
  17:../../libDaisy//src/hid/disp/graphics_common.h ****     centeredLeft,
ARM GAS  C:\Users\danig\AppData\Local\Temp\cczbxOjJ.s 			page 76


  18:../../libDaisy//src/hid/disp/graphics_common.h ****     centeredRight
  19:../../libDaisy//src/hid/disp/graphics_common.h **** };
  20:../../libDaisy//src/hid/disp/graphics_common.h **** 
  21:../../libDaisy//src/hid/disp/graphics_common.h **** class Rectangle
  22:../../libDaisy//src/hid/disp/graphics_common.h **** {
  23:../../libDaisy//src/hid/disp/graphics_common.h ****   public:
  24:../../libDaisy//src/hid/disp/graphics_common.h ****     Rectangle() : x_(0), y_(0), width_(0), height_(0) {}
  25:../../libDaisy//src/hid/disp/graphics_common.h **** 
  26:../../libDaisy//src/hid/disp/graphics_common.h ****     Rectangle(int16_t width, int16_t height)
 2501              		.loc 8 26 5 is_stmt 1 view .LVU531
 2502              	.LBB629:
 2503              	.LBI629:
  27:../../libDaisy//src/hid/disp/graphics_common.h ****     : x_(0), y_(0), width_(max(0, width)), height_(max(0, height))
  28:../../libDaisy//src/hid/disp/graphics_common.h ****     {
  29:../../libDaisy//src/hid/disp/graphics_common.h ****     }
  30:../../libDaisy//src/hid/disp/graphics_common.h **** 
  31:../../libDaisy//src/hid/disp/graphics_common.h ****     Rectangle(int16_t x, int16_t y, int16_t width, int16_t height)
  32:../../libDaisy//src/hid/disp/graphics_common.h ****     : x_(x), y_(y), width_(max(0, width)), height_(max(0, height))
  33:../../libDaisy//src/hid/disp/graphics_common.h ****     {
  34:../../libDaisy//src/hid/disp/graphics_common.h ****     }
  35:../../libDaisy//src/hid/disp/graphics_common.h **** 
  36:../../libDaisy//src/hid/disp/graphics_common.h ****     Rectangle(const Rectangle& other) { *this = other; }
  37:../../libDaisy//src/hid/disp/graphics_common.h **** 
  38:../../libDaisy//src/hid/disp/graphics_common.h ****     Rectangle& operator=(const Rectangle& other)
  39:../../libDaisy//src/hid/disp/graphics_common.h ****     {
  40:../../libDaisy//src/hid/disp/graphics_common.h ****         x_      = other.x_;
  41:../../libDaisy//src/hid/disp/graphics_common.h ****         y_      = other.y_;
  42:../../libDaisy//src/hid/disp/graphics_common.h ****         width_  = other.width_;
  43:../../libDaisy//src/hid/disp/graphics_common.h ****         height_ = other.height_;
  44:../../libDaisy//src/hid/disp/graphics_common.h ****         return *this;
  45:../../libDaisy//src/hid/disp/graphics_common.h ****     }
  46:../../libDaisy//src/hid/disp/graphics_common.h **** 
  47:../../libDaisy//src/hid/disp/graphics_common.h ****     bool operator==(const Rectangle& other) const
  48:../../libDaisy//src/hid/disp/graphics_common.h ****     {
  49:../../libDaisy//src/hid/disp/graphics_common.h ****         return (x_ == other.x_) && (y_ == other.y_) && (width_ == other.width_)
  50:../../libDaisy//src/hid/disp/graphics_common.h ****                && (height_ == other.height_);
  51:../../libDaisy//src/hid/disp/graphics_common.h ****     }
  52:../../libDaisy//src/hid/disp/graphics_common.h ****     bool operator!=(const Rectangle& other) const { return !(*this == other); }
  53:../../libDaisy//src/hid/disp/graphics_common.h **** 
  54:../../libDaisy//src/hid/disp/graphics_common.h ****     bool IsEmpty() const { return (width_ <= 0) || (height_ <= 0); }
  55:../../libDaisy//src/hid/disp/graphics_common.h **** 
  56:../../libDaisy//src/hid/disp/graphics_common.h ****     int16_t GetX() const { return x_; }
  57:../../libDaisy//src/hid/disp/graphics_common.h ****     int16_t GetY() const { return y_; }
  58:../../libDaisy//src/hid/disp/graphics_common.h ****     int16_t GetWidth() const { return width_; }
  59:../../libDaisy//src/hid/disp/graphics_common.h ****     int16_t GetHeight() const { return height_; }
  60:../../libDaisy//src/hid/disp/graphics_common.h ****     int16_t GetRight() const { return x_ + width_; }
  61:../../libDaisy//src/hid/disp/graphics_common.h ****     int16_t GetBottom() const { return y_ + height_; }
  62:../../libDaisy//src/hid/disp/graphics_common.h ****     int16_t GetCenterX() const { return x_ + width_ / 2; }
  63:../../libDaisy//src/hid/disp/graphics_common.h ****     int16_t GetCenterY() const { return y_ + height_ / 2; }
  64:../../libDaisy//src/hid/disp/graphics_common.h **** 
  65:../../libDaisy//src/hid/disp/graphics_common.h ****     Rectangle WithX(int16_t x) const { return {x, y_, width_, height_}; }
  66:../../libDaisy//src/hid/disp/graphics_common.h ****     Rectangle WithY(int16_t y) const { return {x_, y, width_, height_}; }
  67:../../libDaisy//src/hid/disp/graphics_common.h ****     Rectangle WithWidth(int16_t width) const
  68:../../libDaisy//src/hid/disp/graphics_common.h ****     {
  69:../../libDaisy//src/hid/disp/graphics_common.h ****         return {x_, y_, width, height_};
  70:../../libDaisy//src/hid/disp/graphics_common.h ****     }
  71:../../libDaisy//src/hid/disp/graphics_common.h ****     Rectangle WithHeight(int16_t height) const
ARM GAS  C:\Users\danig\AppData\Local\Temp\cczbxOjJ.s 			page 77


  72:../../libDaisy//src/hid/disp/graphics_common.h ****     {
  73:../../libDaisy//src/hid/disp/graphics_common.h ****         return {x_, y_, width_, height};
  74:../../libDaisy//src/hid/disp/graphics_common.h ****     }
  75:../../libDaisy//src/hid/disp/graphics_common.h ****     Rectangle WithSize(int16_t width, int16_t height) const
  76:../../libDaisy//src/hid/disp/graphics_common.h ****     {
  77:../../libDaisy//src/hid/disp/graphics_common.h ****         return {x_, y_, width, height};
  78:../../libDaisy//src/hid/disp/graphics_common.h ****     }
  79:../../libDaisy//src/hid/disp/graphics_common.h ****     Rectangle WithWidthKeepingCenter(int16_t width) const
  80:../../libDaisy//src/hid/disp/graphics_common.h ****     {
  81:../../libDaisy//src/hid/disp/graphics_common.h ****         return Rectangle(x_, y_, width, height_)
  82:../../libDaisy//src/hid/disp/graphics_common.h ****             .WithCenter(GetCenterX(), GetCenterY());
  83:../../libDaisy//src/hid/disp/graphics_common.h ****     }
  84:../../libDaisy//src/hid/disp/graphics_common.h ****     Rectangle WithHeightKeepingCenter(int16_t height) const
  85:../../libDaisy//src/hid/disp/graphics_common.h ****     {
  86:../../libDaisy//src/hid/disp/graphics_common.h ****         return Rectangle(x_, y_, width_, height)
  87:../../libDaisy//src/hid/disp/graphics_common.h ****             .WithCenter(GetCenterX(), GetCenterY());
  88:../../libDaisy//src/hid/disp/graphics_common.h ****     }
  89:../../libDaisy//src/hid/disp/graphics_common.h ****     Rectangle WithSizeKeepingCenter(int16_t width, int16_t height) const
  90:../../libDaisy//src/hid/disp/graphics_common.h ****     {
  91:../../libDaisy//src/hid/disp/graphics_common.h ****         return Rectangle(x_, y_, width, height)
  92:../../libDaisy//src/hid/disp/graphics_common.h ****             .WithCenter(GetCenterX(), GetCenterY());
  93:../../libDaisy//src/hid/disp/graphics_common.h ****     }
  94:../../libDaisy//src/hid/disp/graphics_common.h **** 
  95:../../libDaisy//src/hid/disp/graphics_common.h ****     Rectangle Reduced(int16_t sizeToReduce) const
  96:../../libDaisy//src/hid/disp/graphics_common.h ****     {
  97:../../libDaisy//src/hid/disp/graphics_common.h ****         return {int16_t(x_ + sizeToReduce),
  98:../../libDaisy//src/hid/disp/graphics_common.h ****                 int16_t(y_ + sizeToReduce),
  99:../../libDaisy//src/hid/disp/graphics_common.h ****                 int16_t(width_ - 2 * sizeToReduce),
 100:../../libDaisy//src/hid/disp/graphics_common.h ****                 int16_t(height_ - 2 * sizeToReduce)};
 101:../../libDaisy//src/hid/disp/graphics_common.h ****     }
 102:../../libDaisy//src/hid/disp/graphics_common.h ****     Rectangle Reduced(int16_t xToReduce, int16_t yToReduce) const
 103:../../libDaisy//src/hid/disp/graphics_common.h ****     {
 104:../../libDaisy//src/hid/disp/graphics_common.h ****         return {int16_t(x_ + xToReduce),
 105:../../libDaisy//src/hid/disp/graphics_common.h ****                 int16_t(y_ + yToReduce),
 106:../../libDaisy//src/hid/disp/graphics_common.h ****                 int16_t(width_ - 2 * xToReduce),
 107:../../libDaisy//src/hid/disp/graphics_common.h ****                 int16_t(height_ - 2 * yToReduce)};
 108:../../libDaisy//src/hid/disp/graphics_common.h ****     }
 109:../../libDaisy//src/hid/disp/graphics_common.h **** 
 110:../../libDaisy//src/hid/disp/graphics_common.h ****     Rectangle Translated(int16_t x, int16_t y) const
 111:../../libDaisy//src/hid/disp/graphics_common.h ****     {
 112:../../libDaisy//src/hid/disp/graphics_common.h ****         return {int16_t(x_ + x), int16_t(y_ + y), width_, height_};
 113:../../libDaisy//src/hid/disp/graphics_common.h ****     }
 114:../../libDaisy//src/hid/disp/graphics_common.h **** 
 115:../../libDaisy//src/hid/disp/graphics_common.h ****     Rectangle WithLeft(int16_t left) const
 116:../../libDaisy//src/hid/disp/graphics_common.h ****     {
 117:../../libDaisy//src/hid/disp/graphics_common.h ****         const auto newWidth = int16_t((x_ - left) + width_);
 118:../../libDaisy//src/hid/disp/graphics_common.h ****         return {left, y_, newWidth, height_};
 119:../../libDaisy//src/hid/disp/graphics_common.h ****     }
 120:../../libDaisy//src/hid/disp/graphics_common.h **** 
 121:../../libDaisy//src/hid/disp/graphics_common.h ****     Rectangle WithRight(int16_t right) const
 122:../../libDaisy//src/hid/disp/graphics_common.h ****     {
 123:../../libDaisy//src/hid/disp/graphics_common.h ****         const auto newWidth = int16_t(right - x_);
 124:../../libDaisy//src/hid/disp/graphics_common.h ****         return {x_, y_, newWidth, height_};
 125:../../libDaisy//src/hid/disp/graphics_common.h ****     }
 126:../../libDaisy//src/hid/disp/graphics_common.h **** 
 127:../../libDaisy//src/hid/disp/graphics_common.h ****     Rectangle WithTop(int16_t top) const
 128:../../libDaisy//src/hid/disp/graphics_common.h ****     {
ARM GAS  C:\Users\danig\AppData\Local\Temp\cczbxOjJ.s 			page 78


 129:../../libDaisy//src/hid/disp/graphics_common.h ****         const auto newHeight = int16_t((y_ - top) + height_);
 130:../../libDaisy//src/hid/disp/graphics_common.h ****         return {x_, top, width_, newHeight};
 131:../../libDaisy//src/hid/disp/graphics_common.h ****     }
 132:../../libDaisy//src/hid/disp/graphics_common.h **** 
 133:../../libDaisy//src/hid/disp/graphics_common.h ****     Rectangle WithBottom(int16_t bottom) const
 134:../../libDaisy//src/hid/disp/graphics_common.h ****     {
 135:../../libDaisy//src/hid/disp/graphics_common.h ****         const auto newHeight = int16_t(bottom - y_);
 136:../../libDaisy//src/hid/disp/graphics_common.h ****         return {x_, y_, width_, newHeight};
 137:../../libDaisy//src/hid/disp/graphics_common.h ****     }
 138:../../libDaisy//src/hid/disp/graphics_common.h **** 
 139:../../libDaisy//src/hid/disp/graphics_common.h ****     Rectangle WithTrimmedLeft(int16_t pxToTrim) const
 140:../../libDaisy//src/hid/disp/graphics_common.h ****     {
 141:../../libDaisy//src/hid/disp/graphics_common.h ****         return {
 142:../../libDaisy//src/hid/disp/graphics_common.h ****             int16_t(x_ + pxToTrim), y_, int16_t(width_ - pxToTrim), height_};
 143:../../libDaisy//src/hid/disp/graphics_common.h ****     }
 144:../../libDaisy//src/hid/disp/graphics_common.h **** 
 145:../../libDaisy//src/hid/disp/graphics_common.h ****     Rectangle WithTrimmedRight(int16_t pxToTrim) const
 146:../../libDaisy//src/hid/disp/graphics_common.h ****     {
 147:../../libDaisy//src/hid/disp/graphics_common.h ****         return {x_, y_, int16_t(width_ - pxToTrim), height_};
 148:../../libDaisy//src/hid/disp/graphics_common.h ****     }
 149:../../libDaisy//src/hid/disp/graphics_common.h **** 
 150:../../libDaisy//src/hid/disp/graphics_common.h ****     Rectangle WithTrimmedTop(int16_t pxToTrim) const
 151:../../libDaisy//src/hid/disp/graphics_common.h ****     {
 152:../../libDaisy//src/hid/disp/graphics_common.h ****         return {
 153:../../libDaisy//src/hid/disp/graphics_common.h ****             x_, int16_t(y_ + pxToTrim), width_, int16_t(height_ - pxToTrim)};
 154:../../libDaisy//src/hid/disp/graphics_common.h ****     }
 155:../../libDaisy//src/hid/disp/graphics_common.h **** 
 156:../../libDaisy//src/hid/disp/graphics_common.h ****     Rectangle WithTrimmedBottom(int16_t pxToTrim) const
 157:../../libDaisy//src/hid/disp/graphics_common.h ****     {
 158:../../libDaisy//src/hid/disp/graphics_common.h ****         return {x_, y_, width_, int16_t(height_ - pxToTrim)};
 159:../../libDaisy//src/hid/disp/graphics_common.h ****     }
 160:../../libDaisy//src/hid/disp/graphics_common.h **** 
 161:../../libDaisy//src/hid/disp/graphics_common.h ****     Rectangle WithCenterX(int16_t centerX) const
 162:../../libDaisy//src/hid/disp/graphics_common.h ****     {
