ARM GAS  C:\Users\danig\AppData\Local\Temp\ccGhRbic.s 			page 1


   1              		.cpu cortex-m7
   2              		.eabi_attribute 28, 1
   3              		.eabi_attribute 20, 1
   4              		.eabi_attribute 21, 1
   5              		.eabi_attribute 23, 3
   6              		.eabi_attribute 24, 1
   7              		.eabi_attribute 25, 1
   8              		.eabi_attribute 26, 1
   9              		.eabi_attribute 30, 4
  10              		.eabi_attribute 34, 1
  11              		.eabi_attribute 18, 4
  12              		.file	"ff.c"
  13              		.text
  14              	.Ltext0:
  15              		.cfi_sections	.debug_frame
  16              		.section	.text.ld_dword,"ax",%progbits
  17              		.align	1
  18              		.arch armv7e-m
  19              		.syntax unified
  20              		.thumb
  21              		.thumb_func
  22              		.fpu fpv5-d16
  24              	ld_dword:
  25              	.LVL0:
  26              	.LFB338:
  27              		.file 1 "../../libDaisy//Middlewares/Third_Party/FatFs/src/ff.c"
   1:../../libDaisy//Middlewares/Third_Party/FatFs/src/ff.c **** /*----------------------------------------------------------------------------/
   2:../../libDaisy//Middlewares/Third_Party/FatFs/src/ff.c **** /  FatFs - Generic FAT file system module  R0.12c                             /
   3:../../libDaisy//Middlewares/Third_Party/FatFs/src/ff.c **** /-----------------------------------------------------------------------------/
   4:../../libDaisy//Middlewares/Third_Party/FatFs/src/ff.c **** /
   5:../../libDaisy//Middlewares/Third_Party/FatFs/src/ff.c **** / Copyright (C) 2017, ChaN, all right reserved.
   6:../../libDaisy//Middlewares/Third_Party/FatFs/src/ff.c **** /
   7:../../libDaisy//Middlewares/Third_Party/FatFs/src/ff.c **** / FatFs module is an open source software. Redistribution and use of FatFs in
   8:../../libDaisy//Middlewares/Third_Party/FatFs/src/ff.c **** / source and binary forms, with or without modification, are permitted provided
   9:../../libDaisy//Middlewares/Third_Party/FatFs/src/ff.c **** / that the following condition is met:
  10:../../libDaisy//Middlewares/Third_Party/FatFs/src/ff.c **** /
  11:../../libDaisy//Middlewares/Third_Party/FatFs/src/ff.c **** / 1. Redistributions of source code must retain the above copyright notice,
  12:../../libDaisy//Middlewares/Third_Party/FatFs/src/ff.c **** /    this condition and the following disclaimer.
  13:../../libDaisy//Middlewares/Third_Party/FatFs/src/ff.c **** /
  14:../../libDaisy//Middlewares/Third_Party/FatFs/src/ff.c **** / This software is provided by the copyright holder and contributors "AS IS"
  15:../../libDaisy//Middlewares/Third_Party/FatFs/src/ff.c **** / and any warranties related to this software are DISCLAIMED.
  16:../../libDaisy//Middlewares/Third_Party/FatFs/src/ff.c **** / The copyright owner or contributors be NOT LIABLE for any damages caused
  17:../../libDaisy//Middlewares/Third_Party/FatFs/src/ff.c **** / by use of this software.
  18:../../libDaisy//Middlewares/Third_Party/FatFs/src/ff.c **** /----------------------------------------------------------------------------*/
  19:../../libDaisy//Middlewares/Third_Party/FatFs/src/ff.c **** 
  20:../../libDaisy//Middlewares/Third_Party/FatFs/src/ff.c **** 
  21:../../libDaisy//Middlewares/Third_Party/FatFs/src/ff.c **** #include "ff.h"			/* Declarations of FatFs API */
  22:../../libDaisy//Middlewares/Third_Party/FatFs/src/ff.c **** #include "diskio.h"		/* Declarations of device I/O functions */
  23:../../libDaisy//Middlewares/Third_Party/FatFs/src/ff.c **** 
  24:../../libDaisy//Middlewares/Third_Party/FatFs/src/ff.c **** 
  25:../../libDaisy//Middlewares/Third_Party/FatFs/src/ff.c **** /*--------------------------------------------------------------------------
  26:../../libDaisy//Middlewares/Third_Party/FatFs/src/ff.c **** 
  27:../../libDaisy//Middlewares/Third_Party/FatFs/src/ff.c ****    Module Private Definitions
  28:../../libDaisy//Middlewares/Third_Party/FatFs/src/ff.c **** 
  29:../../libDaisy//Middlewares/Third_Party/FatFs/src/ff.c **** ---------------------------------------------------------------------------*/
  30:../../libDaisy//Middlewares/Third_Party/FatFs/src/ff.c **** 
  31:../../libDaisy//Middlewares/Third_Party/FatFs/src/ff.c **** #if _FATFS != 68300	/* Revision ID */
ARM GAS  C:\Users\danig\AppData\Local\Temp\ccGhRbic.s 			page 2


  32:../../libDaisy//Middlewares/Third_Party/FatFs/src/ff.c **** #error Wrong include file (ff.h).
  33:../../libDaisy//Middlewares/Third_Party/FatFs/src/ff.c **** #endif
  34:../../libDaisy//Middlewares/Third_Party/FatFs/src/ff.c **** 
  35:../../libDaisy//Middlewares/Third_Party/FatFs/src/ff.c **** 
  36:../../libDaisy//Middlewares/Third_Party/FatFs/src/ff.c **** /* DBCS code ranges and SBCS upper conversion tables */
  37:../../libDaisy//Middlewares/Third_Party/FatFs/src/ff.c **** 
  38:../../libDaisy//Middlewares/Third_Party/FatFs/src/ff.c **** #if _CODE_PAGE == 932	/* Japanese Shift-JIS */
  39:../../libDaisy//Middlewares/Third_Party/FatFs/src/ff.c **** #define _DF1S	0x81	/* DBC 1st byte range 1 start */
  40:../../libDaisy//Middlewares/Third_Party/FatFs/src/ff.c **** #define _DF1E	0x9F	/* DBC 1st byte range 1 end */
  41:../../libDaisy//Middlewares/Third_Party/FatFs/src/ff.c **** #define _DF2S	0xE0	/* DBC 1st byte range 2 start */
  42:../../libDaisy//Middlewares/Third_Party/FatFs/src/ff.c **** #define _DF2E	0xFC	/* DBC 1st byte range 2 end */
  43:../../libDaisy//Middlewares/Third_Party/FatFs/src/ff.c **** #define _DS1S	0x40	/* DBC 2nd byte range 1 start */
  44:../../libDaisy//Middlewares/Third_Party/FatFs/src/ff.c **** #define _DS1E	0x7E	/* DBC 2nd byte range 1 end */
  45:../../libDaisy//Middlewares/Third_Party/FatFs/src/ff.c **** #define _DS2S	0x80	/* DBC 2nd byte range 2 start */
  46:../../libDaisy//Middlewares/Third_Party/FatFs/src/ff.c **** #define _DS2E	0xFC	/* DBC 2nd byte range 2 end */
  47:../../libDaisy//Middlewares/Third_Party/FatFs/src/ff.c **** 
  48:../../libDaisy//Middlewares/Third_Party/FatFs/src/ff.c **** #elif _CODE_PAGE == 936	/* Simplified Chinese GBK */
  49:../../libDaisy//Middlewares/Third_Party/FatFs/src/ff.c **** #define _DF1S	0x81
  50:../../libDaisy//Middlewares/Third_Party/FatFs/src/ff.c **** #define _DF1E	0xFE
  51:../../libDaisy//Middlewares/Third_Party/FatFs/src/ff.c **** #define _DS1S	0x40
  52:../../libDaisy//Middlewares/Third_Party/FatFs/src/ff.c **** #define _DS1E	0x7E
  53:../../libDaisy//Middlewares/Third_Party/FatFs/src/ff.c **** #define _DS2S	0x80
  54:../../libDaisy//Middlewares/Third_Party/FatFs/src/ff.c **** #define _DS2E	0xFE
  55:../../libDaisy//Middlewares/Third_Party/FatFs/src/ff.c **** 
  56:../../libDaisy//Middlewares/Third_Party/FatFs/src/ff.c **** #elif _CODE_PAGE == 949	/* Korean */
  57:../../libDaisy//Middlewares/Third_Party/FatFs/src/ff.c **** #define _DF1S	0x81
  58:../../libDaisy//Middlewares/Third_Party/FatFs/src/ff.c **** #define _DF1E	0xFE
  59:../../libDaisy//Middlewares/Third_Party/FatFs/src/ff.c **** #define _DS1S	0x41
  60:../../libDaisy//Middlewares/Third_Party/FatFs/src/ff.c **** #define _DS1E	0x5A
  61:../../libDaisy//Middlewares/Third_Party/FatFs/src/ff.c **** #define _DS2S	0x61
  62:../../libDaisy//Middlewares/Third_Party/FatFs/src/ff.c **** #define _DS2E	0x7A
  63:../../libDaisy//Middlewares/Third_Party/FatFs/src/ff.c **** #define _DS3S	0x81
  64:../../libDaisy//Middlewares/Third_Party/FatFs/src/ff.c **** #define _DS3E	0xFE
  65:../../libDaisy//Middlewares/Third_Party/FatFs/src/ff.c **** 
  66:../../libDaisy//Middlewares/Third_Party/FatFs/src/ff.c **** #elif _CODE_PAGE == 950	/* Traditional Chinese Big5 */
  67:../../libDaisy//Middlewares/Third_Party/FatFs/src/ff.c **** #define _DF1S	0x81
  68:../../libDaisy//Middlewares/Third_Party/FatFs/src/ff.c **** #define _DF1E	0xFE
  69:../../libDaisy//Middlewares/Third_Party/FatFs/src/ff.c **** #define _DS1S	0x40
  70:../../libDaisy//Middlewares/Third_Party/FatFs/src/ff.c **** #define _DS1E	0x7E
  71:../../libDaisy//Middlewares/Third_Party/FatFs/src/ff.c **** #define _DS2S	0xA1
  72:../../libDaisy//Middlewares/Third_Party/FatFs/src/ff.c **** #define _DS2E	0xFE
  73:../../libDaisy//Middlewares/Third_Party/FatFs/src/ff.c **** 
  74:../../libDaisy//Middlewares/Third_Party/FatFs/src/ff.c **** #elif _CODE_PAGE == 437	/* U.S. */
  75:../../libDaisy//Middlewares/Third_Party/FatFs/src/ff.c **** #define _DF1S	0
  76:../../libDaisy//Middlewares/Third_Party/FatFs/src/ff.c **** #define _EXCVT {0x80,0x9A,0x45,0x41,0x8E,0x41,0x8F,0x80,0x45,0x45,0x45,0x49,0x49,0x49,0x8E,0x8F, \
  77:../../libDaisy//Middlewares/Third_Party/FatFs/src/ff.c **** 				0x90,0x92,0x92,0x4F,0x99,0x4F,0x55,0x55,0x59,0x99,0x9A,0x9B,0x9C,0x9D,0x9E,0x9F, \
  78:../../libDaisy//Middlewares/Third_Party/FatFs/src/ff.c **** 				0x41,0x49,0x4F,0x55,0xA5,0xA5,0xA6,0xA7,0xA8,0xA9,0xAA,0xAB,0xAC,0xAD,0xAE,0xAF, \
  79:../../libDaisy//Middlewares/Third_Party/FatFs/src/ff.c **** 				0xB0,0xB1,0xB2,0xB3,0xB4,0xB5,0xB6,0xB7,0xB8,0xB9,0xBA,0xBB,0xBC,0xBD,0xBE,0xBF, \
  80:../../libDaisy//Middlewares/Third_Party/FatFs/src/ff.c **** 				0xC0,0xC1,0xC2,0xC3,0xC4,0xC5,0xC6,0xC7,0xC8,0xC9,0xCA,0xCB,0xCC,0xCD,0xCE,0xCF, \
  81:../../libDaisy//Middlewares/Third_Party/FatFs/src/ff.c **** 				0xD0,0xD1,0xD2,0xD3,0xD4,0xD5,0xD6,0xD7,0xD8,0xD9,0xDA,0xDB,0xDC,0xDD,0xDE,0xDF, \
  82:../../libDaisy//Middlewares/Third_Party/FatFs/src/ff.c **** 				0xE0,0xE1,0xE2,0xE3,0xE4,0xE5,0xE6,0xE7,0xE8,0xE9,0xEA,0xEB,0xEC,0xED,0xEE,0xEF, \
  83:../../libDaisy//Middlewares/Third_Party/FatFs/src/ff.c **** 				0xF0,0xF1,0xF2,0xF3,0xF4,0xF5,0xF6,0xF7,0xF8,0xF9,0xFA,0xFB,0xFC,0xFD,0xFE,0xFF}
  84:../../libDaisy//Middlewares/Third_Party/FatFs/src/ff.c **** 
  85:../../libDaisy//Middlewares/Third_Party/FatFs/src/ff.c **** #elif _CODE_PAGE == 720	/* Arabic */
  86:../../libDaisy//Middlewares/Third_Party/FatFs/src/ff.c **** #define _DF1S	0
  87:../../libDaisy//Middlewares/Third_Party/FatFs/src/ff.c **** #define _EXCVT {0x80,0x81,0x82,0x83,0x84,0x85,0x86,0x87,0x88,0x89,0x8A,0x8B,0x8C,0x8D,0x8E,0x8F, \
  88:../../libDaisy//Middlewares/Third_Party/FatFs/src/ff.c **** 				0x90,0x91,0x92,0x93,0x94,0x95,0x96,0x97,0x98,0x99,0x9A,0x9B,0x9C,0x9D,0x9E,0x9F, \
ARM GAS  C:\Users\danig\AppData\Local\Temp\ccGhRbic.s 			page 3


  89:../../libDaisy//Middlewares/Third_Party/FatFs/src/ff.c **** 				0xA0,0xA1,0xA2,0xA3,0xA4,0xA5,0xA6,0xA7,0xA8,0xA9,0xAA,0xAB,0xAC,0xAD,0xAE,0xAF, \
  90:../../libDaisy//Middlewares/Third_Party/FatFs/src/ff.c **** 				0xB0,0xB1,0xB2,0xB3,0xB4,0xB5,0xB6,0xB7,0xB8,0xB9,0xBA,0xBB,0xBC,0xBD,0xBE,0xBF, \
  91:../../libDaisy//Middlewares/Third_Party/FatFs/src/ff.c **** 				0xC0,0xC1,0xC2,0xC3,0xC4,0xC5,0xC6,0xC7,0xC8,0xC9,0xCA,0xCB,0xCC,0xCD,0xCE,0xCF, \
  92:../../libDaisy//Middlewares/Third_Party/FatFs/src/ff.c **** 				0xD0,0xD1,0xD2,0xD3,0xD4,0xD5,0xD6,0xD7,0xD8,0xD9,0xDA,0xDB,0xDC,0xDD,0xDE,0xDF, \
  93:../../libDaisy//Middlewares/Third_Party/FatFs/src/ff.c **** 				0xE0,0xE1,0xE2,0xE3,0xE4,0xE5,0xE6,0xE7,0xE8,0xE9,0xEA,0xEB,0xEC,0xED,0xEE,0xEF, \
  94:../../libDaisy//Middlewares/Third_Party/FatFs/src/ff.c **** 				0xF0,0xF1,0xF2,0xF3,0xF4,0xF5,0xF6,0xF7,0xF8,0xF9,0xFA,0xFB,0xFC,0xFD,0xFE,0xFF}
  95:../../libDaisy//Middlewares/Third_Party/FatFs/src/ff.c **** 
  96:../../libDaisy//Middlewares/Third_Party/FatFs/src/ff.c **** #elif _CODE_PAGE == 737	/* Greek */
  97:../../libDaisy//Middlewares/Third_Party/FatFs/src/ff.c **** #define _DF1S	0
  98:../../libDaisy//Middlewares/Third_Party/FatFs/src/ff.c **** #define _EXCVT {0x80,0x81,0x82,0x83,0x84,0x85,0x86,0x87,0x88,0x89,0x8A,0x8B,0x8C,0x8D,0x8E,0x8F, \
  99:../../libDaisy//Middlewares/Third_Party/FatFs/src/ff.c **** 				0x90,0x92,0x92,0x93,0x94,0x95,0x96,0x97,0x80,0x81,0x82,0x83,0x84,0x85,0x86,0x87, \
 100:../../libDaisy//Middlewares/Third_Party/FatFs/src/ff.c **** 				0x88,0x89,0x8A,0x8B,0x8C,0x8D,0x8E,0x8F,0x90,0x91,0xAA,0x92,0x93,0x94,0x95,0x96, \
 101:../../libDaisy//Middlewares/Third_Party/FatFs/src/ff.c **** 				0xB0,0xB1,0xB2,0xB3,0xB4,0xB5,0xB6,0xB7,0xB8,0xB9,0xBA,0xBB,0xBC,0xBD,0xBE,0xBF, \
 102:../../libDaisy//Middlewares/Third_Party/FatFs/src/ff.c **** 				0xC0,0xC1,0xC2,0xC3,0xC4,0xC5,0xC6,0xC7,0xC8,0xC9,0xCA,0xCB,0xCC,0xCD,0xCE,0xCF, \
 103:../../libDaisy//Middlewares/Third_Party/FatFs/src/ff.c **** 				0xD0,0xD1,0xD2,0xD3,0xD4,0xD5,0xD6,0xD7,0xD8,0xD9,0xDA,0xDB,0xDC,0xDD,0xDE,0xDF, \
 104:../../libDaisy//Middlewares/Third_Party/FatFs/src/ff.c **** 				0x97,0xEA,0xEB,0xEC,0xE4,0xED,0xEE,0xEF,0xF5,0xF0,0xEA,0xEB,0xEC,0xED,0xEE,0xEF, \
 105:../../libDaisy//Middlewares/Third_Party/FatFs/src/ff.c **** 				0xF0,0xF1,0xF2,0xF3,0xF4,0xF5,0xF6,0xF7,0xF8,0xF9,0xFA,0xFB,0xFC,0xFD,0xFE,0xFF}
 106:../../libDaisy//Middlewares/Third_Party/FatFs/src/ff.c **** 
 107:../../libDaisy//Middlewares/Third_Party/FatFs/src/ff.c **** #elif _CODE_PAGE == 771	/* KBL */
 108:../../libDaisy//Middlewares/Third_Party/FatFs/src/ff.c **** #define _DF1S	0
 109:../../libDaisy//Middlewares/Third_Party/FatFs/src/ff.c **** #define _EXCVT {0x80,0x81,0x82,0x83,0x84,0x85,0x86,0x87,0x88,0x89,0x8A,0x8B,0x8C,0x8D,0x8E,0x8F, \
 110:../../libDaisy//Middlewares/Third_Party/FatFs/src/ff.c **** 				0x90,0x91,0x92,0x93,0x94,0x95,0x96,0x97,0x98,0x99,0x9A,0x9B,0x9C,0x9D,0x9E,0x9F, \
 111:../../libDaisy//Middlewares/Third_Party/FatFs/src/ff.c **** 				0x80,0x81,0x82,0x83,0x84,0x85,0x86,0x87,0x88,0x89,0x8A,0x8B,0x8C,0x8D,0x8E,0x8F, \
 112:../../libDaisy//Middlewares/Third_Party/FatFs/src/ff.c **** 				0xB0,0xB1,0xB2,0xB3,0xB4,0xB5,0xB6,0xB7,0xB8,0xB9,0xBA,0xBB,0xBC,0xBD,0xBE,0xBF, \
 113:../../libDaisy//Middlewares/Third_Party/FatFs/src/ff.c **** 				0xC0,0xC1,0xC2,0xC3,0xC4,0xC5,0xC6,0xC7,0xC8,0xC9,0xCA,0xCB,0xCC,0xCD,0xCE,0xCF, \
 114:../../libDaisy//Middlewares/Third_Party/FatFs/src/ff.c **** 				0xD0,0xD1,0xD2,0xD3,0xD4,0xD5,0xD6,0xD7,0xD8,0xD9,0xDA,0xDB,0xDC,0xDC,0xDE,0xDE, \
 115:../../libDaisy//Middlewares/Third_Party/FatFs/src/ff.c **** 				0x90,0x91,0x92,0x93,0x94,0x95,0x96,0x97,0x98,0x99,0x9A,0x9B,0x9C,0x9D,0x9E,0x9F, \
 116:../../libDaisy//Middlewares/Third_Party/FatFs/src/ff.c **** 				0xF0,0xF0,0xF2,0xF2,0xF4,0xF4,0xF6,0xF6,0xF8,0xF8,0xFA,0xFA,0xFC,0xFC,0xFE,0xFF}
 117:../../libDaisy//Middlewares/Third_Party/FatFs/src/ff.c **** 
 118:../../libDaisy//Middlewares/Third_Party/FatFs/src/ff.c **** #elif _CODE_PAGE == 775	/* Baltic */
 119:../../libDaisy//Middlewares/Third_Party/FatFs/src/ff.c **** #define _DF1S	0
 120:../../libDaisy//Middlewares/Third_Party/FatFs/src/ff.c **** #define _EXCVT {0x80,0x9A,0x91,0xA0,0x8E,0x95,0x8F,0x80,0xAD,0xED,0x8A,0x8A,0xA1,0x8D,0x8E,0x8F, \
 121:../../libDaisy//Middlewares/Third_Party/FatFs/src/ff.c **** 				0x90,0x92,0x92,0xE2,0x99,0x95,0x96,0x97,0x97,0x99,0x9A,0x9D,0x9C,0x9D,0x9E,0x9F, \
 122:../../libDaisy//Middlewares/Third_Party/FatFs/src/ff.c **** 				0xA0,0xA1,0xE0,0xA3,0xA3,0xA5,0xA6,0xA7,0xA8,0xA9,0xAA,0xAB,0xAC,0xAD,0xAE,0xAF, \
 123:../../libDaisy//Middlewares/Third_Party/FatFs/src/ff.c **** 				0xB0,0xB1,0xB2,0xB3,0xB4,0xB5,0xB6,0xB7,0xB8,0xB9,0xBA,0xBB,0xBC,0xBD,0xBE,0xBF, \
 124:../../libDaisy//Middlewares/Third_Party/FatFs/src/ff.c **** 				0xC0,0xC1,0xC2,0xC3,0xC4,0xC5,0xC6,0xC7,0xC8,0xC9,0xCA,0xCB,0xCC,0xCD,0xCE,0xCF, \
 125:../../libDaisy//Middlewares/Third_Party/FatFs/src/ff.c **** 				0xB5,0xB6,0xB7,0xB8,0xBD,0xBE,0xC6,0xC7,0xA5,0xD9,0xDA,0xDB,0xDC,0xDD,0xDE,0xDF, \
 126:../../libDaisy//Middlewares/Third_Party/FatFs/src/ff.c **** 				0xE0,0xE1,0xE2,0xE3,0xE5,0xE5,0xE6,0xE3,0xE8,0xE8,0xEA,0xEA,0xEE,0xED,0xEE,0xEF, \
 127:../../libDaisy//Middlewares/Third_Party/FatFs/src/ff.c **** 				0xF0,0xF1,0xF2,0xF3,0xF4,0xF5,0xF6,0xF7,0xF8,0xF9,0xFA,0xFB,0xFC,0xFD,0xFE,0xFF}
 128:../../libDaisy//Middlewares/Third_Party/FatFs/src/ff.c **** 
 129:../../libDaisy//Middlewares/Third_Party/FatFs/src/ff.c **** #elif _CODE_PAGE == 850	/* Latin 1 */
 130:../../libDaisy//Middlewares/Third_Party/FatFs/src/ff.c **** #define _DF1S	0
 131:../../libDaisy//Middlewares/Third_Party/FatFs/src/ff.c **** #define _EXCVT {0x43,0x55,0x45,0x41,0x41,0x41,0x41,0x43,0x45,0x45,0x45,0x49,0x49,0x49,0x41,0x41, \
 132:../../libDaisy//Middlewares/Third_Party/FatFs/src/ff.c **** 				0x45,0x92,0x92,0x4F,0x4F,0x4F,0x55,0x55,0x59,0x4F,0x55,0x4F,0x9C,0x4F,0x9E,0x9F, \
 133:../../libDaisy//Middlewares/Third_Party/FatFs/src/ff.c **** 				0x41,0x49,0x4F,0x55,0xA5,0xA5,0xA6,0xA7,0xA8,0xA9,0xAA,0xAB,0xAC,0xAD,0xAE,0xAF, \
 134:../../libDaisy//Middlewares/Third_Party/FatFs/src/ff.c **** 				0xB0,0xB1,0xB2,0xB3,0xB4,0x41,0x41,0x41,0xB8,0xB9,0xBA,0xBB,0xBC,0xBD,0xBE,0xBF, \
 135:../../libDaisy//Middlewares/Third_Party/FatFs/src/ff.c **** 				0xC0,0xC1,0xC2,0xC3,0xC4,0xC5,0x41,0x41,0xC8,0xC9,0xCA,0xCB,0xCC,0xCD,0xCE,0xCF, \
 136:../../libDaisy//Middlewares/Third_Party/FatFs/src/ff.c **** 				0xD1,0xD1,0x45,0x45,0x45,0x49,0x49,0x49,0x49,0xD9,0xDA,0xDB,0xDC,0xDD,0x49,0xDF, \
 137:../../libDaisy//Middlewares/Third_Party/FatFs/src/ff.c **** 				0x4F,0xE1,0x4F,0x4F,0x4F,0x4F,0xE6,0xE8,0xE8,0x55,0x55,0x55,0x59,0x59,0xEE,0xEF, \
 138:../../libDaisy//Middlewares/Third_Party/FatFs/src/ff.c **** 				0xF0,0xF1,0xF2,0xF3,0xF4,0xF5,0xF6,0xF7,0xF8,0xF9,0xFA,0xFB,0xFC,0xFD,0xFE,0xFF}
 139:../../libDaisy//Middlewares/Third_Party/FatFs/src/ff.c **** 
 140:../../libDaisy//Middlewares/Third_Party/FatFs/src/ff.c **** #elif _CODE_PAGE == 852	/* Latin 2 */
 141:../../libDaisy//Middlewares/Third_Party/FatFs/src/ff.c **** #define _DF1S	0
 142:../../libDaisy//Middlewares/Third_Party/FatFs/src/ff.c **** #define _EXCVT {0x80,0x9A,0x90,0xB6,0x8E,0xDE,0x8F,0x80,0x9D,0xD3,0x8A,0x8A,0xD7,0x8D,0x8E,0x8F, \
 143:../../libDaisy//Middlewares/Third_Party/FatFs/src/ff.c **** 				0x90,0x91,0x91,0xE2,0x99,0x95,0x95,0x97,0x97,0x99,0x9A,0x9B,0x9B,0x9D,0x9E,0xAC, \
 144:../../libDaisy//Middlewares/Third_Party/FatFs/src/ff.c **** 				0xB5,0xD6,0xE0,0xE9,0xA4,0xA4,0xA6,0xA6,0xA8,0xA8,0xAA,0x8D,0xAC,0xB8,0xAE,0xAF, \
 145:../../libDaisy//Middlewares/Third_Party/FatFs/src/ff.c **** 				0xB0,0xB1,0xB2,0xB3,0xB4,0xB5,0xB6,0xB7,0xB8,0xB9,0xBA,0xBB,0xBC,0xBD,0xBD,0xBF, \
ARM GAS  C:\Users\danig\AppData\Local\Temp\ccGhRbic.s 			page 4


 146:../../libDaisy//Middlewares/Third_Party/FatFs/src/ff.c **** 				0xC0,0xC1,0xC2,0xC3,0xC4,0xC5,0xC6,0xC6,0xC8,0xC9,0xCA,0xCB,0xCC,0xCD,0xCE,0xCF, \
 147:../../libDaisy//Middlewares/Third_Party/FatFs/src/ff.c **** 				0xD1,0xD1,0xD2,0xD3,0xD2,0xD5,0xD6,0xD7,0xB7,0xD9,0xDA,0xDB,0xDC,0xDD,0xDE,0xDF, \
 148:../../libDaisy//Middlewares/Third_Party/FatFs/src/ff.c **** 				0xE0,0xE1,0xE2,0xE3,0xE3,0xD5,0xE6,0xE6,0xE8,0xE9,0xE8,0xEB,0xED,0xED,0xDD,0xEF, \
 149:../../libDaisy//Middlewares/Third_Party/FatFs/src/ff.c **** 				0xF0,0xF1,0xF2,0xF3,0xF4,0xF5,0xF6,0xF7,0xF8,0xF9,0xFA,0xEB,0xFC,0xFC,0xFE,0xFF}
 150:../../libDaisy//Middlewares/Third_Party/FatFs/src/ff.c **** 
 151:../../libDaisy//Middlewares/Third_Party/FatFs/src/ff.c **** #elif _CODE_PAGE == 855	/* Cyrillic */
 152:../../libDaisy//Middlewares/Third_Party/FatFs/src/ff.c **** #define _DF1S	0
 153:../../libDaisy//Middlewares/Third_Party/FatFs/src/ff.c **** #define _EXCVT {0x81,0x81,0x83,0x83,0x85,0x85,0x87,0x87,0x89,0x89,0x8B,0x8B,0x8D,0x8D,0x8F,0x8F, \
 154:../../libDaisy//Middlewares/Third_Party/FatFs/src/ff.c **** 				0x91,0x91,0x93,0x93,0x95,0x95,0x97,0x97,0x99,0x99,0x9B,0x9B,0x9D,0x9D,0x9F,0x9F, \
 155:../../libDaisy//Middlewares/Third_Party/FatFs/src/ff.c **** 				0xA1,0xA1,0xA3,0xA3,0xA5,0xA5,0xA7,0xA7,0xA9,0xA9,0xAB,0xAB,0xAD,0xAD,0xAE,0xAF, \
 156:../../libDaisy//Middlewares/Third_Party/FatFs/src/ff.c **** 				0xB0,0xB1,0xB2,0xB3,0xB4,0xB6,0xB6,0xB8,0xB8,0xB9,0xBA,0xBB,0xBC,0xBE,0xBE,0xBF, \
 157:../../libDaisy//Middlewares/Third_Party/FatFs/src/ff.c **** 				0xC0,0xC1,0xC2,0xC3,0xC4,0xC5,0xC7,0xC7,0xC8,0xC9,0xCA,0xCB,0xCC,0xCD,0xCE,0xCF, \
 158:../../libDaisy//Middlewares/Third_Party/FatFs/src/ff.c **** 				0xD1,0xD1,0xD3,0xD3,0xD5,0xD5,0xD7,0xD7,0xDD,0xD9,0xDA,0xDB,0xDC,0xDD,0xE0,0xDF, \
 159:../../libDaisy//Middlewares/Third_Party/FatFs/src/ff.c **** 				0xE0,0xE2,0xE2,0xE4,0xE4,0xE6,0xE6,0xE8,0xE8,0xEA,0xEA,0xEC,0xEC,0xEE,0xEE,0xEF, \
 160:../../libDaisy//Middlewares/Third_Party/FatFs/src/ff.c **** 				0xF0,0xF2,0xF2,0xF4,0xF4,0xF6,0xF6,0xF8,0xF8,0xFA,0xFA,0xFC,0xFC,0xFD,0xFE,0xFF}
 161:../../libDaisy//Middlewares/Third_Party/FatFs/src/ff.c **** 
 162:../../libDaisy//Middlewares/Third_Party/FatFs/src/ff.c **** #elif _CODE_PAGE == 857	/* Turkish */
 163:../../libDaisy//Middlewares/Third_Party/FatFs/src/ff.c **** #define _DF1S	0
 164:../../libDaisy//Middlewares/Third_Party/FatFs/src/ff.c **** #define _EXCVT {0x80,0x9A,0x90,0xB6,0x8E,0xB7,0x8F,0x80,0xD2,0xD3,0xD4,0xD8,0xD7,0x49,0x8E,0x8F, \
 165:../../libDaisy//Middlewares/Third_Party/FatFs/src/ff.c **** 				0x90,0x92,0x92,0xE2,0x99,0xE3,0xEA,0xEB,0x98,0x99,0x9A,0x9D,0x9C,0x9D,0x9E,0x9E, \
 166:../../libDaisy//Middlewares/Third_Party/FatFs/src/ff.c **** 				0xB5,0xD6,0xE0,0xE9,0xA5,0xA5,0xA6,0xA6,0xA8,0xA9,0xAA,0xAB,0xAC,0xAD,0xAE,0xAF, \
 167:../../libDaisy//Middlewares/Third_Party/FatFs/src/ff.c **** 				0xB0,0xB1,0xB2,0xB3,0xB4,0xB5,0xB6,0xB7,0xB8,0xB9,0xBA,0xBB,0xBC,0xBD,0xBE,0xBF, \
 168:../../libDaisy//Middlewares/Third_Party/FatFs/src/ff.c **** 				0xC0,0xC1,0xC2,0xC3,0xC4,0xC5,0xC7,0xC7,0xC8,0xC9,0xCA,0xCB,0xCC,0xCD,0xCE,0xCF, \
 169:../../libDaisy//Middlewares/Third_Party/FatFs/src/ff.c **** 				0xD0,0xD1,0xD2,0xD3,0xD4,0x49,0xD6,0xD7,0xD8,0xD9,0xDA,0xDB,0xDC,0xDD,0xDE,0xDF, \
 170:../../libDaisy//Middlewares/Third_Party/FatFs/src/ff.c **** 				0xE0,0xE1,0xE2,0xE3,0xE5,0xE5,0xE6,0xE7,0xE8,0xE9,0xEA,0xEB,0xDE,0xED,0xEE,0xEF, \
 171:../../libDaisy//Middlewares/Third_Party/FatFs/src/ff.c **** 				0xF0,0xF1,0xF2,0xF3,0xF4,0xF5,0xF6,0xF7,0xF8,0xF9,0xFA,0xFB,0xFC,0xFD,0xFE,0xFF}
 172:../../libDaisy//Middlewares/Third_Party/FatFs/src/ff.c **** 
 173:../../libDaisy//Middlewares/Third_Party/FatFs/src/ff.c **** #elif _CODE_PAGE == 860	/* Portuguese */
 174:../../libDaisy//Middlewares/Third_Party/FatFs/src/ff.c **** #define _DF1S	0
 175:../../libDaisy//Middlewares/Third_Party/FatFs/src/ff.c **** #define _EXCVT {0x80,0x9A,0x90,0x8F,0x8E,0x91,0x86,0x80,0x89,0x89,0x92,0x8B,0x8C,0x98,0x8E,0x8F, \
 176:../../libDaisy//Middlewares/Third_Party/FatFs/src/ff.c **** 				0x90,0x91,0x92,0x8C,0x99,0xA9,0x96,0x9D,0x98,0x99,0x9A,0x9B,0x9C,0x9D,0x9E,0x9F, \
 177:../../libDaisy//Middlewares/Third_Party/FatFs/src/ff.c **** 				0x86,0x8B,0x9F,0x96,0xA5,0xA5,0xA6,0xA7,0xA8,0xA9,0xAA,0xAB,0xAC,0xAD,0xAE,0xAF, \
 178:../../libDaisy//Middlewares/Third_Party/FatFs/src/ff.c **** 				0xB0,0xB1,0xB2,0xB3,0xB4,0xB5,0xB6,0xB7,0xB8,0xB9,0xBA,0xBB,0xBC,0xBD,0xBE,0xBF, \
 179:../../libDaisy//Middlewares/Third_Party/FatFs/src/ff.c **** 				0xC0,0xC1,0xC2,0xC3,0xC4,0xC5,0xC6,0xC7,0xC8,0xC9,0xCA,0xCB,0xCC,0xCD,0xCE,0xCF, \
 180:../../libDaisy//Middlewares/Third_Party/FatFs/src/ff.c **** 				0xD0,0xD1,0xD2,0xD3,0xD4,0xD5,0xD6,0xD7,0xD8,0xD9,0xDA,0xDB,0xDC,0xDD,0xDE,0xDF, \
 181:../../libDaisy//Middlewares/Third_Party/FatFs/src/ff.c **** 				0xE0,0xE1,0xE2,0xE3,0xE4,0xE5,0xE6,0xE7,0xE8,0xE9,0xEA,0xEB,0xEC,0xED,0xEE,0xEF, \
 182:../../libDaisy//Middlewares/Third_Party/FatFs/src/ff.c **** 				0xF0,0xF1,0xF2,0xF3,0xF4,0xF5,0xF6,0xF7,0xF8,0xF9,0xFA,0xFB,0xFC,0xFD,0xFE,0xFF}
 183:../../libDaisy//Middlewares/Third_Party/FatFs/src/ff.c **** 
 184:../../libDaisy//Middlewares/Third_Party/FatFs/src/ff.c **** #elif _CODE_PAGE == 861	/* Icelandic */
 185:../../libDaisy//Middlewares/Third_Party/FatFs/src/ff.c **** #define _DF1S	0
 186:../../libDaisy//Middlewares/Third_Party/FatFs/src/ff.c **** #define _EXCVT {0x80,0x9A,0x90,0x41,0x8E,0x41,0x8F,0x80,0x45,0x45,0x45,0x8B,0x8B,0x8D,0x8E,0x8F, \
 187:../../libDaisy//Middlewares/Third_Party/FatFs/src/ff.c **** 				0x90,0x92,0x92,0x4F,0x99,0x8D,0x55,0x97,0x97,0x99,0x9A,0x9D,0x9C,0x9D,0x9E,0x9F, \
 188:../../libDaisy//Middlewares/Third_Party/FatFs/src/ff.c **** 				0xA4,0xA5,0xA6,0xA7,0xA4,0xA5,0xA6,0xA7,0xA8,0xA9,0xAA,0xAB,0xAC,0xAD,0xAE,0xAF, \
 189:../../libDaisy//Middlewares/Third_Party/FatFs/src/ff.c **** 				0xB0,0xB1,0xB2,0xB3,0xB4,0xB5,0xB6,0xB7,0xB8,0xB9,0xBA,0xBB,0xBC,0xBD,0xBE,0xBF, \
 190:../../libDaisy//Middlewares/Third_Party/FatFs/src/ff.c **** 				0xC0,0xC1,0xC2,0xC3,0xC4,0xC5,0xC6,0xC7,0xC8,0xC9,0xCA,0xCB,0xCC,0xCD,0xCE,0xCF, \
 191:../../libDaisy//Middlewares/Third_Party/FatFs/src/ff.c **** 				0xD0,0xD1,0xD2,0xD3,0xD4,0xD5,0xD6,0xD7,0xD8,0xD9,0xDA,0xDB,0xDC,0xDD,0xDE,0xDF, \
 192:../../libDaisy//Middlewares/Third_Party/FatFs/src/ff.c **** 				0xE0,0xE1,0xE2,0xE3,0xE4,0xE5,0xE6,0xE7,0xE8,0xE9,0xEA,0xEB,0xEC,0xED,0xEE,0xEF, \
 193:../../libDaisy//Middlewares/Third_Party/FatFs/src/ff.c **** 				0xF0,0xF1,0xF2,0xF3,0xF4,0xF5,0xF6,0xF7,0xF8,0xF9,0xFA,0xFB,0xFC,0xFD,0xFE,0xFF}
 194:../../libDaisy//Middlewares/Third_Party/FatFs/src/ff.c **** 
 195:../../libDaisy//Middlewares/Third_Party/FatFs/src/ff.c **** #elif _CODE_PAGE == 862	/* Hebrew */
 196:../../libDaisy//Middlewares/Third_Party/FatFs/src/ff.c **** #define _DF1S	0
 197:../../libDaisy//Middlewares/Third_Party/FatFs/src/ff.c **** #define _EXCVT {0x80,0x81,0x82,0x83,0x84,0x85,0x86,0x87,0x88,0x89,0x8A,0x8B,0x8C,0x8D,0x8E,0x8F, \
 198:../../libDaisy//Middlewares/Third_Party/FatFs/src/ff.c **** 				0x90,0x91,0x92,0x93,0x94,0x95,0x96,0x97,0x98,0x99,0x9A,0x9B,0x9C,0x9D,0x9E,0x9F, \
 199:../../libDaisy//Middlewares/Third_Party/FatFs/src/ff.c **** 				0x41,0x49,0x4F,0x55,0xA5,0xA5,0xA6,0xA7,0xA8,0xA9,0xAA,0xAB,0xAC,0xAD,0xAE,0xAF, \
 200:../../libDaisy//Middlewares/Third_Party/FatFs/src/ff.c **** 				0xB0,0xB1,0xB2,0xB3,0xB4,0xB5,0xB6,0xB7,0xB8,0xB9,0xBA,0xBB,0xBC,0xBD,0xBE,0xBF, \
 201:../../libDaisy//Middlewares/Third_Party/FatFs/src/ff.c **** 				0xC0,0xC1,0xC2,0xC3,0xC4,0xC5,0xC6,0xC7,0xC8,0xC9,0xCA,0xCB,0xCC,0xCD,0xCE,0xCF, \
 202:../../libDaisy//Middlewares/Third_Party/FatFs/src/ff.c **** 				0xD0,0xD1,0xD2,0xD3,0xD4,0xD5,0xD6,0xD7,0xD8,0xD9,0xDA,0xDB,0xDC,0xDD,0xDE,0xDF, \
ARM GAS  C:\Users\danig\AppData\Local\Temp\ccGhRbic.s 			page 5


 203:../../libDaisy//Middlewares/Third_Party/FatFs/src/ff.c **** 				0xE0,0xE1,0xE2,0xE3,0xE4,0xE5,0xE6,0xE7,0xE8,0xE9,0xEA,0xEB,0xEC,0xED,0xEE,0xEF, \
 204:../../libDaisy//Middlewares/Third_Party/FatFs/src/ff.c **** 				0xF0,0xF1,0xF2,0xF3,0xF4,0xF5,0xF6,0xF7,0xF8,0xF9,0xFA,0xFB,0xFC,0xFD,0xFE,0xFF}
 205:../../libDaisy//Middlewares/Third_Party/FatFs/src/ff.c **** 
 206:../../libDaisy//Middlewares/Third_Party/FatFs/src/ff.c **** #elif _CODE_PAGE == 863	/* Canadian-French */
 207:../../libDaisy//Middlewares/Third_Party/FatFs/src/ff.c **** #define _DF1S	0
 208:../../libDaisy//Middlewares/Third_Party/FatFs/src/ff.c **** #define _EXCVT {0x43,0x55,0x45,0x41,0x41,0x41,0x86,0x43,0x45,0x45,0x45,0x49,0x49,0x8D,0x41,0x8F, \
 209:../../libDaisy//Middlewares/Third_Party/FatFs/src/ff.c **** 				0x45,0x45,0x45,0x4F,0x45,0x49,0x55,0x55,0x98,0x4F,0x55,0x9B,0x9C,0x55,0x55,0x9F, \
 210:../../libDaisy//Middlewares/Third_Party/FatFs/src/ff.c **** 				0xA0,0xA1,0x4F,0x55,0xA4,0xA5,0xA6,0xA7,0x49,0xA9,0xAA,0xAB,0xAC,0xAD,0xAE,0xAF, \
 211:../../libDaisy//Middlewares/Third_Party/FatFs/src/ff.c **** 				0xB0,0xB1,0xB2,0xB3,0xB4,0xB5,0xB6,0xB7,0xB8,0xB9,0xBA,0xBB,0xBC,0xBD,0xBE,0xBF, \
 212:../../libDaisy//Middlewares/Third_Party/FatFs/src/ff.c **** 				0xC0,0xC1,0xC2,0xC3,0xC4,0xC5,0xC6,0xC7,0xC8,0xC9,0xCA,0xCB,0xCC,0xCD,0xCE,0xCF, \
 213:../../libDaisy//Middlewares/Third_Party/FatFs/src/ff.c **** 				0xD0,0xD1,0xD2,0xD3,0xD4,0xD5,0xD6,0xD7,0xD8,0xD9,0xDA,0xDB,0xDC,0xDD,0xDE,0xDF, \
 214:../../libDaisy//Middlewares/Third_Party/FatFs/src/ff.c **** 				0xE0,0xE1,0xE2,0xE3,0xE4,0xE5,0xE6,0xE7,0xE8,0xE9,0xEA,0xEB,0xEC,0xED,0xEE,0xEF, \
 215:../../libDaisy//Middlewares/Third_Party/FatFs/src/ff.c **** 				0xF0,0xF1,0xF2,0xF3,0xF4,0xF5,0xF6,0xF7,0xF8,0xF9,0xFA,0xFB,0xFC,0xFD,0xFE,0xFF}
 216:../../libDaisy//Middlewares/Third_Party/FatFs/src/ff.c **** 
 217:../../libDaisy//Middlewares/Third_Party/FatFs/src/ff.c **** #elif _CODE_PAGE == 864	/* Arabic */
 218:../../libDaisy//Middlewares/Third_Party/FatFs/src/ff.c **** #define _DF1S	0
 219:../../libDaisy//Middlewares/Third_Party/FatFs/src/ff.c **** #define _EXCVT {0x80,0x9A,0x45,0x41,0x8E,0x41,0x8F,0x80,0x45,0x45,0x45,0x49,0x49,0x49,0x8E,0x8F, \
 220:../../libDaisy//Middlewares/Third_Party/FatFs/src/ff.c **** 				0x90,0x92,0x92,0x4F,0x99,0x4F,0x55,0x55,0x59,0x99,0x9A,0x9B,0x9C,0x9D,0x9E,0x9F, \
 221:../../libDaisy//Middlewares/Third_Party/FatFs/src/ff.c **** 				0x41,0x49,0x4F,0x55,0xA5,0xA5,0xA6,0xA7,0xA8,0xA9,0xAA,0xAB,0xAC,0xAD,0xAE,0xAF, \
 222:../../libDaisy//Middlewares/Third_Party/FatFs/src/ff.c **** 				0xB0,0xB1,0xB2,0xB3,0xB4,0xB5,0xB6,0xB7,0xB8,0xB9,0xBA,0xBB,0xBC,0xBD,0xBE,0xBF, \
 223:../../libDaisy//Middlewares/Third_Party/FatFs/src/ff.c **** 				0xC0,0xC1,0xC2,0xC3,0xC4,0xC5,0xC6,0xC7,0xC8,0xC9,0xCA,0xCB,0xCC,0xCD,0xCE,0xCF, \
 224:../../libDaisy//Middlewares/Third_Party/FatFs/src/ff.c **** 				0xD0,0xD1,0xD2,0xD3,0xD4,0xD5,0xD6,0xD7,0xD8,0xD9,0xDA,0xDB,0xDC,0xDD,0xDE,0xDF, \
 225:../../libDaisy//Middlewares/Third_Party/FatFs/src/ff.c **** 				0xE0,0xE1,0xE2,0xE3,0xE4,0xE5,0xE6,0xE7,0xE8,0xE9,0xEA,0xEB,0xEC,0xED,0xEE,0xEF, \
 226:../../libDaisy//Middlewares/Third_Party/FatFs/src/ff.c **** 				0xF0,0xF1,0xF2,0xF3,0xF4,0xF5,0xF6,0xF7,0xF8,0xF9,0xFA,0xFB,0xFC,0xFD,0xFE,0xFF}
 227:../../libDaisy//Middlewares/Third_Party/FatFs/src/ff.c **** 
 228:../../libDaisy//Middlewares/Third_Party/FatFs/src/ff.c **** #elif _CODE_PAGE == 865	/* Nordic */
 229:../../libDaisy//Middlewares/Third_Party/FatFs/src/ff.c **** #define _DF1S	0
 230:../../libDaisy//Middlewares/Third_Party/FatFs/src/ff.c **** #define _EXCVT {0x80,0x9A,0x90,0x41,0x8E,0x41,0x8F,0x80,0x45,0x45,0x45,0x49,0x49,0x49,0x8E,0x8F, \
 231:../../libDaisy//Middlewares/Third_Party/FatFs/src/ff.c **** 				0x90,0x92,0x92,0x4F,0x99,0x4F,0x55,0x55,0x59,0x99,0x9A,0x9B,0x9C,0x9D,0x9E,0x9F, \
 232:../../libDaisy//Middlewares/Third_Party/FatFs/src/ff.c **** 				0x41,0x49,0x4F,0x55,0xA5,0xA5,0xA6,0xA7,0xA8,0xA9,0xAA,0xAB,0xAC,0xAD,0xAE,0xAF, \
 233:../../libDaisy//Middlewares/Third_Party/FatFs/src/ff.c **** 				0xB0,0xB1,0xB2,0xB3,0xB4,0xB5,0xB6,0xB7,0xB8,0xB9,0xBA,0xBB,0xBC,0xBD,0xBE,0xBF, \
 234:../../libDaisy//Middlewares/Third_Party/FatFs/src/ff.c **** 				0xC0,0xC1,0xC2,0xC3,0xC4,0xC5,0xC6,0xC7,0xC8,0xC9,0xCA,0xCB,0xCC,0xCD,0xCE,0xCF, \
 235:../../libDaisy//Middlewares/Third_Party/FatFs/src/ff.c **** 				0xD0,0xD1,0xD2,0xD3,0xD4,0xD5,0xD6,0xD7,0xD8,0xD9,0xDA,0xDB,0xDC,0xDD,0xDE,0xDF, \
 236:../../libDaisy//Middlewares/Third_Party/FatFs/src/ff.c **** 				0xE0,0xE1,0xE2,0xE3,0xE4,0xE5,0xE6,0xE7,0xE8,0xE9,0xEA,0xEB,0xEC,0xED,0xEE,0xEF, \
 237:../../libDaisy//Middlewares/Third_Party/FatFs/src/ff.c **** 				0xF0,0xF1,0xF2,0xF3,0xF4,0xF5,0xF6,0xF7,0xF8,0xF9,0xFA,0xFB,0xFC,0xFD,0xFE,0xFF}
 238:../../libDaisy//Middlewares/Third_Party/FatFs/src/ff.c **** 
 239:../../libDaisy//Middlewares/Third_Party/FatFs/src/ff.c **** #elif _CODE_PAGE == 866	/* Russian */
 240:../../libDaisy//Middlewares/Third_Party/FatFs/src/ff.c **** #define _DF1S	0
 241:../../libDaisy//Middlewares/Third_Party/FatFs/src/ff.c **** #define _EXCVT {0x80,0x81,0x82,0x83,0x84,0x85,0x86,0x87,0x88,0x89,0x8A,0x8B,0x8C,0x8D,0x8E,0x8F, \
 242:../../libDaisy//Middlewares/Third_Party/FatFs/src/ff.c **** 				0x90,0x91,0x92,0x93,0x94,0x95,0x96,0x97,0x98,0x99,0x9A,0x9B,0x9C,0x9D,0x9E,0x9F, \
 243:../../libDaisy//Middlewares/Third_Party/FatFs/src/ff.c **** 				0x80,0x81,0x82,0x83,0x84,0x85,0x86,0x87,0x88,0x89,0x8A,0x8B,0x8C,0x8D,0x8E,0x8F, \
 244:../../libDaisy//Middlewares/Third_Party/FatFs/src/ff.c **** 				0xB0,0xB1,0xB2,0xB3,0xB4,0xB5,0xB6,0xB7,0xB8,0xB9,0xBA,0xBB,0xBC,0xBD,0xBE,0xBF, \
 245:../../libDaisy//Middlewares/Third_Party/FatFs/src/ff.c **** 				0xC0,0xC1,0xC2,0xC3,0xC4,0xC5,0xC6,0xC7,0xC8,0xC9,0xCA,0xCB,0xCC,0xCD,0xCE,0xCF, \
 246:../../libDaisy//Middlewares/Third_Party/FatFs/src/ff.c **** 				0xD0,0xD1,0xD2,0xD3,0xD4,0xD5,0xD6,0xD7,0xD8,0xD9,0xDA,0xDB,0xDC,0xDD,0xDE,0xDF, \
 247:../../libDaisy//Middlewares/Third_Party/FatFs/src/ff.c **** 				0x90,0x91,0x92,0x93,0x94,0x95,0x96,0x97,0x98,0x99,0x9A,0x9B,0x9C,0x9D,0x9E,0x9F, \
 248:../../libDaisy//Middlewares/Third_Party/FatFs/src/ff.c **** 				0xF0,0xF0,0xF2,0xF2,0xF4,0xF4,0xF6,0xF6,0xF8,0xF9,0xFA,0xFB,0xFC,0xFD,0xFE,0xFF}
 249:../../libDaisy//Middlewares/Third_Party/FatFs/src/ff.c **** 
 250:../../libDaisy//Middlewares/Third_Party/FatFs/src/ff.c **** #elif _CODE_PAGE == 869	/* Greek 2 */
 251:../../libDaisy//Middlewares/Third_Party/FatFs/src/ff.c **** #define _DF1S	0
 252:../../libDaisy//Middlewares/Third_Party/FatFs/src/ff.c **** #define _EXCVT {0x80,0x81,0x82,0x83,0x84,0x85,0x86,0x87,0x88,0x89,0x8A,0x8B,0x8C,0x8D,0x8E,0x8F, \
 253:../../libDaisy//Middlewares/Third_Party/FatFs/src/ff.c **** 				0x90,0x91,0x92,0x93,0x94,0x95,0x96,0x97,0x98,0x99,0x9A,0x86,0x9C,0x8D,0x8F,0x90, \
 254:../../libDaisy//Middlewares/Third_Party/FatFs/src/ff.c **** 				0x91,0x90,0x92,0x95,0xA4,0xA5,0xA6,0xA7,0xA8,0xA9,0xAA,0xAB,0xAC,0xAD,0xAE,0xAF, \
 255:../../libDaisy//Middlewares/Third_Party/FatFs/src/ff.c **** 				0xB0,0xB1,0xB2,0xB3,0xB4,0xB5,0xB6,0xB7,0xB8,0xB9,0xBA,0xBB,0xBC,0xBD,0xBE,0xBF, \
 256:../../libDaisy//Middlewares/Third_Party/FatFs/src/ff.c **** 				0xC0,0xC1,0xC2,0xC3,0xC4,0xC5,0xC6,0xC7,0xC8,0xC9,0xCA,0xCB,0xCC,0xCD,0xCE,0xCF, \
 257:../../libDaisy//Middlewares/Third_Party/FatFs/src/ff.c **** 				0xD0,0xD1,0xD2,0xD3,0xD4,0xD5,0xA4,0xA5,0xA6,0xD9,0xDA,0xDB,0xDC,0xA7,0xA8,0xDF, \
 258:../../libDaisy//Middlewares/Third_Party/FatFs/src/ff.c **** 				0xA9,0xAA,0xAC,0xAD,0xB5,0xB6,0xB7,0xB8,0xBD,0xBE,0xC6,0xC7,0xCF,0xCF,0xD0,0xEF, \
 259:../../libDaisy//Middlewares/Third_Party/FatFs/src/ff.c **** 				0xF0,0xF1,0xD1,0xD2,0xD3,0xF5,0xD4,0xF7,0xF8,0xF9,0xD5,0x96,0x95,0x98,0xFE,0xFF}
ARM GAS  C:\Users\danig\AppData\Local\Temp\ccGhRbic.s 			page 6


 260:../../libDaisy//Middlewares/Third_Party/FatFs/src/ff.c **** 
 261:../../libDaisy//Middlewares/Third_Party/FatFs/src/ff.c **** #elif _CODE_PAGE == 1	/* ASCII (for only non-LFN cfg) */
 262:../../libDaisy//Middlewares/Third_Party/FatFs/src/ff.c **** #if _USE_LFN != 0
 263:../../libDaisy//Middlewares/Third_Party/FatFs/src/ff.c **** #error Cannot enable LFN without valid code page.
 264:../../libDaisy//Middlewares/Third_Party/FatFs/src/ff.c **** #endif
 265:../../libDaisy//Middlewares/Third_Party/FatFs/src/ff.c **** #define _DF1S	0
 266:../../libDaisy//Middlewares/Third_Party/FatFs/src/ff.c **** 
 267:../../libDaisy//Middlewares/Third_Party/FatFs/src/ff.c **** #else
 268:../../libDaisy//Middlewares/Third_Party/FatFs/src/ff.c **** #error Unknown code page
 269:../../libDaisy//Middlewares/Third_Party/FatFs/src/ff.c **** 
 270:../../libDaisy//Middlewares/Third_Party/FatFs/src/ff.c **** #endif
 271:../../libDaisy//Middlewares/Third_Party/FatFs/src/ff.c **** 
 272:../../libDaisy//Middlewares/Third_Party/FatFs/src/ff.c **** 
 273:../../libDaisy//Middlewares/Third_Party/FatFs/src/ff.c **** /* Character code support macros */
 274:../../libDaisy//Middlewares/Third_Party/FatFs/src/ff.c **** #define IsUpper(c)	(((c)>='A')&&((c)<='Z'))
 275:../../libDaisy//Middlewares/Third_Party/FatFs/src/ff.c **** #define IsLower(c)	(((c)>='a')&&((c)<='z'))
 276:../../libDaisy//Middlewares/Third_Party/FatFs/src/ff.c **** #define IsDigit(c)	(((c)>='0')&&((c)<='9'))
 277:../../libDaisy//Middlewares/Third_Party/FatFs/src/ff.c **** 
 278:../../libDaisy//Middlewares/Third_Party/FatFs/src/ff.c **** #if _DF1S != 0	/* Code page is DBCS */
 279:../../libDaisy//Middlewares/Third_Party/FatFs/src/ff.c **** 
 280:../../libDaisy//Middlewares/Third_Party/FatFs/src/ff.c **** #ifdef _DF2S	/* Two 1st byte areas */
 281:../../libDaisy//Middlewares/Third_Party/FatFs/src/ff.c **** #define IsDBCS1(c)	(((BYTE)(c) >= _DF1S && (BYTE)(c) <= _DF1E) || ((BYTE)(c) >= _DF2S && (BYTE)(c) 
 282:../../libDaisy//Middlewares/Third_Party/FatFs/src/ff.c **** #else			/* One 1st byte area */
 283:../../libDaisy//Middlewares/Third_Party/FatFs/src/ff.c **** #define IsDBCS1(c)	((BYTE)(c) >= _DF1S && (BYTE)(c) <= _DF1E)
 284:../../libDaisy//Middlewares/Third_Party/FatFs/src/ff.c **** #endif
 285:../../libDaisy//Middlewares/Third_Party/FatFs/src/ff.c **** 
 286:../../libDaisy//Middlewares/Third_Party/FatFs/src/ff.c **** #ifdef _DS3S	/* Three 2nd byte areas */
 287:../../libDaisy//Middlewares/Third_Party/FatFs/src/ff.c **** #define IsDBCS2(c)	(((BYTE)(c) >= _DS1S && (BYTE)(c) <= _DS1E) || ((BYTE)(c) >= _DS2S && (BYTE)(c) 
 288:../../libDaisy//Middlewares/Third_Party/FatFs/src/ff.c **** #else			/* Two 2nd byte areas */
 289:../../libDaisy//Middlewares/Third_Party/FatFs/src/ff.c **** #define IsDBCS2(c)	(((BYTE)(c) >= _DS1S && (BYTE)(c) <= _DS1E) || ((BYTE)(c) >= _DS2S && (BYTE)(c) 
 290:../../libDaisy//Middlewares/Third_Party/FatFs/src/ff.c **** #endif
 291:../../libDaisy//Middlewares/Third_Party/FatFs/src/ff.c **** 
 292:../../libDaisy//Middlewares/Third_Party/FatFs/src/ff.c **** #else			/* Code page is SBCS */
 293:../../libDaisy//Middlewares/Third_Party/FatFs/src/ff.c **** 
 294:../../libDaisy//Middlewares/Third_Party/FatFs/src/ff.c **** #define IsDBCS1(c)	0
 295:../../libDaisy//Middlewares/Third_Party/FatFs/src/ff.c **** #define IsDBCS2(c)	0
 296:../../libDaisy//Middlewares/Third_Party/FatFs/src/ff.c **** 
 297:../../libDaisy//Middlewares/Third_Party/FatFs/src/ff.c **** #endif /* _DF1S */
 298:../../libDaisy//Middlewares/Third_Party/FatFs/src/ff.c **** 
 299:../../libDaisy//Middlewares/Third_Party/FatFs/src/ff.c **** 
 300:../../libDaisy//Middlewares/Third_Party/FatFs/src/ff.c **** /* Additional file attribute bits for internal use */
 301:../../libDaisy//Middlewares/Third_Party/FatFs/src/ff.c **** #define	AM_VOL		0x08	/* Volume label */
 302:../../libDaisy//Middlewares/Third_Party/FatFs/src/ff.c **** #define AM_LFN		0x0F	/* LFN entry */
 303:../../libDaisy//Middlewares/Third_Party/FatFs/src/ff.c **** #define AM_MASK		0x3F	/* Mask of defined bits */
 304:../../libDaisy//Middlewares/Third_Party/FatFs/src/ff.c **** 
 305:../../libDaisy//Middlewares/Third_Party/FatFs/src/ff.c **** 
 306:../../libDaisy//Middlewares/Third_Party/FatFs/src/ff.c **** /* Additional file access control and file status flags for internal use */
 307:../../libDaisy//Middlewares/Third_Party/FatFs/src/ff.c **** #define FA_SEEKEND	0x20	/* Seek to end of the file on file open */
 308:../../libDaisy//Middlewares/Third_Party/FatFs/src/ff.c **** #define FA_MODIFIED	0x40	/* File has been modified */
 309:../../libDaisy//Middlewares/Third_Party/FatFs/src/ff.c **** #define FA_DIRTY	0x80	/* FIL.buf[] needs to be written-back */
 310:../../libDaisy//Middlewares/Third_Party/FatFs/src/ff.c **** 
 311:../../libDaisy//Middlewares/Third_Party/FatFs/src/ff.c **** 
 312:../../libDaisy//Middlewares/Third_Party/FatFs/src/ff.c **** /* Name status flags in fn[] */
 313:../../libDaisy//Middlewares/Third_Party/FatFs/src/ff.c **** #define NSFLAG		11		/* Index of the name status byte */
 314:../../libDaisy//Middlewares/Third_Party/FatFs/src/ff.c **** #define NS_LOSS		0x01	/* Out of 8.3 format */
 315:../../libDaisy//Middlewares/Third_Party/FatFs/src/ff.c **** #define NS_LFN		0x02	/* Force to create LFN entry */
 316:../../libDaisy//Middlewares/Third_Party/FatFs/src/ff.c **** #define NS_LAST		0x04	/* Last segment */
ARM GAS  C:\Users\danig\AppData\Local\Temp\ccGhRbic.s 			page 7


 317:../../libDaisy//Middlewares/Third_Party/FatFs/src/ff.c **** #define NS_BODY		0x08	/* Lower case flag (body) */
 318:../../libDaisy//Middlewares/Third_Party/FatFs/src/ff.c **** #define NS_EXT		0x10	/* Lower case flag (ext) */
 319:../../libDaisy//Middlewares/Third_Party/FatFs/src/ff.c **** #define NS_DOT		0x20	/* Dot entry */
 320:../../libDaisy//Middlewares/Third_Party/FatFs/src/ff.c **** #define NS_NOLFN	0x40	/* Do not find LFN */
 321:../../libDaisy//Middlewares/Third_Party/FatFs/src/ff.c **** #define NS_NONAME	0x80	/* Not followed */
 322:../../libDaisy//Middlewares/Third_Party/FatFs/src/ff.c **** 
 323:../../libDaisy//Middlewares/Third_Party/FatFs/src/ff.c **** 
 324:../../libDaisy//Middlewares/Third_Party/FatFs/src/ff.c **** /* Limits and boundaries */
 325:../../libDaisy//Middlewares/Third_Party/FatFs/src/ff.c **** #define MAX_DIR		0x200000		/* Max size of FAT directory */
 326:../../libDaisy//Middlewares/Third_Party/FatFs/src/ff.c **** #define MAX_DIR_EX	0x10000000		/* Max size of exFAT directory */
 327:../../libDaisy//Middlewares/Third_Party/FatFs/src/ff.c **** #define MAX_FAT12	0xFF5			/* Max FAT12 clusters (differs from specs, but correct for real DOS/Windo
 328:../../libDaisy//Middlewares/Third_Party/FatFs/src/ff.c **** #define	MAX_FAT16	0xFFF5			/* Max FAT16 clusters (differs from specs, but correct for real DOS/Wind
 329:../../libDaisy//Middlewares/Third_Party/FatFs/src/ff.c **** #define	MAX_FAT32	0x0FFFFFF5		/* Max FAT32 clusters (not specified, practical limit) */
 330:../../libDaisy//Middlewares/Third_Party/FatFs/src/ff.c **** #define	MAX_EXFAT	0x7FFFFFFD		/* Max exFAT clusters (differs from specs, implementation limit) */
 331:../../libDaisy//Middlewares/Third_Party/FatFs/src/ff.c **** 
 332:../../libDaisy//Middlewares/Third_Party/FatFs/src/ff.c **** 
 333:../../libDaisy//Middlewares/Third_Party/FatFs/src/ff.c **** /* FatFs refers the FAT structure as simple byte array instead of structure member
 334:../../libDaisy//Middlewares/Third_Party/FatFs/src/ff.c **** / because the C structure is not binary compatible between different platforms */
 335:../../libDaisy//Middlewares/Third_Party/FatFs/src/ff.c **** 
 336:../../libDaisy//Middlewares/Third_Party/FatFs/src/ff.c **** #define BS_JmpBoot			0		/* x86 jump instruction (3-byte) */
 337:../../libDaisy//Middlewares/Third_Party/FatFs/src/ff.c **** #define BS_OEMName			3		/* OEM name (8-byte) */
 338:../../libDaisy//Middlewares/Third_Party/FatFs/src/ff.c **** #define BPB_BytsPerSec		11		/* Sector size [byte] (WORD) */
 339:../../libDaisy//Middlewares/Third_Party/FatFs/src/ff.c **** #define BPB_SecPerClus		13		/* Cluster size [sector] (BYTE) */
 340:../../libDaisy//Middlewares/Third_Party/FatFs/src/ff.c **** #define BPB_RsvdSecCnt		14		/* Size of reserved area [sector] (WORD) */
 341:../../libDaisy//Middlewares/Third_Party/FatFs/src/ff.c **** #define BPB_NumFATs			16		/* Number of FATs (BYTE) */
 342:../../libDaisy//Middlewares/Third_Party/FatFs/src/ff.c **** #define BPB_RootEntCnt		17		/* Size of root directory area for FAT12/16 [entry] (WORD) */
 343:../../libDaisy//Middlewares/Third_Party/FatFs/src/ff.c **** #define BPB_TotSec16		19		/* Volume size (16-bit) [sector] (WORD) */
 344:../../libDaisy//Middlewares/Third_Party/FatFs/src/ff.c **** #define BPB_Media			21		/* Media descriptor byte (BYTE) */
 345:../../libDaisy//Middlewares/Third_Party/FatFs/src/ff.c **** #define BPB_FATSz16			22		/* FAT size (16-bit) [sector] (WORD) */
 346:../../libDaisy//Middlewares/Third_Party/FatFs/src/ff.c **** #define BPB_SecPerTrk		24		/* Track size for int13h [sector] (WORD) */
 347:../../libDaisy//Middlewares/Third_Party/FatFs/src/ff.c **** #define BPB_NumHeads		26		/* Number of heads for int13h (WORD) */
 348:../../libDaisy//Middlewares/Third_Party/FatFs/src/ff.c **** #define BPB_HiddSec			28		/* Volume offset from top of the drive (DWORD) */
 349:../../libDaisy//Middlewares/Third_Party/FatFs/src/ff.c **** #define BPB_TotSec32		32		/* Volume size (32-bit) [sector] (DWORD) */
 350:../../libDaisy//Middlewares/Third_Party/FatFs/src/ff.c **** #define BS_DrvNum			36		/* Physical drive number for int13h (BYTE) */
 351:../../libDaisy//Middlewares/Third_Party/FatFs/src/ff.c **** #define BS_NTres			37		/* Error flag (BYTE) */
 352:../../libDaisy//Middlewares/Third_Party/FatFs/src/ff.c **** #define BS_BootSig			38		/* Extended boot signature (BYTE) */
 353:../../libDaisy//Middlewares/Third_Party/FatFs/src/ff.c **** #define BS_VolID			39		/* Volume serial number (DWORD) */
 354:../../libDaisy//Middlewares/Third_Party/FatFs/src/ff.c **** #define BS_VolLab			43		/* Volume label string (8-byte) */
 355:../../libDaisy//Middlewares/Third_Party/FatFs/src/ff.c **** #define BS_FilSysType		54		/* File system type string (8-byte) */
 356:../../libDaisy//Middlewares/Third_Party/FatFs/src/ff.c **** #define BS_BootCode			62		/* Boot code (448-byte) */
 357:../../libDaisy//Middlewares/Third_Party/FatFs/src/ff.c **** #define BS_55AA				510		/* Signature word (WORD) */
 358:../../libDaisy//Middlewares/Third_Party/FatFs/src/ff.c **** 
 359:../../libDaisy//Middlewares/Third_Party/FatFs/src/ff.c **** #define BPB_FATSz32			36		/* FAT32: FAT size [sector] (DWORD) */
 360:../../libDaisy//Middlewares/Third_Party/FatFs/src/ff.c **** #define BPB_ExtFlags32		40		/* FAT32: Extended flags (WORD) */
 361:../../libDaisy//Middlewares/Third_Party/FatFs/src/ff.c **** #define BPB_FSVer32			42		/* FAT32: File system version (WORD) */
 362:../../libDaisy//Middlewares/Third_Party/FatFs/src/ff.c **** #define BPB_RootClus32		44		/* FAT32: Root directory cluster (DWORD) */
 363:../../libDaisy//Middlewares/Third_Party/FatFs/src/ff.c **** #define BPB_FSInfo32		48		/* FAT32: Offset of FSINFO sector (WORD) */
 364:../../libDaisy//Middlewares/Third_Party/FatFs/src/ff.c **** #define BPB_BkBootSec32		50		/* FAT32: Offset of backup boot sector (WORD) */
 365:../../libDaisy//Middlewares/Third_Party/FatFs/src/ff.c **** #define BS_DrvNum32			64		/* FAT32: Physical drive number for int13h (BYTE) */
 366:../../libDaisy//Middlewares/Third_Party/FatFs/src/ff.c **** #define BS_NTres32			65		/* FAT32: Error flag (BYTE) */
 367:../../libDaisy//Middlewares/Third_Party/FatFs/src/ff.c **** #define BS_BootSig32		66		/* FAT32: Extended boot signature (BYTE) */
 368:../../libDaisy//Middlewares/Third_Party/FatFs/src/ff.c **** #define BS_VolID32			67		/* FAT32: Volume serial number (DWORD) */
 369:../../libDaisy//Middlewares/Third_Party/FatFs/src/ff.c **** #define BS_VolLab32			71		/* FAT32: Volume label string (8-byte) */
 370:../../libDaisy//Middlewares/Third_Party/FatFs/src/ff.c **** #define BS_FilSysType32		82		/* FAT32: File system type string (8-byte) */
 371:../../libDaisy//Middlewares/Third_Party/FatFs/src/ff.c **** #define BS_BootCode32		90		/* FAT32: Boot code (420-byte) */
 372:../../libDaisy//Middlewares/Third_Party/FatFs/src/ff.c **** 
 373:../../libDaisy//Middlewares/Third_Party/FatFs/src/ff.c **** #define BPB_ZeroedEx		11		/* exFAT: MBZ field (53-byte) */
ARM GAS  C:\Users\danig\AppData\Local\Temp\ccGhRbic.s 			page 8


 374:../../libDaisy//Middlewares/Third_Party/FatFs/src/ff.c **** #define BPB_VolOfsEx		64		/* exFAT: Volume offset from top of the drive [sector] (QWORD) */
 375:../../libDaisy//Middlewares/Third_Party/FatFs/src/ff.c **** #define BPB_TotSecEx		72		/* exFAT: Volume size [sector] (QWORD) */
 376:../../libDaisy//Middlewares/Third_Party/FatFs/src/ff.c **** #define BPB_FatOfsEx		80		/* exFAT: FAT offset from top of the volume [sector] (DWORD) */
 377:../../libDaisy//Middlewares/Third_Party/FatFs/src/ff.c **** #define BPB_FatSzEx			84		/* exFAT: FAT size [sector] (DWORD) */
 378:../../libDaisy//Middlewares/Third_Party/FatFs/src/ff.c **** #define BPB_DataOfsEx		88		/* exFAT: Data offset from top of the volume [sector] (DWORD) */
 379:../../libDaisy//Middlewares/Third_Party/FatFs/src/ff.c **** #define BPB_NumClusEx		92		/* exFAT: Number of clusters (DWORD) */
 380:../../libDaisy//Middlewares/Third_Party/FatFs/src/ff.c **** #define BPB_RootClusEx		96		/* exFAT: Root directory start cluster (DWORD) */
 381:../../libDaisy//Middlewares/Third_Party/FatFs/src/ff.c **** #define BPB_VolIDEx			100		/* exFAT: Volume serial number (DWORD) */
 382:../../libDaisy//Middlewares/Third_Party/FatFs/src/ff.c **** #define BPB_FSVerEx			104		/* exFAT: File system version (WORD) */
 383:../../libDaisy//Middlewares/Third_Party/FatFs/src/ff.c **** #define BPB_VolFlagEx		106		/* exFAT: Volume flags (BYTE) */
 384:../../libDaisy//Middlewares/Third_Party/FatFs/src/ff.c **** #define BPB_ActFatEx		107		/* exFAT: Active FAT flags (BYTE) */
 385:../../libDaisy//Middlewares/Third_Party/FatFs/src/ff.c **** #define BPB_BytsPerSecEx	108		/* exFAT: Log2 of sector size in unit of byte (BYTE) */
 386:../../libDaisy//Middlewares/Third_Party/FatFs/src/ff.c **** #define BPB_SecPerClusEx	109		/* exFAT: Log2 of cluster size in unit of sector (BYTE) */
 387:../../libDaisy//Middlewares/Third_Party/FatFs/src/ff.c **** #define BPB_NumFATsEx		110		/* exFAT: Number of FATs (BYTE) */
 388:../../libDaisy//Middlewares/Third_Party/FatFs/src/ff.c **** #define BPB_DrvNumEx		111		/* exFAT: Physical drive number for int13h (BYTE) */
 389:../../libDaisy//Middlewares/Third_Party/FatFs/src/ff.c **** #define BPB_PercInUseEx		112		/* exFAT: Percent in use (BYTE) */
 390:../../libDaisy//Middlewares/Third_Party/FatFs/src/ff.c **** #define	BPB_RsvdEx			113		/* exFAT: Reserved (7-byte) */
 391:../../libDaisy//Middlewares/Third_Party/FatFs/src/ff.c **** #define BS_BootCodeEx		120		/* exFAT: Boot code (390-byte) */
 392:../../libDaisy//Middlewares/Third_Party/FatFs/src/ff.c **** 
 393:../../libDaisy//Middlewares/Third_Party/FatFs/src/ff.c **** #define	DIR_Name			0		/* Short file name (11-byte) */
 394:../../libDaisy//Middlewares/Third_Party/FatFs/src/ff.c **** #define	DIR_Attr			11		/* Attribute (BYTE) */
 395:../../libDaisy//Middlewares/Third_Party/FatFs/src/ff.c **** #define	DIR_NTres			12		/* Lower case flag (BYTE) */
 396:../../libDaisy//Middlewares/Third_Party/FatFs/src/ff.c **** #define DIR_CrtTime10		13		/* Created time sub-second (BYTE) */
 397:../../libDaisy//Middlewares/Third_Party/FatFs/src/ff.c **** #define	DIR_CrtTime			14		/* Created time (DWORD) */
 398:../../libDaisy//Middlewares/Third_Party/FatFs/src/ff.c **** #define DIR_LstAccDate		18		/* Last accessed date (WORD) */
 399:../../libDaisy//Middlewares/Third_Party/FatFs/src/ff.c **** #define	DIR_FstClusHI		20		/* Higher 16-bit of first cluster (WORD) */
 400:../../libDaisy//Middlewares/Third_Party/FatFs/src/ff.c **** #define	DIR_ModTime			22		/* Modified time (DWORD) */
 401:../../libDaisy//Middlewares/Third_Party/FatFs/src/ff.c **** #define	DIR_FstClusLO		26		/* Lower 16-bit of first cluster (WORD) */
 402:../../libDaisy//Middlewares/Third_Party/FatFs/src/ff.c **** #define	DIR_FileSize		28		/* File size (DWORD) */
 403:../../libDaisy//Middlewares/Third_Party/FatFs/src/ff.c **** #define	LDIR_Ord			0		/* LFN: LFN order and LLE flag (BYTE) */
 404:../../libDaisy//Middlewares/Third_Party/FatFs/src/ff.c **** #define	LDIR_Attr			11		/* LFN: LFN attribute (BYTE) */
 405:../../libDaisy//Middlewares/Third_Party/FatFs/src/ff.c **** #define	LDIR_Type			12		/* LFN: Entry type (BYTE) */
 406:../../libDaisy//Middlewares/Third_Party/FatFs/src/ff.c **** #define	LDIR_Chksum			13		/* LFN: Checksum of the SFN (BYTE) */
 407:../../libDaisy//Middlewares/Third_Party/FatFs/src/ff.c **** #define	LDIR_FstClusLO		26		/* LFN: MBZ field (WORD) */
 408:../../libDaisy//Middlewares/Third_Party/FatFs/src/ff.c **** #define	XDIR_Type			0		/* exFAT: Type of exFAT directory entry (BYTE) */
 409:../../libDaisy//Middlewares/Third_Party/FatFs/src/ff.c **** #define	XDIR_NumLabel		1		/* exFAT: Number of volume label characters (BYTE) */
 410:../../libDaisy//Middlewares/Third_Party/FatFs/src/ff.c **** #define	XDIR_Label			2		/* exFAT: Volume label (11-WORD) */
 411:../../libDaisy//Middlewares/Third_Party/FatFs/src/ff.c **** #define	XDIR_CaseSum		4		/* exFAT: Sum of case conversion table (DWORD) */
 412:../../libDaisy//Middlewares/Third_Party/FatFs/src/ff.c **** #define	XDIR_NumSec			1		/* exFAT: Number of secondary entries (BYTE) */
 413:../../libDaisy//Middlewares/Third_Party/FatFs/src/ff.c **** #define	XDIR_SetSum			2		/* exFAT: Sum of the set of directory entries (WORD) */
 414:../../libDaisy//Middlewares/Third_Party/FatFs/src/ff.c **** #define	XDIR_Attr			4		/* exFAT: File attribute (WORD) */
 415:../../libDaisy//Middlewares/Third_Party/FatFs/src/ff.c **** #define	XDIR_CrtTime		8		/* exFAT: Created time (DWORD) */
 416:../../libDaisy//Middlewares/Third_Party/FatFs/src/ff.c **** #define	XDIR_ModTime		12		/* exFAT: Modified time (DWORD) */
 417:../../libDaisy//Middlewares/Third_Party/FatFs/src/ff.c **** #define	XDIR_AccTime		16		/* exFAT: Last accessed time (DWORD) */
 418:../../libDaisy//Middlewares/Third_Party/FatFs/src/ff.c **** #define	XDIR_CrtTime10		20		/* exFAT: Created time subsecond (BYTE) */
 419:../../libDaisy//Middlewares/Third_Party/FatFs/src/ff.c **** #define	XDIR_ModTime10		21		/* exFAT: Modified time subsecond (BYTE) */
 420:../../libDaisy//Middlewares/Third_Party/FatFs/src/ff.c **** #define	XDIR_CrtTZ			22		/* exFAT: Created timezone (BYTE) */
 421:../../libDaisy//Middlewares/Third_Party/FatFs/src/ff.c **** #define	XDIR_ModTZ			23		/* exFAT: Modified timezone (BYTE) */
 422:../../libDaisy//Middlewares/Third_Party/FatFs/src/ff.c **** #define	XDIR_AccTZ			24		/* exFAT: Last accessed timezone (BYTE) */
 423:../../libDaisy//Middlewares/Third_Party/FatFs/src/ff.c **** #define	XDIR_GenFlags		33		/* exFAT: General secondary flags (WORD) */
 424:../../libDaisy//Middlewares/Third_Party/FatFs/src/ff.c **** #define	XDIR_NumName		35		/* exFAT: Number of file name characters (BYTE) */
 425:../../libDaisy//Middlewares/Third_Party/FatFs/src/ff.c **** #define	XDIR_NameHash		36		/* exFAT: Hash of file name (WORD) */
 426:../../libDaisy//Middlewares/Third_Party/FatFs/src/ff.c **** #define XDIR_ValidFileSize	40		/* exFAT: Valid file size (QWORD) */
 427:../../libDaisy//Middlewares/Third_Party/FatFs/src/ff.c **** #define	XDIR_FstClus		52		/* exFAT: First cluster of the file data (DWORD) */
 428:../../libDaisy//Middlewares/Third_Party/FatFs/src/ff.c **** #define	XDIR_FileSize		56		/* exFAT: File/Directory size (QWORD) */
 429:../../libDaisy//Middlewares/Third_Party/FatFs/src/ff.c **** 
 430:../../libDaisy//Middlewares/Third_Party/FatFs/src/ff.c **** #define	SZDIRE				32		/* Size of a directory entry */
ARM GAS  C:\Users\danig\AppData\Local\Temp\ccGhRbic.s 			page 9


 431:../../libDaisy//Middlewares/Third_Party/FatFs/src/ff.c **** #define	DDEM				0xE5	/* Deleted directory entry mark set to DIR_Name[0] */
 432:../../libDaisy//Middlewares/Third_Party/FatFs/src/ff.c **** #define	RDDEM				0x05	/* Replacement of the character collides with DDEM */
 433:../../libDaisy//Middlewares/Third_Party/FatFs/src/ff.c **** #define	LLEF				0x40	/* Last long entry flag in LDIR_Ord */
 434:../../libDaisy//Middlewares/Third_Party/FatFs/src/ff.c **** 
 435:../../libDaisy//Middlewares/Third_Party/FatFs/src/ff.c **** #define	FSI_LeadSig			0		/* FAT32 FSI: Leading signature (DWORD) */
 436:../../libDaisy//Middlewares/Third_Party/FatFs/src/ff.c **** #define	FSI_StrucSig		484		/* FAT32 FSI: Structure signature (DWORD) */
 437:../../libDaisy//Middlewares/Third_Party/FatFs/src/ff.c **** #define	FSI_Free_Count		488		/* FAT32 FSI: Number of free clusters (DWORD) */
 438:../../libDaisy//Middlewares/Third_Party/FatFs/src/ff.c **** #define	FSI_Nxt_Free		492		/* FAT32 FSI: Last allocated cluster (DWORD) */
 439:../../libDaisy//Middlewares/Third_Party/FatFs/src/ff.c **** 
 440:../../libDaisy//Middlewares/Third_Party/FatFs/src/ff.c **** #define MBR_Table			446		/* MBR: Offset of partition table in the MBR */
 441:../../libDaisy//Middlewares/Third_Party/FatFs/src/ff.c **** #define	SZ_PTE				16		/* MBR: Size of a partition table entry */
 442:../../libDaisy//Middlewares/Third_Party/FatFs/src/ff.c **** #define PTE_Boot			0		/* MBR PTE: Boot indicator */
 443:../../libDaisy//Middlewares/Third_Party/FatFs/src/ff.c **** #define PTE_StHead			1		/* MBR PTE: Start head */
 444:../../libDaisy//Middlewares/Third_Party/FatFs/src/ff.c **** #define PTE_StSec			2		/* MBR PTE: Start sector */
 445:../../libDaisy//Middlewares/Third_Party/FatFs/src/ff.c **** #define PTE_StCyl			3		/* MBR PTE: Start cylinder */
 446:../../libDaisy//Middlewares/Third_Party/FatFs/src/ff.c **** #define PTE_System			4		/* MBR PTE: System ID */
 447:../../libDaisy//Middlewares/Third_Party/FatFs/src/ff.c **** #define PTE_EdHead			5		/* MBR PTE: End head */
 448:../../libDaisy//Middlewares/Third_Party/FatFs/src/ff.c **** #define PTE_EdSec			6		/* MBR PTE: End sector */
 449:../../libDaisy//Middlewares/Third_Party/FatFs/src/ff.c **** #define PTE_EdCyl			7		/* MBR PTE: End cylinder */
 450:../../libDaisy//Middlewares/Third_Party/FatFs/src/ff.c **** #define PTE_StLba			8		/* MBR PTE: Start in LBA */
 451:../../libDaisy//Middlewares/Third_Party/FatFs/src/ff.c **** #define PTE_SizLba			12		/* MBR PTE: Size in LBA */
 452:../../libDaisy//Middlewares/Third_Party/FatFs/src/ff.c **** 
 453:../../libDaisy//Middlewares/Third_Party/FatFs/src/ff.c **** 
 454:../../libDaisy//Middlewares/Third_Party/FatFs/src/ff.c **** /* Post process after fatal error on file operation */
 455:../../libDaisy//Middlewares/Third_Party/FatFs/src/ff.c **** #define	ABORT(fs, res)		{ fp->err = (BYTE)(res); LEAVE_FF(fs, res); }
 456:../../libDaisy//Middlewares/Third_Party/FatFs/src/ff.c **** 
 457:../../libDaisy//Middlewares/Third_Party/FatFs/src/ff.c **** 
 458:../../libDaisy//Middlewares/Third_Party/FatFs/src/ff.c **** /* Reentrancy related */
 459:../../libDaisy//Middlewares/Third_Party/FatFs/src/ff.c **** #if _FS_REENTRANT
 460:../../libDaisy//Middlewares/Third_Party/FatFs/src/ff.c **** #if _USE_LFN == 1
 461:../../libDaisy//Middlewares/Third_Party/FatFs/src/ff.c **** #error Static LFN work area cannot be used at thread-safe configuration
 462:../../libDaisy//Middlewares/Third_Party/FatFs/src/ff.c **** #endif
 463:../../libDaisy//Middlewares/Third_Party/FatFs/src/ff.c **** #define	ENTER_FF(fs)		{ if (!lock_fs(fs)) return FR_TIMEOUT; }
 464:../../libDaisy//Middlewares/Third_Party/FatFs/src/ff.c **** #define	LEAVE_FF(fs, res)	{ unlock_fs(fs, res); return res; }
 465:../../libDaisy//Middlewares/Third_Party/FatFs/src/ff.c **** #else
 466:../../libDaisy//Middlewares/Third_Party/FatFs/src/ff.c **** #define	ENTER_FF(fs)
 467:../../libDaisy//Middlewares/Third_Party/FatFs/src/ff.c **** #define LEAVE_FF(fs, res)	return res
 468:../../libDaisy//Middlewares/Third_Party/FatFs/src/ff.c **** #endif
 469:../../libDaisy//Middlewares/Third_Party/FatFs/src/ff.c **** 
 470:../../libDaisy//Middlewares/Third_Party/FatFs/src/ff.c **** 
 471:../../libDaisy//Middlewares/Third_Party/FatFs/src/ff.c **** /* Definitions of volume - partition conversion */
 472:../../libDaisy//Middlewares/Third_Party/FatFs/src/ff.c **** #if _MULTI_PARTITION
 473:../../libDaisy//Middlewares/Third_Party/FatFs/src/ff.c **** #define LD2PD(vol) VolToPart[vol].pd	/* Get physical drive number */
 474:../../libDaisy//Middlewares/Third_Party/FatFs/src/ff.c **** #define LD2PT(vol) VolToPart[vol].pt	/* Get partition index */
 475:../../libDaisy//Middlewares/Third_Party/FatFs/src/ff.c **** #else
 476:../../libDaisy//Middlewares/Third_Party/FatFs/src/ff.c **** #define LD2PD(vol) (BYTE)(vol)	/* Each logical drive is bound to the same physical drive number */
 477:../../libDaisy//Middlewares/Third_Party/FatFs/src/ff.c **** #define LD2PT(vol) 0			/* Find first valid partition or in SFD */
 478:../../libDaisy//Middlewares/Third_Party/FatFs/src/ff.c **** #endif
 479:../../libDaisy//Middlewares/Third_Party/FatFs/src/ff.c **** 
 480:../../libDaisy//Middlewares/Third_Party/FatFs/src/ff.c **** 
 481:../../libDaisy//Middlewares/Third_Party/FatFs/src/ff.c **** /* Definitions of sector size */
 482:../../libDaisy//Middlewares/Third_Party/FatFs/src/ff.c **** #if (_MAX_SS < _MIN_SS) || (_MAX_SS != 512 && _MAX_SS != 1024 && _MAX_SS != 2048 && _MAX_SS != 4096
 483:../../libDaisy//Middlewares/Third_Party/FatFs/src/ff.c **** #error Wrong sector size configuration
 484:../../libDaisy//Middlewares/Third_Party/FatFs/src/ff.c **** #endif
 485:../../libDaisy//Middlewares/Third_Party/FatFs/src/ff.c **** #if _MAX_SS == _MIN_SS
 486:../../libDaisy//Middlewares/Third_Party/FatFs/src/ff.c **** #define	SS(fs)	((UINT)_MAX_SS)	/* Fixed sector size */
 487:../../libDaisy//Middlewares/Third_Party/FatFs/src/ff.c **** #else
ARM GAS  C:\Users\danig\AppData\Local\Temp\ccGhRbic.s 			page 10


 488:../../libDaisy//Middlewares/Third_Party/FatFs/src/ff.c **** #define	SS(fs)	((fs)->ssize)	/* Variable sector size */
 489:../../libDaisy//Middlewares/Third_Party/FatFs/src/ff.c **** #endif
 490:../../libDaisy//Middlewares/Third_Party/FatFs/src/ff.c **** 
 491:../../libDaisy//Middlewares/Third_Party/FatFs/src/ff.c **** 
 492:../../libDaisy//Middlewares/Third_Party/FatFs/src/ff.c **** /* Timestamp */
 493:../../libDaisy//Middlewares/Third_Party/FatFs/src/ff.c **** #if _FS_NORTC == 1
 494:../../libDaisy//Middlewares/Third_Party/FatFs/src/ff.c **** #if _NORTC_YEAR < 1980 || _NORTC_YEAR > 2107 || _NORTC_MON < 1 || _NORTC_MON > 12 || _NORTC_MDAY < 
 495:../../libDaisy//Middlewares/Third_Party/FatFs/src/ff.c **** #error Invalid _FS_NORTC settings
 496:../../libDaisy//Middlewares/Third_Party/FatFs/src/ff.c **** #endif
 497:../../libDaisy//Middlewares/Third_Party/FatFs/src/ff.c **** #define GET_FATTIME()	((DWORD)(_NORTC_YEAR - 1980) << 25 | (DWORD)_NORTC_MON << 21 | (DWORD)_NORTC_
 498:../../libDaisy//Middlewares/Third_Party/FatFs/src/ff.c **** #else
 499:../../libDaisy//Middlewares/Third_Party/FatFs/src/ff.c **** #define GET_FATTIME()	get_fattime()
 500:../../libDaisy//Middlewares/Third_Party/FatFs/src/ff.c **** #endif
 501:../../libDaisy//Middlewares/Third_Party/FatFs/src/ff.c **** 
 502:../../libDaisy//Middlewares/Third_Party/FatFs/src/ff.c **** 
 503:../../libDaisy//Middlewares/Third_Party/FatFs/src/ff.c **** /* File lock controls */
 504:../../libDaisy//Middlewares/Third_Party/FatFs/src/ff.c **** #if _FS_LOCK != 0
 505:../../libDaisy//Middlewares/Third_Party/FatFs/src/ff.c **** #if _FS_READONLY
 506:../../libDaisy//Middlewares/Third_Party/FatFs/src/ff.c **** #error _FS_LOCK must be 0 at read-only configuration
 507:../../libDaisy//Middlewares/Third_Party/FatFs/src/ff.c **** #endif
 508:../../libDaisy//Middlewares/Third_Party/FatFs/src/ff.c **** typedef struct {
 509:../../libDaisy//Middlewares/Third_Party/FatFs/src/ff.c **** 	FATFS *fs;		/* Object ID 1, volume (NULL:blank entry) */
 510:../../libDaisy//Middlewares/Third_Party/FatFs/src/ff.c **** 	DWORD clu;		/* Object ID 2, containing directory (0:root) */
 511:../../libDaisy//Middlewares/Third_Party/FatFs/src/ff.c **** 	DWORD ofs;		/* Object ID 3, offset in the directory */
 512:../../libDaisy//Middlewares/Third_Party/FatFs/src/ff.c **** 	WORD ctr;		/* Object open counter, 0:none, 0x01..0xFF:read mode open count, 0x100:write mode */
 513:../../libDaisy//Middlewares/Third_Party/FatFs/src/ff.c **** } FILESEM;
 514:../../libDaisy//Middlewares/Third_Party/FatFs/src/ff.c **** #endif
 515:../../libDaisy//Middlewares/Third_Party/FatFs/src/ff.c **** 
 516:../../libDaisy//Middlewares/Third_Party/FatFs/src/ff.c **** 
 517:../../libDaisy//Middlewares/Third_Party/FatFs/src/ff.c **** 
 518:../../libDaisy//Middlewares/Third_Party/FatFs/src/ff.c **** 
 519:../../libDaisy//Middlewares/Third_Party/FatFs/src/ff.c **** 
 520:../../libDaisy//Middlewares/Third_Party/FatFs/src/ff.c **** /*--------------------------------------------------------------------------
 521:../../libDaisy//Middlewares/Third_Party/FatFs/src/ff.c **** 
 522:../../libDaisy//Middlewares/Third_Party/FatFs/src/ff.c ****    Module Private Work Area
 523:../../libDaisy//Middlewares/Third_Party/FatFs/src/ff.c **** 
 524:../../libDaisy//Middlewares/Third_Party/FatFs/src/ff.c **** ---------------------------------------------------------------------------*/
 525:../../libDaisy//Middlewares/Third_Party/FatFs/src/ff.c **** 
 526:../../libDaisy//Middlewares/Third_Party/FatFs/src/ff.c **** /* Remark: Variables defined here without initial value shall be guaranteed
 527:../../libDaisy//Middlewares/Third_Party/FatFs/src/ff.c **** /  zero/null at start-up. If not, the linker option or start-up routine is
 528:../../libDaisy//Middlewares/Third_Party/FatFs/src/ff.c **** /  not compliance with C standard. */
 529:../../libDaisy//Middlewares/Third_Party/FatFs/src/ff.c **** 
 530:../../libDaisy//Middlewares/Third_Party/FatFs/src/ff.c **** #if _VOLUMES < 1 || _VOLUMES > 10
 531:../../libDaisy//Middlewares/Third_Party/FatFs/src/ff.c **** #error Wrong _VOLUMES setting
 532:../../libDaisy//Middlewares/Third_Party/FatFs/src/ff.c **** #endif
 533:../../libDaisy//Middlewares/Third_Party/FatFs/src/ff.c **** static FATFS *FatFs[_VOLUMES];	/* Pointer to the file system objects (logical drives) */
 534:../../libDaisy//Middlewares/Third_Party/FatFs/src/ff.c **** static WORD Fsid;				/* File system mount ID */
 535:../../libDaisy//Middlewares/Third_Party/FatFs/src/ff.c **** 
 536:../../libDaisy//Middlewares/Third_Party/FatFs/src/ff.c **** #if _FS_RPATH != 0 && _VOLUMES >= 2
 537:../../libDaisy//Middlewares/Third_Party/FatFs/src/ff.c **** static BYTE CurrVol;			/* Current drive */
 538:../../libDaisy//Middlewares/Third_Party/FatFs/src/ff.c **** #endif
 539:../../libDaisy//Middlewares/Third_Party/FatFs/src/ff.c **** 
 540:../../libDaisy//Middlewares/Third_Party/FatFs/src/ff.c **** #if _FS_LOCK != 0
 541:../../libDaisy//Middlewares/Third_Party/FatFs/src/ff.c **** static FILESEM Files[_FS_LOCK];	/* Open object lock semaphores */
 542:../../libDaisy//Middlewares/Third_Party/FatFs/src/ff.c **** #endif
 543:../../libDaisy//Middlewares/Third_Party/FatFs/src/ff.c **** 
 544:../../libDaisy//Middlewares/Third_Party/FatFs/src/ff.c **** #if _USE_LFN == 0		/* Non-LFN configuration */
ARM GAS  C:\Users\danig\AppData\Local\Temp\ccGhRbic.s 			page 11


 545:../../libDaisy//Middlewares/Third_Party/FatFs/src/ff.c **** #define	DEF_NAMBUF
 546:../../libDaisy//Middlewares/Third_Party/FatFs/src/ff.c **** #define INIT_NAMBUF(fs)
 547:../../libDaisy//Middlewares/Third_Party/FatFs/src/ff.c **** #define	FREE_NAMBUF()
 548:../../libDaisy//Middlewares/Third_Party/FatFs/src/ff.c **** 
 549:../../libDaisy//Middlewares/Third_Party/FatFs/src/ff.c **** #else					/* LFN configuration */
 550:../../libDaisy//Middlewares/Third_Party/FatFs/src/ff.c **** #if _MAX_LFN < 12 || _MAX_LFN > 255
 551:../../libDaisy//Middlewares/Third_Party/FatFs/src/ff.c **** #error Wrong _MAX_LFN value
 552:../../libDaisy//Middlewares/Third_Party/FatFs/src/ff.c **** #endif
 553:../../libDaisy//Middlewares/Third_Party/FatFs/src/ff.c **** #define MAXDIRB(nc)	((nc + 44U) / 15 * SZDIRE)
 554:../../libDaisy//Middlewares/Third_Party/FatFs/src/ff.c **** 
 555:../../libDaisy//Middlewares/Third_Party/FatFs/src/ff.c **** #if _USE_LFN == 1		/* LFN enabled with static working buffer */
 556:../../libDaisy//Middlewares/Third_Party/FatFs/src/ff.c **** #if _FS_EXFAT
 557:../../libDaisy//Middlewares/Third_Party/FatFs/src/ff.c **** static BYTE	DirBuf[MAXDIRB(_MAX_LFN)];	/* Directory entry block scratchpad buffer */
 558:../../libDaisy//Middlewares/Third_Party/FatFs/src/ff.c **** #endif
 559:../../libDaisy//Middlewares/Third_Party/FatFs/src/ff.c **** static WCHAR LfnBuf[_MAX_LFN + 1];	/* LFN enabled with static working buffer */
 560:../../libDaisy//Middlewares/Third_Party/FatFs/src/ff.c **** #define	DEF_NAMBUF
 561:../../libDaisy//Middlewares/Third_Party/FatFs/src/ff.c **** #define INIT_NAMBUF(fs)
 562:../../libDaisy//Middlewares/Third_Party/FatFs/src/ff.c **** #define	FREE_NAMBUF()
 563:../../libDaisy//Middlewares/Third_Party/FatFs/src/ff.c **** 
 564:../../libDaisy//Middlewares/Third_Party/FatFs/src/ff.c **** #elif _USE_LFN == 2 	/* LFN enabled with dynamic working buffer on the stack */
 565:../../libDaisy//Middlewares/Third_Party/FatFs/src/ff.c **** #if _FS_EXFAT
 566:../../libDaisy//Middlewares/Third_Party/FatFs/src/ff.c **** #define	DEF_NAMBUF		WCHAR lbuf[_MAX_LFN+1]; BYTE dbuf[MAXDIRB(_MAX_LFN)];
 567:../../libDaisy//Middlewares/Third_Party/FatFs/src/ff.c **** #define INIT_NAMBUF(fs)	{ (fs)->lfnbuf = lbuf; (fs)->dirbuf = dbuf; }
 568:../../libDaisy//Middlewares/Third_Party/FatFs/src/ff.c **** #define	FREE_NAMBUF()
 569:../../libDaisy//Middlewares/Third_Party/FatFs/src/ff.c **** #else
 570:../../libDaisy//Middlewares/Third_Party/FatFs/src/ff.c **** #define	DEF_NAMBUF		WCHAR lbuf[_MAX_LFN+1];
 571:../../libDaisy//Middlewares/Third_Party/FatFs/src/ff.c **** #define INIT_NAMBUF(fs)	{ (fs)->lfnbuf = lbuf; }
 572:../../libDaisy//Middlewares/Third_Party/FatFs/src/ff.c **** #define	FREE_NAMBUF()
 573:../../libDaisy//Middlewares/Third_Party/FatFs/src/ff.c **** #endif
 574:../../libDaisy//Middlewares/Third_Party/FatFs/src/ff.c **** 
 575:../../libDaisy//Middlewares/Third_Party/FatFs/src/ff.c **** #elif _USE_LFN == 3 	/* LFN enabled with dynamic working buffer on the heap */
 576:../../libDaisy//Middlewares/Third_Party/FatFs/src/ff.c **** #if _FS_EXFAT
 577:../../libDaisy//Middlewares/Third_Party/FatFs/src/ff.c **** #define	DEF_NAMBUF		WCHAR *lfn;
 578:../../libDaisy//Middlewares/Third_Party/FatFs/src/ff.c **** #define INIT_NAMBUF(fs)	{ lfn = ff_memalloc((_MAX_LFN+1)*2 + MAXDIRB(_MAX_LFN)); if (!lfn) LEAVE_FF
 579:../../libDaisy//Middlewares/Third_Party/FatFs/src/ff.c **** #define	FREE_NAMBUF()	ff_memfree(lfn)
 580:../../libDaisy//Middlewares/Third_Party/FatFs/src/ff.c **** #else
 581:../../libDaisy//Middlewares/Third_Party/FatFs/src/ff.c **** #define	DEF_NAMBUF		WCHAR *lfn;
 582:../../libDaisy//Middlewares/Third_Party/FatFs/src/ff.c **** #define INIT_NAMBUF(fs)	{ lfn = ff_memalloc((_MAX_LFN+1)*2); if (!lfn) LEAVE_FF(fs, FR_NOT_ENOUGH_C
 583:../../libDaisy//Middlewares/Third_Party/FatFs/src/ff.c **** #define	FREE_NAMBUF()	ff_memfree(lfn)
 584:../../libDaisy//Middlewares/Third_Party/FatFs/src/ff.c **** #endif
 585:../../libDaisy//Middlewares/Third_Party/FatFs/src/ff.c **** 
 586:../../libDaisy//Middlewares/Third_Party/FatFs/src/ff.c **** #else
 587:../../libDaisy//Middlewares/Third_Party/FatFs/src/ff.c **** #error Wrong _USE_LFN setting
 588:../../libDaisy//Middlewares/Third_Party/FatFs/src/ff.c **** 
 589:../../libDaisy//Middlewares/Third_Party/FatFs/src/ff.c **** #endif
 590:../../libDaisy//Middlewares/Third_Party/FatFs/src/ff.c **** #endif	/* else _USE_LFN == 0 */
 591:../../libDaisy//Middlewares/Third_Party/FatFs/src/ff.c **** 
 592:../../libDaisy//Middlewares/Third_Party/FatFs/src/ff.c **** #ifdef _EXCVT
 593:../../libDaisy//Middlewares/Third_Party/FatFs/src/ff.c **** static const BYTE ExCvt[] = _EXCVT;	/* Upper conversion table for SBCS extended characters */
 594:../../libDaisy//Middlewares/Third_Party/FatFs/src/ff.c **** #endif
 595:../../libDaisy//Middlewares/Third_Party/FatFs/src/ff.c **** 
 596:../../libDaisy//Middlewares/Third_Party/FatFs/src/ff.c **** 
 597:../../libDaisy//Middlewares/Third_Party/FatFs/src/ff.c **** 
 598:../../libDaisy//Middlewares/Third_Party/FatFs/src/ff.c **** 
 599:../../libDaisy//Middlewares/Third_Party/FatFs/src/ff.c **** 
 600:../../libDaisy//Middlewares/Third_Party/FatFs/src/ff.c **** 
 601:../../libDaisy//Middlewares/Third_Party/FatFs/src/ff.c **** /*--------------------------------------------------------------------------
ARM GAS  C:\Users\danig\AppData\Local\Temp\ccGhRbic.s 			page 12


 602:../../libDaisy//Middlewares/Third_Party/FatFs/src/ff.c **** 
 603:../../libDaisy//Middlewares/Third_Party/FatFs/src/ff.c ****    Module Private Functions
 604:../../libDaisy//Middlewares/Third_Party/FatFs/src/ff.c **** 
 605:../../libDaisy//Middlewares/Third_Party/FatFs/src/ff.c **** ---------------------------------------------------------------------------*/
 606:../../libDaisy//Middlewares/Third_Party/FatFs/src/ff.c **** 
 607:../../libDaisy//Middlewares/Third_Party/FatFs/src/ff.c **** 
 608:../../libDaisy//Middlewares/Third_Party/FatFs/src/ff.c **** /*-----------------------------------------------------------------------*/
 609:../../libDaisy//Middlewares/Third_Party/FatFs/src/ff.c **** /* Load/Store multi-byte word in the FAT structure                       */
 610:../../libDaisy//Middlewares/Third_Party/FatFs/src/ff.c **** /*-----------------------------------------------------------------------*/
 611:../../libDaisy//Middlewares/Third_Party/FatFs/src/ff.c **** 
 612:../../libDaisy//Middlewares/Third_Party/FatFs/src/ff.c **** static
 613:../../libDaisy//Middlewares/Third_Party/FatFs/src/ff.c **** WORD ld_word (const BYTE* ptr)	/*	 Load a 2-byte little-endian word */
 614:../../libDaisy//Middlewares/Third_Party/FatFs/src/ff.c **** {
 615:../../libDaisy//Middlewares/Third_Party/FatFs/src/ff.c **** 	WORD rv;
 616:../../libDaisy//Middlewares/Third_Party/FatFs/src/ff.c **** 
 617:../../libDaisy//Middlewares/Third_Party/FatFs/src/ff.c **** 	rv = ptr[1];
 618:../../libDaisy//Middlewares/Third_Party/FatFs/src/ff.c **** 	rv = rv << 8 | ptr[0];
 619:../../libDaisy//Middlewares/Third_Party/FatFs/src/ff.c **** 	return rv;
 620:../../libDaisy//Middlewares/Third_Party/FatFs/src/ff.c **** }
 621:../../libDaisy//Middlewares/Third_Party/FatFs/src/ff.c **** 
 622:../../libDaisy//Middlewares/Third_Party/FatFs/src/ff.c **** static
 623:../../libDaisy//Middlewares/Third_Party/FatFs/src/ff.c **** DWORD ld_dword (const BYTE* ptr)	/* Load a 4-byte little-endian word */
 624:../../libDaisy//Middlewares/Third_Party/FatFs/src/ff.c **** {
  28              		.loc 1 624 1 view -0
  29              		.cfi_startproc
  30              		@ args = 0, pretend = 0, frame = 0
  31              		@ frame_needed = 0, uses_anonymous_args = 0
  32              		@ link register save eliminated.
 625:../../libDaisy//Middlewares/Third_Party/FatFs/src/ff.c **** 	DWORD rv;
  33              		.loc 1 625 2 view .LVU1
 626:../../libDaisy//Middlewares/Third_Party/FatFs/src/ff.c **** 
 627:../../libDaisy//Middlewares/Third_Party/FatFs/src/ff.c **** 	rv = ptr[3];
  34              		.loc 1 627 2 view .LVU2
 628:../../libDaisy//Middlewares/Third_Party/FatFs/src/ff.c **** 	rv = rv << 8 | ptr[2];
  35              		.loc 1 628 2 view .LVU3
 629:../../libDaisy//Middlewares/Third_Party/FatFs/src/ff.c **** 	rv = rv << 8 | ptr[1];
  36              		.loc 1 629 2 view .LVU4
 630:../../libDaisy//Middlewares/Third_Party/FatFs/src/ff.c **** 	rv = rv << 8 | ptr[0];
  37              		.loc 1 630 2 view .LVU5
 631:../../libDaisy//Middlewares/Third_Party/FatFs/src/ff.c **** 	return rv;
  38              		.loc 1 631 2 view .LVU6
 632:../../libDaisy//Middlewares/Third_Party/FatFs/src/ff.c **** }
  39              		.loc 1 632 1 is_stmt 0 view .LVU7
  40 0000 0068     		ldr	r0, [r0]	@ unaligned
  41              	.LVL1:
  42              		.loc 1 632 1 view .LVU8
  43 0002 7047     		bx	lr
  44              		.cfi_endproc
  45              	.LFE338:
  47              		.section	.text.st_dword,"ax",%progbits
  48              		.align	1
  49              		.syntax unified
  50              		.thumb
  51              		.thumb_func
  52              		.fpu fpv5-d16
  54              	st_dword:
  55              	.LVL2:
ARM GAS  C:\Users\danig\AppData\Local\Temp\ccGhRbic.s 			page 13


  56              	.LFB340:
 633:../../libDaisy//Middlewares/Third_Party/FatFs/src/ff.c **** 
 634:../../libDaisy//Middlewares/Third_Party/FatFs/src/ff.c **** #if _FS_EXFAT
 635:../../libDaisy//Middlewares/Third_Party/FatFs/src/ff.c **** static
 636:../../libDaisy//Middlewares/Third_Party/FatFs/src/ff.c **** QWORD ld_qword (const BYTE* ptr)	/* Load an 8-byte little-endian word */
 637:../../libDaisy//Middlewares/Third_Party/FatFs/src/ff.c **** {
 638:../../libDaisy//Middlewares/Third_Party/FatFs/src/ff.c **** 	QWORD rv;
 639:../../libDaisy//Middlewares/Third_Party/FatFs/src/ff.c **** 
 640:../../libDaisy//Middlewares/Third_Party/FatFs/src/ff.c **** 	rv = ptr[7];
 641:../../libDaisy//Middlewares/Third_Party/FatFs/src/ff.c **** 	rv = rv << 8 | ptr[6];
 642:../../libDaisy//Middlewares/Third_Party/FatFs/src/ff.c **** 	rv = rv << 8 | ptr[5];
 643:../../libDaisy//Middlewares/Third_Party/FatFs/src/ff.c **** 	rv = rv << 8 | ptr[4];
 644:../../libDaisy//Middlewares/Third_Party/FatFs/src/ff.c **** 	rv = rv << 8 | ptr[3];
 645:../../libDaisy//Middlewares/Third_Party/FatFs/src/ff.c **** 	rv = rv << 8 | ptr[2];
 646:../../libDaisy//Middlewares/Third_Party/FatFs/src/ff.c **** 	rv = rv << 8 | ptr[1];
 647:../../libDaisy//Middlewares/Third_Party/FatFs/src/ff.c **** 	rv = rv << 8 | ptr[0];
 648:../../libDaisy//Middlewares/Third_Party/FatFs/src/ff.c **** 	return rv;
 649:../../libDaisy//Middlewares/Third_Party/FatFs/src/ff.c **** }
 650:../../libDaisy//Middlewares/Third_Party/FatFs/src/ff.c **** #endif
 651:../../libDaisy//Middlewares/Third_Party/FatFs/src/ff.c **** 
 652:../../libDaisy//Middlewares/Third_Party/FatFs/src/ff.c **** #if !_FS_READONLY
 653:../../libDaisy//Middlewares/Third_Party/FatFs/src/ff.c **** static
 654:../../libDaisy//Middlewares/Third_Party/FatFs/src/ff.c **** void st_word (BYTE* ptr, WORD val)	/* Store a 2-byte word in little-endian */
 655:../../libDaisy//Middlewares/Third_Party/FatFs/src/ff.c **** {
 656:../../libDaisy//Middlewares/Third_Party/FatFs/src/ff.c **** 	*ptr++ = (BYTE)val; val >>= 8;
 657:../../libDaisy//Middlewares/Third_Party/FatFs/src/ff.c **** 	*ptr++ = (BYTE)val;
 658:../../libDaisy//Middlewares/Third_Party/FatFs/src/ff.c **** }
 659:../../libDaisy//Middlewares/Third_Party/FatFs/src/ff.c **** 
 660:../../libDaisy//Middlewares/Third_Party/FatFs/src/ff.c **** static
 661:../../libDaisy//Middlewares/Third_Party/FatFs/src/ff.c **** void st_dword (BYTE* ptr, DWORD val)	/* Store a 4-byte word in little-endian */
 662:../../libDaisy//Middlewares/Third_Party/FatFs/src/ff.c **** {
  57              		.loc 1 662 1 is_stmt 1 view -0
  58              		.cfi_startproc
  59              		@ args = 0, pretend = 0, frame = 0
  60              		@ frame_needed = 0, uses_anonymous_args = 0
  61              		@ link register save eliminated.
 663:../../libDaisy//Middlewares/Third_Party/FatFs/src/ff.c **** 	*ptr++ = (BYTE)val; val >>= 8;
  62              		.loc 1 663 2 view .LVU10
  63              		.loc 1 663 26 is_stmt 0 view .LVU11
  64 0000 0B0A     		lsrs	r3, r1, #8
  65              		.loc 1 663 11 view .LVU12
  66 0002 0170     		strb	r1, [r0]
  67              		.loc 1 663 22 is_stmt 1 view .LVU13
  68              	.LVL3:
 664:../../libDaisy//Middlewares/Third_Party/FatFs/src/ff.c **** 	*ptr++ = (BYTE)val; val >>= 8;
  69              		.loc 1 664 2 view .LVU14
  70              		.loc 1 664 11 is_stmt 0 view .LVU15
  71 0004 4370     		strb	r3, [r0, #1]
  72              		.loc 1 664 22 is_stmt 1 view .LVU16
  73              	.LVL4:
 665:../../libDaisy//Middlewares/Third_Party/FatFs/src/ff.c **** 	*ptr++ = (BYTE)val; val >>= 8;
  74              		.loc 1 665 2 view .LVU17
 664:../../libDaisy//Middlewares/Third_Party/FatFs/src/ff.c **** 	*ptr++ = (BYTE)val; val >>= 8;
  75              		.loc 1 664 26 is_stmt 0 view .LVU18
  76 0006 0B0C     		lsrs	r3, r1, #16
  77              	.LVL5:
  78              		.loc 1 665 26 view .LVU19
ARM GAS  C:\Users\danig\AppData\Local\Temp\ccGhRbic.s 			page 14


  79 0008 090E     		lsrs	r1, r1, #24
  80              		.loc 1 665 11 view .LVU20
  81 000a 8370     		strb	r3, [r0, #2]
  82              		.loc 1 665 22 is_stmt 1 view .LVU21
  83              	.LVL6:
 666:../../libDaisy//Middlewares/Third_Party/FatFs/src/ff.c **** 	*ptr++ = (BYTE)val;
  84              		.loc 1 666 2 view .LVU22
  85              		.loc 1 666 11 is_stmt 0 view .LVU23
  86 000c C170     		strb	r1, [r0, #3]
 667:../../libDaisy//Middlewares/Third_Party/FatFs/src/ff.c **** }
  87              		.loc 1 667 1 view .LVU24
  88 000e 7047     		bx	lr
  89              		.cfi_endproc
  90              	.LFE340:
  92              		.section	.text.mem_set,"ax",%progbits
  93              		.align	1
  94              		.syntax unified
  95              		.thumb
  96              		.thumb_func
  97              		.fpu fpv5-d16
  99              	mem_set:
 100              	.LVL7:
 101              	.LFB342:
 668:../../libDaisy//Middlewares/Third_Party/FatFs/src/ff.c **** 
 669:../../libDaisy//Middlewares/Third_Party/FatFs/src/ff.c **** #if _FS_EXFAT
 670:../../libDaisy//Middlewares/Third_Party/FatFs/src/ff.c **** static
 671:../../libDaisy//Middlewares/Third_Party/FatFs/src/ff.c **** void st_qword (BYTE* ptr, QWORD val)	/* Store an 8-byte word in little-endian */
 672:../../libDaisy//Middlewares/Third_Party/FatFs/src/ff.c **** {
 673:../../libDaisy//Middlewares/Third_Party/FatFs/src/ff.c **** 	*ptr++ = (BYTE)val; val >>= 8;
 674:../../libDaisy//Middlewares/Third_Party/FatFs/src/ff.c **** 	*ptr++ = (BYTE)val; val >>= 8;
 675:../../libDaisy//Middlewares/Third_Party/FatFs/src/ff.c **** 	*ptr++ = (BYTE)val; val >>= 8;
 676:../../libDaisy//Middlewares/Third_Party/FatFs/src/ff.c **** 	*ptr++ = (BYTE)val; val >>= 8;
 677:../../libDaisy//Middlewares/Third_Party/FatFs/src/ff.c **** 	*ptr++ = (BYTE)val; val >>= 8;
 678:../../libDaisy//Middlewares/Third_Party/FatFs/src/ff.c **** 	*ptr++ = (BYTE)val; val >>= 8;
 679:../../libDaisy//Middlewares/Third_Party/FatFs/src/ff.c **** 	*ptr++ = (BYTE)val; val >>= 8;
 680:../../libDaisy//Middlewares/Third_Party/FatFs/src/ff.c **** 	*ptr++ = (BYTE)val;
 681:../../libDaisy//Middlewares/Third_Party/FatFs/src/ff.c **** }
 682:../../libDaisy//Middlewares/Third_Party/FatFs/src/ff.c **** #endif
 683:../../libDaisy//Middlewares/Third_Party/FatFs/src/ff.c **** #endif	/* !_FS_READONLY */
 684:../../libDaisy//Middlewares/Third_Party/FatFs/src/ff.c **** 
 685:../../libDaisy//Middlewares/Third_Party/FatFs/src/ff.c **** 
 686:../../libDaisy//Middlewares/Third_Party/FatFs/src/ff.c **** 
 687:../../libDaisy//Middlewares/Third_Party/FatFs/src/ff.c **** /*-----------------------------------------------------------------------*/
 688:../../libDaisy//Middlewares/Third_Party/FatFs/src/ff.c **** /* String functions                                                      */
 689:../../libDaisy//Middlewares/Third_Party/FatFs/src/ff.c **** /*-----------------------------------------------------------------------*/
 690:../../libDaisy//Middlewares/Third_Party/FatFs/src/ff.c **** 
 691:../../libDaisy//Middlewares/Third_Party/FatFs/src/ff.c **** /* Copy memory to memory */
 692:../../libDaisy//Middlewares/Third_Party/FatFs/src/ff.c **** static
 693:../../libDaisy//Middlewares/Third_Party/FatFs/src/ff.c **** void mem_cpy (void* dst, const void* src, UINT cnt) {
 694:../../libDaisy//Middlewares/Third_Party/FatFs/src/ff.c **** 	BYTE *d = (BYTE*)dst;
 695:../../libDaisy//Middlewares/Third_Party/FatFs/src/ff.c **** 	const BYTE *s = (const BYTE*)src;
 696:../../libDaisy//Middlewares/Third_Party/FatFs/src/ff.c **** 
 697:../../libDaisy//Middlewares/Third_Party/FatFs/src/ff.c **** 	if (cnt) {
 698:../../libDaisy//Middlewares/Third_Party/FatFs/src/ff.c **** 		do {
 699:../../libDaisy//Middlewares/Third_Party/FatFs/src/ff.c **** 			*d++ = *s++;
 700:../../libDaisy//Middlewares/Third_Party/FatFs/src/ff.c **** 		} while (--cnt);
 701:../../libDaisy//Middlewares/Third_Party/FatFs/src/ff.c **** 	}
ARM GAS  C:\Users\danig\AppData\Local\Temp\ccGhRbic.s 			page 15


 702:../../libDaisy//Middlewares/Third_Party/FatFs/src/ff.c **** }
 703:../../libDaisy//Middlewares/Third_Party/FatFs/src/ff.c **** 
 704:../../libDaisy//Middlewares/Third_Party/FatFs/src/ff.c **** /* Fill memory block */
 705:../../libDaisy//Middlewares/Third_Party/FatFs/src/ff.c **** static
 706:../../libDaisy//Middlewares/Third_Party/FatFs/src/ff.c **** void mem_set (void* dst, int val, UINT cnt) {
 102              		.loc 1 706 45 is_stmt 1 view -0
 103              		.cfi_startproc
 104              		@ args = 0, pretend = 0, frame = 0
 105              		@ frame_needed = 0, uses_anonymous_args = 0
 106              		@ link register save eliminated.
 707:../../libDaisy//Middlewares/Third_Party/FatFs/src/ff.c **** 	BYTE *d = (BYTE*)dst;
 107              		.loc 1 707 2 view .LVU26
 108              		.loc 1 707 2 is_stmt 0 view .LVU27
 109 0000 0244     		add	r2, r2, r0
 110              	.LVL8:
 111              	.L4:
 708:../../libDaisy//Middlewares/Third_Party/FatFs/src/ff.c **** 
 709:../../libDaisy//Middlewares/Third_Party/FatFs/src/ff.c **** 	do {
 112              		.loc 1 709 2 is_stmt 1 discriminator 1 view .LVU28
 710:../../libDaisy//Middlewares/Third_Party/FatFs/src/ff.c **** 		*d++ = (BYTE)val;
 113              		.loc 1 710 3 discriminator 1 view .LVU29
 114              		.loc 1 710 10 is_stmt 0 discriminator 1 view .LVU30
 115 0002 00F8011B 		strb	r1, [r0], #1
 116              	.LVL9:
 711:../../libDaisy//Middlewares/Third_Party/FatFs/src/ff.c **** 	} while (--cnt);
 117              		.loc 1 711 10 is_stmt 1 discriminator 1 view .LVU31
 118              		.loc 1 711 2 is_stmt 0 discriminator 1 view .LVU32
 119 0006 9042     		cmp	r0, r2
 120 0008 FBD1     		bne	.L4
 712:../../libDaisy//Middlewares/Third_Party/FatFs/src/ff.c **** }
 121              		.loc 1 712 1 view .LVU33
 122 000a 7047     		bx	lr
 123              		.cfi_endproc
 124              	.LFE342:
 126              		.section	.text.clust2sect,"ax",%progbits
 127              		.align	1
 128              		.syntax unified
 129              		.thumb
 130              		.thumb_func
 131              		.fpu fpv5-d16
 133              	clust2sect:
 134              	.LVL10:
 135              	.LFB348:
 713:../../libDaisy//Middlewares/Third_Party/FatFs/src/ff.c **** 
 714:../../libDaisy//Middlewares/Third_Party/FatFs/src/ff.c **** /* Compare memory block */
 715:../../libDaisy//Middlewares/Third_Party/FatFs/src/ff.c **** static
 716:../../libDaisy//Middlewares/Third_Party/FatFs/src/ff.c **** int mem_cmp (const void* dst, const void* src, UINT cnt) {	/* ZR:same, NZ:different */
 717:../../libDaisy//Middlewares/Third_Party/FatFs/src/ff.c **** 	const BYTE *d = (const BYTE *)dst, *s = (const BYTE *)src;
 718:../../libDaisy//Middlewares/Third_Party/FatFs/src/ff.c **** 	int r = 0;
 719:../../libDaisy//Middlewares/Third_Party/FatFs/src/ff.c **** 
 720:../../libDaisy//Middlewares/Third_Party/FatFs/src/ff.c **** 	do {
 721:../../libDaisy//Middlewares/Third_Party/FatFs/src/ff.c **** 		r = *d++ - *s++;
 722:../../libDaisy//Middlewares/Third_Party/FatFs/src/ff.c **** 	} while (--cnt && r == 0);
 723:../../libDaisy//Middlewares/Third_Party/FatFs/src/ff.c **** 
 724:../../libDaisy//Middlewares/Third_Party/FatFs/src/ff.c **** 	return r;
 725:../../libDaisy//Middlewares/Third_Party/FatFs/src/ff.c **** }
 726:../../libDaisy//Middlewares/Third_Party/FatFs/src/ff.c **** 
ARM GAS  C:\Users\danig\AppData\Local\Temp\ccGhRbic.s 			page 16


 727:../../libDaisy//Middlewares/Third_Party/FatFs/src/ff.c **** /* Check if chr is contained in the string */
 728:../../libDaisy//Middlewares/Third_Party/FatFs/src/ff.c **** static
 729:../../libDaisy//Middlewares/Third_Party/FatFs/src/ff.c **** int chk_chr (const char* str, int chr) {	/* NZ:contained, ZR:not contained */
 730:../../libDaisy//Middlewares/Third_Party/FatFs/src/ff.c **** 	while (*str && *str != chr) str++;
 731:../../libDaisy//Middlewares/Third_Party/FatFs/src/ff.c **** 	return *str;
 732:../../libDaisy//Middlewares/Third_Party/FatFs/src/ff.c **** }
 733:../../libDaisy//Middlewares/Third_Party/FatFs/src/ff.c **** 
 734:../../libDaisy//Middlewares/Third_Party/FatFs/src/ff.c **** 
 735:../../libDaisy//Middlewares/Third_Party/FatFs/src/ff.c **** 
 736:../../libDaisy//Middlewares/Third_Party/FatFs/src/ff.c **** 
 737:../../libDaisy//Middlewares/Third_Party/FatFs/src/ff.c **** #if _FS_REENTRANT
 738:../../libDaisy//Middlewares/Third_Party/FatFs/src/ff.c **** /*-----------------------------------------------------------------------*/
 739:../../libDaisy//Middlewares/Third_Party/FatFs/src/ff.c **** /* Request/Release grant to access the volume                            */
 740:../../libDaisy//Middlewares/Third_Party/FatFs/src/ff.c **** /*-----------------------------------------------------------------------*/
 741:../../libDaisy//Middlewares/Third_Party/FatFs/src/ff.c **** static
 742:../../libDaisy//Middlewares/Third_Party/FatFs/src/ff.c **** int lock_fs (
 743:../../libDaisy//Middlewares/Third_Party/FatFs/src/ff.c **** 	FATFS* fs		/* File system object */
 744:../../libDaisy//Middlewares/Third_Party/FatFs/src/ff.c **** )
 745:../../libDaisy//Middlewares/Third_Party/FatFs/src/ff.c **** {
 746:../../libDaisy//Middlewares/Third_Party/FatFs/src/ff.c **** 	return (fs && ff_req_grant(fs->sobj)) ? 1 : 0;
 747:../../libDaisy//Middlewares/Third_Party/FatFs/src/ff.c **** }
 748:../../libDaisy//Middlewares/Third_Party/FatFs/src/ff.c **** 
 749:../../libDaisy//Middlewares/Third_Party/FatFs/src/ff.c **** 
 750:../../libDaisy//Middlewares/Third_Party/FatFs/src/ff.c **** static
 751:../../libDaisy//Middlewares/Third_Party/FatFs/src/ff.c **** void unlock_fs (
 752:../../libDaisy//Middlewares/Third_Party/FatFs/src/ff.c **** 	FATFS* fs,		/* File system object */
 753:../../libDaisy//Middlewares/Third_Party/FatFs/src/ff.c **** 	FRESULT res		/* Result code to be returned */
 754:../../libDaisy//Middlewares/Third_Party/FatFs/src/ff.c **** )
 755:../../libDaisy//Middlewares/Third_Party/FatFs/src/ff.c **** {
 756:../../libDaisy//Middlewares/Third_Party/FatFs/src/ff.c **** 	if (fs && res != FR_NOT_ENABLED && res != FR_INVALID_DRIVE && res != FR_TIMEOUT) {
 757:../../libDaisy//Middlewares/Third_Party/FatFs/src/ff.c **** 		ff_rel_grant(fs->sobj);
 758:../../libDaisy//Middlewares/Third_Party/FatFs/src/ff.c **** 	}
 759:../../libDaisy//Middlewares/Third_Party/FatFs/src/ff.c **** }
 760:../../libDaisy//Middlewares/Third_Party/FatFs/src/ff.c **** 
 761:../../libDaisy//Middlewares/Third_Party/FatFs/src/ff.c **** #endif
 762:../../libDaisy//Middlewares/Third_Party/FatFs/src/ff.c **** 
 763:../../libDaisy//Middlewares/Third_Party/FatFs/src/ff.c **** 
 764:../../libDaisy//Middlewares/Third_Party/FatFs/src/ff.c **** 
 765:../../libDaisy//Middlewares/Third_Party/FatFs/src/ff.c **** #if _FS_LOCK != 0
 766:../../libDaisy//Middlewares/Third_Party/FatFs/src/ff.c **** /*-----------------------------------------------------------------------*/
 767:../../libDaisy//Middlewares/Third_Party/FatFs/src/ff.c **** /* File lock control functions                                           */
 768:../../libDaisy//Middlewares/Third_Party/FatFs/src/ff.c **** /*-----------------------------------------------------------------------*/
 769:../../libDaisy//Middlewares/Third_Party/FatFs/src/ff.c **** 
 770:../../libDaisy//Middlewares/Third_Party/FatFs/src/ff.c **** static
 771:../../libDaisy//Middlewares/Third_Party/FatFs/src/ff.c **** FRESULT chk_lock (	/* Check if the file can be accessed */
 772:../../libDaisy//Middlewares/Third_Party/FatFs/src/ff.c **** 	DIR* dp,		/* Directory object pointing the file to be checked */
 773:../../libDaisy//Middlewares/Third_Party/FatFs/src/ff.c **** 	int acc			/* Desired access type (0:Read, 1:Write, 2:Delete/Rename) */
 774:../../libDaisy//Middlewares/Third_Party/FatFs/src/ff.c **** )
 775:../../libDaisy//Middlewares/Third_Party/FatFs/src/ff.c **** {
 776:../../libDaisy//Middlewares/Third_Party/FatFs/src/ff.c **** 	UINT i, be;
 777:../../libDaisy//Middlewares/Third_Party/FatFs/src/ff.c **** 
 778:../../libDaisy//Middlewares/Third_Party/FatFs/src/ff.c **** 	/* Search file semaphore table */
 779:../../libDaisy//Middlewares/Third_Party/FatFs/src/ff.c **** 	for (i = be = 0; i < _FS_LOCK; i++) {
 780:../../libDaisy//Middlewares/Third_Party/FatFs/src/ff.c **** 		if (Files[i].fs) {	/* Existing entry */
 781:../../libDaisy//Middlewares/Third_Party/FatFs/src/ff.c **** 			if (Files[i].fs == dp->obj.fs &&	 	/* Check if the object matched with an open object */
 782:../../libDaisy//Middlewares/Third_Party/FatFs/src/ff.c **** 				Files[i].clu == dp->obj.sclust &&
 783:../../libDaisy//Middlewares/Third_Party/FatFs/src/ff.c **** 				Files[i].ofs == dp->dptr) break;
ARM GAS  C:\Users\danig\AppData\Local\Temp\ccGhRbic.s 			page 17


 784:../../libDaisy//Middlewares/Third_Party/FatFs/src/ff.c **** 		} else {			/* Blank entry */
 785:../../libDaisy//Middlewares/Third_Party/FatFs/src/ff.c **** 			be = 1;
 786:../../libDaisy//Middlewares/Third_Party/FatFs/src/ff.c **** 		}
 787:../../libDaisy//Middlewares/Third_Party/FatFs/src/ff.c **** 	}
 788:../../libDaisy//Middlewares/Third_Party/FatFs/src/ff.c **** 	if (i == _FS_LOCK) {	/* The object is not opened */
 789:../../libDaisy//Middlewares/Third_Party/FatFs/src/ff.c **** 		return (be || acc == 2) ? FR_OK : FR_TOO_MANY_OPEN_FILES;	/* Is there a blank entry for new objec
 790:../../libDaisy//Middlewares/Third_Party/FatFs/src/ff.c **** 	}
 791:../../libDaisy//Middlewares/Third_Party/FatFs/src/ff.c **** 
 792:../../libDaisy//Middlewares/Third_Party/FatFs/src/ff.c **** 	/* The object has been opened. Reject any open against writing file and all write mode open */
 793:../../libDaisy//Middlewares/Third_Party/FatFs/src/ff.c **** 	return (acc || Files[i].ctr == 0x100) ? FR_LOCKED : FR_OK;
 794:../../libDaisy//Middlewares/Third_Party/FatFs/src/ff.c **** }
 795:../../libDaisy//Middlewares/Third_Party/FatFs/src/ff.c **** 
 796:../../libDaisy//Middlewares/Third_Party/FatFs/src/ff.c **** 
 797:../../libDaisy//Middlewares/Third_Party/FatFs/src/ff.c **** static
 798:../../libDaisy//Middlewares/Third_Party/FatFs/src/ff.c **** int enq_lock (void)	/* Check if an entry is available for a new object */
 799:../../libDaisy//Middlewares/Third_Party/FatFs/src/ff.c **** {
 800:../../libDaisy//Middlewares/Third_Party/FatFs/src/ff.c **** 	UINT i;
 801:../../libDaisy//Middlewares/Third_Party/FatFs/src/ff.c **** 
 802:../../libDaisy//Middlewares/Third_Party/FatFs/src/ff.c **** 	for (i = 0; i < _FS_LOCK && Files[i].fs; i++) ;
 803:../../libDaisy//Middlewares/Third_Party/FatFs/src/ff.c **** 	return (i == _FS_LOCK) ? 0 : 1;
 804:../../libDaisy//Middlewares/Third_Party/FatFs/src/ff.c **** }
 805:../../libDaisy//Middlewares/Third_Party/FatFs/src/ff.c **** 
 806:../../libDaisy//Middlewares/Third_Party/FatFs/src/ff.c **** 
 807:../../libDaisy//Middlewares/Third_Party/FatFs/src/ff.c **** static
 808:../../libDaisy//Middlewares/Third_Party/FatFs/src/ff.c **** UINT inc_lock (	/* Increment object open counter and returns its index (0:Internal error) */
 809:../../libDaisy//Middlewares/Third_Party/FatFs/src/ff.c **** 	DIR* dp,	/* Directory object pointing the file to register or increment */
 810:../../libDaisy//Middlewares/Third_Party/FatFs/src/ff.c **** 	int acc		/* Desired access (0:Read, 1:Write, 2:Delete/Rename) */
 811:../../libDaisy//Middlewares/Third_Party/FatFs/src/ff.c **** )
 812:../../libDaisy//Middlewares/Third_Party/FatFs/src/ff.c **** {
 813:../../libDaisy//Middlewares/Third_Party/FatFs/src/ff.c **** 	UINT i;
 814:../../libDaisy//Middlewares/Third_Party/FatFs/src/ff.c **** 
 815:../../libDaisy//Middlewares/Third_Party/FatFs/src/ff.c **** 
 816:../../libDaisy//Middlewares/Third_Party/FatFs/src/ff.c **** 	for (i = 0; i < _FS_LOCK; i++) {	/* Find the object */
 817:../../libDaisy//Middlewares/Third_Party/FatFs/src/ff.c **** 		if (Files[i].fs == dp->obj.fs &&
 818:../../libDaisy//Middlewares/Third_Party/FatFs/src/ff.c **** 			Files[i].clu == dp->obj.sclust &&
 819:../../libDaisy//Middlewares/Third_Party/FatFs/src/ff.c **** 			Files[i].ofs == dp->dptr) break;
 820:../../libDaisy//Middlewares/Third_Party/FatFs/src/ff.c **** 	}
 821:../../libDaisy//Middlewares/Third_Party/FatFs/src/ff.c **** 
 822:../../libDaisy//Middlewares/Third_Party/FatFs/src/ff.c **** 	if (i == _FS_LOCK) {				/* Not opened. Register it as new. */
 823:../../libDaisy//Middlewares/Third_Party/FatFs/src/ff.c **** 		for (i = 0; i < _FS_LOCK && Files[i].fs; i++) ;
 824:../../libDaisy//Middlewares/Third_Party/FatFs/src/ff.c **** 		if (i == _FS_LOCK) return 0;	/* No free entry to register (int err) */
 825:../../libDaisy//Middlewares/Third_Party/FatFs/src/ff.c **** 		Files[i].fs = dp->obj.fs;
 826:../../libDaisy//Middlewares/Third_Party/FatFs/src/ff.c **** 		Files[i].clu = dp->obj.sclust;
 827:../../libDaisy//Middlewares/Third_Party/FatFs/src/ff.c **** 		Files[i].ofs = dp->dptr;
 828:../../libDaisy//Middlewares/Third_Party/FatFs/src/ff.c **** 		Files[i].ctr = 0;
 829:../../libDaisy//Middlewares/Third_Party/FatFs/src/ff.c **** 	}
 830:../../libDaisy//Middlewares/Third_Party/FatFs/src/ff.c **** 
 831:../../libDaisy//Middlewares/Third_Party/FatFs/src/ff.c **** 	if (acc && Files[i].ctr) return 0;	/* Access violation (int err) */
 832:../../libDaisy//Middlewares/Third_Party/FatFs/src/ff.c **** 
 833:../../libDaisy//Middlewares/Third_Party/FatFs/src/ff.c **** 	Files[i].ctr = acc ? 0x100 : Files[i].ctr + 1;	/* Set semaphore value */
 834:../../libDaisy//Middlewares/Third_Party/FatFs/src/ff.c **** 
 835:../../libDaisy//Middlewares/Third_Party/FatFs/src/ff.c **** 	return i + 1;
 836:../../libDaisy//Middlewares/Third_Party/FatFs/src/ff.c **** }
 837:../../libDaisy//Middlewares/Third_Party/FatFs/src/ff.c **** 
 838:../../libDaisy//Middlewares/Third_Party/FatFs/src/ff.c **** 
 839:../../libDaisy//Middlewares/Third_Party/FatFs/src/ff.c **** static
 840:../../libDaisy//Middlewares/Third_Party/FatFs/src/ff.c **** FRESULT dec_lock (	/* Decrement object open counter */
ARM GAS  C:\Users\danig\AppData\Local\Temp\ccGhRbic.s 			page 18


 841:../../libDaisy//Middlewares/Third_Party/FatFs/src/ff.c **** 	UINT i			/* Semaphore index (1..) */
 842:../../libDaisy//Middlewares/Third_Party/FatFs/src/ff.c **** )
 843:../../libDaisy//Middlewares/Third_Party/FatFs/src/ff.c **** {
 844:../../libDaisy//Middlewares/Third_Party/FatFs/src/ff.c **** 	WORD n;
 845:../../libDaisy//Middlewares/Third_Party/FatFs/src/ff.c **** 	FRESULT res;
 846:../../libDaisy//Middlewares/Third_Party/FatFs/src/ff.c **** 
 847:../../libDaisy//Middlewares/Third_Party/FatFs/src/ff.c **** 
 848:../../libDaisy//Middlewares/Third_Party/FatFs/src/ff.c **** 	if (--i < _FS_LOCK) {	/* Shift index number origin from 0 */
 849:../../libDaisy//Middlewares/Third_Party/FatFs/src/ff.c **** 		n = Files[i].ctr;
 850:../../libDaisy//Middlewares/Third_Party/FatFs/src/ff.c **** 		if (n == 0x100) n = 0;		/* If write mode open, delete the entry */
 851:../../libDaisy//Middlewares/Third_Party/FatFs/src/ff.c **** 		if (n > 0) n--;				/* Decrement read mode open count */
 852:../../libDaisy//Middlewares/Third_Party/FatFs/src/ff.c **** 		Files[i].ctr = n;
 853:../../libDaisy//Middlewares/Third_Party/FatFs/src/ff.c **** 		if (n == 0) Files[i].fs = 0;	/* Delete the entry if open count gets zero */
 854:../../libDaisy//Middlewares/Third_Party/FatFs/src/ff.c **** 		res = FR_OK;
 855:../../libDaisy//Middlewares/Third_Party/FatFs/src/ff.c **** 	} else {
 856:../../libDaisy//Middlewares/Third_Party/FatFs/src/ff.c **** 		res = FR_INT_ERR;			/* Invalid index nunber */
 857:../../libDaisy//Middlewares/Third_Party/FatFs/src/ff.c **** 	}
 858:../../libDaisy//Middlewares/Third_Party/FatFs/src/ff.c **** 	return res;
 859:../../libDaisy//Middlewares/Third_Party/FatFs/src/ff.c **** }
 860:../../libDaisy//Middlewares/Third_Party/FatFs/src/ff.c **** 
 861:../../libDaisy//Middlewares/Third_Party/FatFs/src/ff.c **** 
 862:../../libDaisy//Middlewares/Third_Party/FatFs/src/ff.c **** static
 863:../../libDaisy//Middlewares/Third_Party/FatFs/src/ff.c **** void clear_lock (	/* Clear lock entries of the volume */
 864:../../libDaisy//Middlewares/Third_Party/FatFs/src/ff.c **** 	FATFS *fs
 865:../../libDaisy//Middlewares/Third_Party/FatFs/src/ff.c **** )
 866:../../libDaisy//Middlewares/Third_Party/FatFs/src/ff.c **** {
 867:../../libDaisy//Middlewares/Third_Party/FatFs/src/ff.c **** 	UINT i;
 868:../../libDaisy//Middlewares/Third_Party/FatFs/src/ff.c **** 
 869:../../libDaisy//Middlewares/Third_Party/FatFs/src/ff.c **** 	for (i = 0; i < _FS_LOCK; i++) {
 870:../../libDaisy//Middlewares/Third_Party/FatFs/src/ff.c **** 		if (Files[i].fs == fs) Files[i].fs = 0;
 871:../../libDaisy//Middlewares/Third_Party/FatFs/src/ff.c **** 	}
 872:../../libDaisy//Middlewares/Third_Party/FatFs/src/ff.c **** }
 873:../../libDaisy//Middlewares/Third_Party/FatFs/src/ff.c **** 
 874:../../libDaisy//Middlewares/Third_Party/FatFs/src/ff.c **** #endif	/* _FS_LOCK != 0 */
 875:../../libDaisy//Middlewares/Third_Party/FatFs/src/ff.c **** 
 876:../../libDaisy//Middlewares/Third_Party/FatFs/src/ff.c **** 
 877:../../libDaisy//Middlewares/Third_Party/FatFs/src/ff.c **** 
 878:../../libDaisy//Middlewares/Third_Party/FatFs/src/ff.c **** /*-----------------------------------------------------------------------*/
 879:../../libDaisy//Middlewares/Third_Party/FatFs/src/ff.c **** /* Move/Flush disk access window in the file system object               */
 880:../../libDaisy//Middlewares/Third_Party/FatFs/src/ff.c **** /*-----------------------------------------------------------------------*/
 881:../../libDaisy//Middlewares/Third_Party/FatFs/src/ff.c **** #if !_FS_READONLY
 882:../../libDaisy//Middlewares/Third_Party/FatFs/src/ff.c **** static
 883:../../libDaisy//Middlewares/Third_Party/FatFs/src/ff.c **** FRESULT sync_window (	/* Returns FR_OK or FR_DISK_ERROR */
 884:../../libDaisy//Middlewares/Third_Party/FatFs/src/ff.c **** 	FATFS* fs			/* File system object */
 885:../../libDaisy//Middlewares/Third_Party/FatFs/src/ff.c **** )
 886:../../libDaisy//Middlewares/Third_Party/FatFs/src/ff.c **** {
 887:../../libDaisy//Middlewares/Third_Party/FatFs/src/ff.c **** 	DWORD wsect;
 888:../../libDaisy//Middlewares/Third_Party/FatFs/src/ff.c **** 	UINT nf;
 889:../../libDaisy//Middlewares/Third_Party/FatFs/src/ff.c **** 	FRESULT res = FR_OK;
 890:../../libDaisy//Middlewares/Third_Party/FatFs/src/ff.c **** 
 891:../../libDaisy//Middlewares/Third_Party/FatFs/src/ff.c **** 
 892:../../libDaisy//Middlewares/Third_Party/FatFs/src/ff.c **** 	if (fs->wflag) {	/* Write back the sector if it is dirty */
 893:../../libDaisy//Middlewares/Third_Party/FatFs/src/ff.c **** 		wsect = fs->winsect;	/* Current sector number */
 894:../../libDaisy//Middlewares/Third_Party/FatFs/src/ff.c **** 		if (disk_write(fs->drv, fs->win, wsect, 1) != RES_OK) {
 895:../../libDaisy//Middlewares/Third_Party/FatFs/src/ff.c **** 			res = FR_DISK_ERR;
 896:../../libDaisy//Middlewares/Third_Party/FatFs/src/ff.c **** 		} else {
 897:../../libDaisy//Middlewares/Third_Party/FatFs/src/ff.c **** 			fs->wflag = 0;
ARM GAS  C:\Users\danig\AppData\Local\Temp\ccGhRbic.s 			page 19


 898:../../libDaisy//Middlewares/Third_Party/FatFs/src/ff.c **** 			if (wsect - fs->fatbase < fs->fsize) {		/* Is it in the FAT area? */
 899:../../libDaisy//Middlewares/Third_Party/FatFs/src/ff.c **** 				for (nf = fs->n_fats; nf >= 2; nf--) {	/* Reflect the change to all FAT copies */
 900:../../libDaisy//Middlewares/Third_Party/FatFs/src/ff.c **** 					wsect += fs->fsize;
 901:../../libDaisy//Middlewares/Third_Party/FatFs/src/ff.c **** 					disk_write(fs->drv, fs->win, wsect, 1);
 902:../../libDaisy//Middlewares/Third_Party/FatFs/src/ff.c **** 				}
 903:../../libDaisy//Middlewares/Third_Party/FatFs/src/ff.c **** 			}
 904:../../libDaisy//Middlewares/Third_Party/FatFs/src/ff.c **** 		}
 905:../../libDaisy//Middlewares/Third_Party/FatFs/src/ff.c **** 	}
 906:../../libDaisy//Middlewares/Third_Party/FatFs/src/ff.c **** 	return res;
 907:../../libDaisy//Middlewares/Third_Party/FatFs/src/ff.c **** }
 908:../../libDaisy//Middlewares/Third_Party/FatFs/src/ff.c **** #endif
 909:../../libDaisy//Middlewares/Third_Party/FatFs/src/ff.c **** 
 910:../../libDaisy//Middlewares/Third_Party/FatFs/src/ff.c **** 
 911:../../libDaisy//Middlewares/Third_Party/FatFs/src/ff.c **** static
 912:../../libDaisy//Middlewares/Third_Party/FatFs/src/ff.c **** FRESULT move_window (	/* Returns FR_OK or FR_DISK_ERROR */
 913:../../libDaisy//Middlewares/Third_Party/FatFs/src/ff.c **** 	FATFS* fs,			/* File system object */
 914:../../libDaisy//Middlewares/Third_Party/FatFs/src/ff.c **** 	DWORD sector		/* Sector number to make appearance in the fs->win[] */
 915:../../libDaisy//Middlewares/Third_Party/FatFs/src/ff.c **** )
 916:../../libDaisy//Middlewares/Third_Party/FatFs/src/ff.c **** {
 917:../../libDaisy//Middlewares/Third_Party/FatFs/src/ff.c **** 	FRESULT res = FR_OK;
 918:../../libDaisy//Middlewares/Third_Party/FatFs/src/ff.c **** 
 919:../../libDaisy//Middlewares/Third_Party/FatFs/src/ff.c **** 
 920:../../libDaisy//Middlewares/Third_Party/FatFs/src/ff.c **** 	if (sector != fs->winsect) {	/* Window offset changed? */
 921:../../libDaisy//Middlewares/Third_Party/FatFs/src/ff.c **** #if !_FS_READONLY
 922:../../libDaisy//Middlewares/Third_Party/FatFs/src/ff.c **** 		res = sync_window(fs);		/* Write-back changes */
 923:../../libDaisy//Middlewares/Third_Party/FatFs/src/ff.c **** #endif
 924:../../libDaisy//Middlewares/Third_Party/FatFs/src/ff.c **** 		if (res == FR_OK) {			/* Fill sector window with new data */
 925:../../libDaisy//Middlewares/Third_Party/FatFs/src/ff.c **** 			if (disk_read(fs->drv, fs->win, sector, 1) != RES_OK) {
 926:../../libDaisy//Middlewares/Third_Party/FatFs/src/ff.c **** 				sector = 0xFFFFFFFF;	/* Invalidate window if data is not reliable */
 927:../../libDaisy//Middlewares/Third_Party/FatFs/src/ff.c **** 				res = FR_DISK_ERR;
 928:../../libDaisy//Middlewares/Third_Party/FatFs/src/ff.c **** 			}
 929:../../libDaisy//Middlewares/Third_Party/FatFs/src/ff.c **** 			fs->winsect = sector;
 930:../../libDaisy//Middlewares/Third_Party/FatFs/src/ff.c **** 		}
 931:../../libDaisy//Middlewares/Third_Party/FatFs/src/ff.c **** 	}
 932:../../libDaisy//Middlewares/Third_Party/FatFs/src/ff.c **** 	return res;
 933:../../libDaisy//Middlewares/Third_Party/FatFs/src/ff.c **** }
 934:../../libDaisy//Middlewares/Third_Party/FatFs/src/ff.c **** 
 935:../../libDaisy//Middlewares/Third_Party/FatFs/src/ff.c **** 
 936:../../libDaisy//Middlewares/Third_Party/FatFs/src/ff.c **** 
 937:../../libDaisy//Middlewares/Third_Party/FatFs/src/ff.c **** 
 938:../../libDaisy//Middlewares/Third_Party/FatFs/src/ff.c **** #if !_FS_READONLY
 939:../../libDaisy//Middlewares/Third_Party/FatFs/src/ff.c **** /*-----------------------------------------------------------------------*/
 940:../../libDaisy//Middlewares/Third_Party/FatFs/src/ff.c **** /* Synchronize file system and strage device                             */
 941:../../libDaisy//Middlewares/Third_Party/FatFs/src/ff.c **** /*-----------------------------------------------------------------------*/
 942:../../libDaisy//Middlewares/Third_Party/FatFs/src/ff.c **** 
 943:../../libDaisy//Middlewares/Third_Party/FatFs/src/ff.c **** static
 944:../../libDaisy//Middlewares/Third_Party/FatFs/src/ff.c **** FRESULT sync_fs (	/* FR_OK:succeeded, !=0:error */
 945:../../libDaisy//Middlewares/Third_Party/FatFs/src/ff.c **** 	FATFS* fs		/* File system object */
 946:../../libDaisy//Middlewares/Third_Party/FatFs/src/ff.c **** )
 947:../../libDaisy//Middlewares/Third_Party/FatFs/src/ff.c **** {
 948:../../libDaisy//Middlewares/Third_Party/FatFs/src/ff.c **** 	FRESULT res;
 949:../../libDaisy//Middlewares/Third_Party/FatFs/src/ff.c **** 
 950:../../libDaisy//Middlewares/Third_Party/FatFs/src/ff.c **** 
 951:../../libDaisy//Middlewares/Third_Party/FatFs/src/ff.c **** 	res = sync_window(fs);
 952:../../libDaisy//Middlewares/Third_Party/FatFs/src/ff.c **** 	if (res == FR_OK) {
 953:../../libDaisy//Middlewares/Third_Party/FatFs/src/ff.c **** 		/* Update FSInfo sector if needed */
 954:../../libDaisy//Middlewares/Third_Party/FatFs/src/ff.c **** 		if (fs->fs_type == FS_FAT32 && fs->fsi_flag == 1) {
ARM GAS  C:\Users\danig\AppData\Local\Temp\ccGhRbic.s 			page 20


 955:../../libDaisy//Middlewares/Third_Party/FatFs/src/ff.c **** 			/* Create FSInfo structure */
 956:../../libDaisy//Middlewares/Third_Party/FatFs/src/ff.c **** 			mem_set(fs->win, 0, SS(fs));
 957:../../libDaisy//Middlewares/Third_Party/FatFs/src/ff.c **** 			st_word(fs->win + BS_55AA, 0xAA55);
 958:../../libDaisy//Middlewares/Third_Party/FatFs/src/ff.c **** 			st_dword(fs->win + FSI_LeadSig, 0x41615252);
 959:../../libDaisy//Middlewares/Third_Party/FatFs/src/ff.c **** 			st_dword(fs->win + FSI_StrucSig, 0x61417272);
 960:../../libDaisy//Middlewares/Third_Party/FatFs/src/ff.c **** 			st_dword(fs->win + FSI_Free_Count, fs->free_clst);
 961:../../libDaisy//Middlewares/Third_Party/FatFs/src/ff.c **** 			st_dword(fs->win + FSI_Nxt_Free, fs->last_clst);
 962:../../libDaisy//Middlewares/Third_Party/FatFs/src/ff.c **** 			/* Write it into the FSInfo sector */
 963:../../libDaisy//Middlewares/Third_Party/FatFs/src/ff.c **** 			fs->winsect = fs->volbase + 1;
 964:../../libDaisy//Middlewares/Third_Party/FatFs/src/ff.c **** 			disk_write(fs->drv, fs->win, fs->winsect, 1);
 965:../../libDaisy//Middlewares/Third_Party/FatFs/src/ff.c **** 			fs->fsi_flag = 0;
 966:../../libDaisy//Middlewares/Third_Party/FatFs/src/ff.c **** 		}
 967:../../libDaisy//Middlewares/Third_Party/FatFs/src/ff.c **** 		/* Make sure that no pending write process in the physical drive */
 968:../../libDaisy//Middlewares/Third_Party/FatFs/src/ff.c **** 		if (disk_ioctl(fs->drv, CTRL_SYNC, 0) != RES_OK) res = FR_DISK_ERR;
 969:../../libDaisy//Middlewares/Third_Party/FatFs/src/ff.c **** 	}
 970:../../libDaisy//Middlewares/Third_Party/FatFs/src/ff.c **** 
 971:../../libDaisy//Middlewares/Third_Party/FatFs/src/ff.c **** 	return res;
 972:../../libDaisy//Middlewares/Third_Party/FatFs/src/ff.c **** }
 973:../../libDaisy//Middlewares/Third_Party/FatFs/src/ff.c **** 
 974:../../libDaisy//Middlewares/Third_Party/FatFs/src/ff.c **** #endif
 975:../../libDaisy//Middlewares/Third_Party/FatFs/src/ff.c **** 
 976:../../libDaisy//Middlewares/Third_Party/FatFs/src/ff.c **** 
 977:../../libDaisy//Middlewares/Third_Party/FatFs/src/ff.c **** 
 978:../../libDaisy//Middlewares/Third_Party/FatFs/src/ff.c **** /*-----------------------------------------------------------------------*/
 979:../../libDaisy//Middlewares/Third_Party/FatFs/src/ff.c **** /* Get sector# from cluster#                                             */
 980:../../libDaisy//Middlewares/Third_Party/FatFs/src/ff.c **** /*-----------------------------------------------------------------------*/
 981:../../libDaisy//Middlewares/Third_Party/FatFs/src/ff.c **** 
 982:../../libDaisy//Middlewares/Third_Party/FatFs/src/ff.c **** static
 983:../../libDaisy//Middlewares/Third_Party/FatFs/src/ff.c **** DWORD clust2sect (	/* !=0:Sector number, 0:Failed (invalid cluster#) */
 984:../../libDaisy//Middlewares/Third_Party/FatFs/src/ff.c **** 	FATFS* fs,		/* File system object */
 985:../../libDaisy//Middlewares/Third_Party/FatFs/src/ff.c **** 	DWORD clst		/* Cluster# to be converted */
 986:../../libDaisy//Middlewares/Third_Party/FatFs/src/ff.c **** )
 987:../../libDaisy//Middlewares/Third_Party/FatFs/src/ff.c **** {
 136              		.loc 1 987 1 is_stmt 1 view -0
 137              		.cfi_startproc
 138              		@ args = 0, pretend = 0, frame = 0
 139              		@ frame_needed = 0, uses_anonymous_args = 0
 140              		@ link register save eliminated.
 988:../../libDaisy//Middlewares/Third_Party/FatFs/src/ff.c **** 	clst -= 2;
 141              		.loc 1 988 2 view .LVU35
 989:../../libDaisy//Middlewares/Third_Party/FatFs/src/ff.c **** 	if (clst >= fs->n_fatent - 2) return 0;		/* Invalid cluster# */
 142              		.loc 1 989 27 is_stmt 0 view .LVU36
 143 0000 C369     		ldr	r3, [r0, #28]
 988:../../libDaisy//Middlewares/Third_Party/FatFs/src/ff.c **** 	clst -= 2;
 144              		.loc 1 988 7 view .LVU37
 145 0002 0239     		subs	r1, r1, #2
 146              	.LVL11:
 147              		.loc 1 989 2 is_stmt 1 view .LVU38
 148              		.loc 1 989 27 is_stmt 0 view .LVU39
 149 0004 023B     		subs	r3, r3, #2
 150              		.loc 1 989 5 view .LVU40
 151 0006 8B42     		cmp	r3, r1
 990:../../libDaisy//Middlewares/Third_Party/FatFs/src/ff.c **** 	return clst * fs->csize + fs->database;
 152              		.loc 1 990 2 is_stmt 1 view .LVU41
 153              		.loc 1 990 18 is_stmt 0 view .LVU42
 154 0008 83BF     		ittte	hi
 155 000a 4389     		ldrhhi	r3, [r0, #10]
ARM GAS  C:\Users\danig\AppData\Local\Temp\ccGhRbic.s 			page 21


 156              		.loc 1 990 26 view .LVU43
 157 000c 006B     		ldrhi	r0, [r0, #48]
 158              	.LVL12:
 159              		.loc 1 990 26 view .LVU44
 160 000e 01FB0300 		mlahi	r0, r1, r3, r0
 989:../../libDaisy//Middlewares/Third_Party/FatFs/src/ff.c **** 	if (clst >= fs->n_fatent - 2) return 0;		/* Invalid cluster# */
 161              		.loc 1 989 39 view .LVU45
 162 0012 0020     		movls	r0, #0
 991:../../libDaisy//Middlewares/Third_Party/FatFs/src/ff.c **** }
 163              		.loc 1 991 1 view .LVU46
 164 0014 7047     		bx	lr
 165              		.cfi_endproc
 166              	.LFE348:
 168              		.section	.text.clmt_clust,"ax",%progbits
 169              		.align	1
 170              		.syntax unified
 171              		.thumb
 172              		.thumb_func
 173              		.fpu fpv5-d16
 175              	clmt_clust:
 176              	.LVL13:
 177              	.LFB353:
 992:../../libDaisy//Middlewares/Third_Party/FatFs/src/ff.c **** 
 993:../../libDaisy//Middlewares/Third_Party/FatFs/src/ff.c **** 
 994:../../libDaisy//Middlewares/Third_Party/FatFs/src/ff.c **** 
 995:../../libDaisy//Middlewares/Third_Party/FatFs/src/ff.c **** 
 996:../../libDaisy//Middlewares/Third_Party/FatFs/src/ff.c **** /*-----------------------------------------------------------------------*/
 997:../../libDaisy//Middlewares/Third_Party/FatFs/src/ff.c **** /* FAT access - Read value of a FAT entry                                */
 998:../../libDaisy//Middlewares/Third_Party/FatFs/src/ff.c **** /*-----------------------------------------------------------------------*/
 999:../../libDaisy//Middlewares/Third_Party/FatFs/src/ff.c **** 
1000:../../libDaisy//Middlewares/Third_Party/FatFs/src/ff.c **** static
1001:../../libDaisy//Middlewares/Third_Party/FatFs/src/ff.c **** DWORD get_fat (	/* 0xFFFFFFFF:Disk error, 1:Internal error, 2..0x7FFFFFFF:Cluster status */
1002:../../libDaisy//Middlewares/Third_Party/FatFs/src/ff.c **** 	_FDID* obj,	/* Corresponding object */
1003:../../libDaisy//Middlewares/Third_Party/FatFs/src/ff.c **** 	DWORD clst	/* Cluster number to get the value */
1004:../../libDaisy//Middlewares/Third_Party/FatFs/src/ff.c **** )
1005:../../libDaisy//Middlewares/Third_Party/FatFs/src/ff.c **** {
1006:../../libDaisy//Middlewares/Third_Party/FatFs/src/ff.c **** 	UINT wc, bc;
1007:../../libDaisy//Middlewares/Third_Party/FatFs/src/ff.c **** 	DWORD val;
1008:../../libDaisy//Middlewares/Third_Party/FatFs/src/ff.c **** 	FATFS *fs = obj->fs;
1009:../../libDaisy//Middlewares/Third_Party/FatFs/src/ff.c **** 
1010:../../libDaisy//Middlewares/Third_Party/FatFs/src/ff.c **** 
1011:../../libDaisy//Middlewares/Third_Party/FatFs/src/ff.c **** 	if (clst < 2 || clst >= fs->n_fatent) {	/* Check if in valid range */
1012:../../libDaisy//Middlewares/Third_Party/FatFs/src/ff.c **** 		val = 1;	/* Internal error */
1013:../../libDaisy//Middlewares/Third_Party/FatFs/src/ff.c **** 
1014:../../libDaisy//Middlewares/Third_Party/FatFs/src/ff.c **** 	} else {
1015:../../libDaisy//Middlewares/Third_Party/FatFs/src/ff.c **** 		val = 0xFFFFFFFF;	/* Default value falls on disk error */
1016:../../libDaisy//Middlewares/Third_Party/FatFs/src/ff.c **** 
1017:../../libDaisy//Middlewares/Third_Party/FatFs/src/ff.c **** 		switch (fs->fs_type) {
1018:../../libDaisy//Middlewares/Third_Party/FatFs/src/ff.c **** 		case FS_FAT12 :
1019:../../libDaisy//Middlewares/Third_Party/FatFs/src/ff.c **** 			bc = (UINT)clst; bc += bc / 2;
1020:../../libDaisy//Middlewares/Third_Party/FatFs/src/ff.c **** 			if (move_window(fs, fs->fatbase + (bc / SS(fs))) != FR_OK) break;
1021:../../libDaisy//Middlewares/Third_Party/FatFs/src/ff.c **** 			wc = fs->win[bc++ % SS(fs)];
1022:../../libDaisy//Middlewares/Third_Party/FatFs/src/ff.c **** 			if (move_window(fs, fs->fatbase + (bc / SS(fs))) != FR_OK) break;
1023:../../libDaisy//Middlewares/Third_Party/FatFs/src/ff.c **** 			wc |= fs->win[bc % SS(fs)] << 8;
1024:../../libDaisy//Middlewares/Third_Party/FatFs/src/ff.c **** 			val = (clst & 1) ? (wc >> 4) : (wc & 0xFFF);
1025:../../libDaisy//Middlewares/Third_Party/FatFs/src/ff.c **** 			break;
1026:../../libDaisy//Middlewares/Third_Party/FatFs/src/ff.c **** 
ARM GAS  C:\Users\danig\AppData\Local\Temp\ccGhRbic.s 			page 22


1027:../../libDaisy//Middlewares/Third_Party/FatFs/src/ff.c **** 		case FS_FAT16 :
1028:../../libDaisy//Middlewares/Third_Party/FatFs/src/ff.c **** 			if (move_window(fs, fs->fatbase + (clst / (SS(fs) / 2))) != FR_OK) break;
1029:../../libDaisy//Middlewares/Third_Party/FatFs/src/ff.c **** 			val = ld_word(fs->win + clst * 2 % SS(fs));
1030:../../libDaisy//Middlewares/Third_Party/FatFs/src/ff.c **** 			break;
1031:../../libDaisy//Middlewares/Third_Party/FatFs/src/ff.c **** 
1032:../../libDaisy//Middlewares/Third_Party/FatFs/src/ff.c **** 		case FS_FAT32 :
1033:../../libDaisy//Middlewares/Third_Party/FatFs/src/ff.c **** 			if (move_window(fs, fs->fatbase + (clst / (SS(fs) / 4))) != FR_OK) break;
1034:../../libDaisy//Middlewares/Third_Party/FatFs/src/ff.c **** 			val = ld_dword(fs->win + clst * 4 % SS(fs)) & 0x0FFFFFFF;
1035:../../libDaisy//Middlewares/Third_Party/FatFs/src/ff.c **** 			break;
1036:../../libDaisy//Middlewares/Third_Party/FatFs/src/ff.c **** #if _FS_EXFAT
1037:../../libDaisy//Middlewares/Third_Party/FatFs/src/ff.c **** 		case FS_EXFAT :
1038:../../libDaisy//Middlewares/Third_Party/FatFs/src/ff.c **** 			if (obj->objsize) {
1039:../../libDaisy//Middlewares/Third_Party/FatFs/src/ff.c **** 				DWORD cofs = clst - obj->sclust;	/* Offset from start cluster */
1040:../../libDaisy//Middlewares/Third_Party/FatFs/src/ff.c **** 				DWORD clen = (DWORD)((obj->objsize - 1) / SS(fs)) / fs->csize;	/* Number of clusters - 1 */
1041:../../libDaisy//Middlewares/Third_Party/FatFs/src/ff.c **** 
1042:../../libDaisy//Middlewares/Third_Party/FatFs/src/ff.c **** 				if (obj->stat == 2) {	/* Is there no valid chain on the FAT? */
1043:../../libDaisy//Middlewares/Third_Party/FatFs/src/ff.c **** 					if (cofs <= clen) {
1044:../../libDaisy//Middlewares/Third_Party/FatFs/src/ff.c **** 						val = (cofs == clen) ? 0x7FFFFFFF : clst + 1;	/* Generate the value */
1045:../../libDaisy//Middlewares/Third_Party/FatFs/src/ff.c **** 						break;
1046:../../libDaisy//Middlewares/Third_Party/FatFs/src/ff.c **** 					}
1047:../../libDaisy//Middlewares/Third_Party/FatFs/src/ff.c **** 				}
1048:../../libDaisy//Middlewares/Third_Party/FatFs/src/ff.c **** 				if (obj->stat == 3 && cofs < obj->n_cont) {	/* Is it in the 1st fragment? */
1049:../../libDaisy//Middlewares/Third_Party/FatFs/src/ff.c **** 					val = clst + 1; 	/* Generate the value */
1050:../../libDaisy//Middlewares/Third_Party/FatFs/src/ff.c **** 					break;
1051:../../libDaisy//Middlewares/Third_Party/FatFs/src/ff.c **** 				}
1052:../../libDaisy//Middlewares/Third_Party/FatFs/src/ff.c **** 				if (obj->stat != 2) {	/* Get value from FAT if FAT chain is valid */
1053:../../libDaisy//Middlewares/Third_Party/FatFs/src/ff.c **** 					if (obj->n_frag != 0) {	/* Is it on the growing edge? */
1054:../../libDaisy//Middlewares/Third_Party/FatFs/src/ff.c **** 						val = 0x7FFFFFFF;	/* Generate EOC */
1055:../../libDaisy//Middlewares/Third_Party/FatFs/src/ff.c **** 					} else {
1056:../../libDaisy//Middlewares/Third_Party/FatFs/src/ff.c **** 						if (move_window(fs, fs->fatbase + (clst / (SS(fs) / 4))) != FR_OK) break;
1057:../../libDaisy//Middlewares/Third_Party/FatFs/src/ff.c **** 						val = ld_dword(fs->win + clst * 4 % SS(fs)) & 0x7FFFFFFF;
1058:../../libDaisy//Middlewares/Third_Party/FatFs/src/ff.c **** 					}
1059:../../libDaisy//Middlewares/Third_Party/FatFs/src/ff.c **** 					break;
1060:../../libDaisy//Middlewares/Third_Party/FatFs/src/ff.c **** 				}
1061:../../libDaisy//Middlewares/Third_Party/FatFs/src/ff.c **** 			}
1062:../../libDaisy//Middlewares/Third_Party/FatFs/src/ff.c **** 			/* go to default */
1063:../../libDaisy//Middlewares/Third_Party/FatFs/src/ff.c **** #endif
1064:../../libDaisy//Middlewares/Third_Party/FatFs/src/ff.c **** 		default:
1065:../../libDaisy//Middlewares/Third_Party/FatFs/src/ff.c **** 			val = 1;	/* Internal error */
1066:../../libDaisy//Middlewares/Third_Party/FatFs/src/ff.c **** 		}
1067:../../libDaisy//Middlewares/Third_Party/FatFs/src/ff.c **** 	}
1068:../../libDaisy//Middlewares/Third_Party/FatFs/src/ff.c **** 
1069:../../libDaisy//Middlewares/Third_Party/FatFs/src/ff.c **** 	return val;
1070:../../libDaisy//Middlewares/Third_Party/FatFs/src/ff.c **** }
1071:../../libDaisy//Middlewares/Third_Party/FatFs/src/ff.c **** 
1072:../../libDaisy//Middlewares/Third_Party/FatFs/src/ff.c **** 
1073:../../libDaisy//Middlewares/Third_Party/FatFs/src/ff.c **** 
1074:../../libDaisy//Middlewares/Third_Party/FatFs/src/ff.c **** 
1075:../../libDaisy//Middlewares/Third_Party/FatFs/src/ff.c **** #if !_FS_READONLY
1076:../../libDaisy//Middlewares/Third_Party/FatFs/src/ff.c **** /*-----------------------------------------------------------------------*/
1077:../../libDaisy//Middlewares/Third_Party/FatFs/src/ff.c **** /* FAT access - Change value of a FAT entry                              */
1078:../../libDaisy//Middlewares/Third_Party/FatFs/src/ff.c **** /*-----------------------------------------------------------------------*/
1079:../../libDaisy//Middlewares/Third_Party/FatFs/src/ff.c **** 
1080:../../libDaisy//Middlewares/Third_Party/FatFs/src/ff.c **** static
1081:../../libDaisy//Middlewares/Third_Party/FatFs/src/ff.c **** FRESULT put_fat (	/* FR_OK(0):succeeded, !=0:error */
1082:../../libDaisy//Middlewares/Third_Party/FatFs/src/ff.c **** 	FATFS* fs,		/* Corresponding file system object */
1083:../../libDaisy//Middlewares/Third_Party/FatFs/src/ff.c **** 	DWORD clst,		/* FAT index number (cluster number) to be changed */
ARM GAS  C:\Users\danig\AppData\Local\Temp\ccGhRbic.s 			page 23


1084:../../libDaisy//Middlewares/Third_Party/FatFs/src/ff.c **** 	DWORD val		/* New value to be set to the entry */
1085:../../libDaisy//Middlewares/Third_Party/FatFs/src/ff.c **** )
1086:../../libDaisy//Middlewares/Third_Party/FatFs/src/ff.c **** {
1087:../../libDaisy//Middlewares/Third_Party/FatFs/src/ff.c **** 	UINT bc;
1088:../../libDaisy//Middlewares/Third_Party/FatFs/src/ff.c **** 	BYTE *p;
1089:../../libDaisy//Middlewares/Third_Party/FatFs/src/ff.c **** 	FRESULT res = FR_INT_ERR;
1090:../../libDaisy//Middlewares/Third_Party/FatFs/src/ff.c **** 
1091:../../libDaisy//Middlewares/Third_Party/FatFs/src/ff.c **** 	if (clst >= 2 && clst < fs->n_fatent) {	/* Check if in valid range */
1092:../../libDaisy//Middlewares/Third_Party/FatFs/src/ff.c **** 		switch (fs->fs_type) {
1093:../../libDaisy//Middlewares/Third_Party/FatFs/src/ff.c **** 		case FS_FAT12 :	/* Bitfield items */
1094:../../libDaisy//Middlewares/Third_Party/FatFs/src/ff.c **** 			bc = (UINT)clst; bc += bc / 2;
1095:../../libDaisy//Middlewares/Third_Party/FatFs/src/ff.c **** 			res = move_window(fs, fs->fatbase + (bc / SS(fs)));
1096:../../libDaisy//Middlewares/Third_Party/FatFs/src/ff.c **** 			if (res != FR_OK) break;
1097:../../libDaisy//Middlewares/Third_Party/FatFs/src/ff.c **** 			p = fs->win + bc++ % SS(fs);
1098:../../libDaisy//Middlewares/Third_Party/FatFs/src/ff.c **** 			*p = (clst & 1) ? ((*p & 0x0F) | ((BYTE)val << 4)) : (BYTE)val;
1099:../../libDaisy//Middlewares/Third_Party/FatFs/src/ff.c **** 			fs->wflag = 1;
1100:../../libDaisy//Middlewares/Third_Party/FatFs/src/ff.c **** 			res = move_window(fs, fs->fatbase + (bc / SS(fs)));
1101:../../libDaisy//Middlewares/Third_Party/FatFs/src/ff.c **** 			if (res != FR_OK) break;
1102:../../libDaisy//Middlewares/Third_Party/FatFs/src/ff.c **** 			p = fs->win + bc % SS(fs);
1103:../../libDaisy//Middlewares/Third_Party/FatFs/src/ff.c **** 			*p = (clst & 1) ? (BYTE)(val >> 4) : ((*p & 0xF0) | ((BYTE)(val >> 8) & 0x0F));
1104:../../libDaisy//Middlewares/Third_Party/FatFs/src/ff.c **** 			fs->wflag = 1;
1105:../../libDaisy//Middlewares/Third_Party/FatFs/src/ff.c **** 			break;
1106:../../libDaisy//Middlewares/Third_Party/FatFs/src/ff.c **** 
1107:../../libDaisy//Middlewares/Third_Party/FatFs/src/ff.c **** 		case FS_FAT16 :	/* WORD aligned items */
1108:../../libDaisy//Middlewares/Third_Party/FatFs/src/ff.c **** 			res = move_window(fs, fs->fatbase + (clst / (SS(fs) / 2)));
1109:../../libDaisy//Middlewares/Third_Party/FatFs/src/ff.c **** 			if (res != FR_OK) break;
1110:../../libDaisy//Middlewares/Third_Party/FatFs/src/ff.c **** 			st_word(fs->win + clst * 2 % SS(fs), (WORD)val);
1111:../../libDaisy//Middlewares/Third_Party/FatFs/src/ff.c **** 			fs->wflag = 1;
1112:../../libDaisy//Middlewares/Third_Party/FatFs/src/ff.c **** 			break;
1113:../../libDaisy//Middlewares/Third_Party/FatFs/src/ff.c **** 
1114:../../libDaisy//Middlewares/Third_Party/FatFs/src/ff.c **** 		case FS_FAT32 :	/* DWORD aligned items */
1115:../../libDaisy//Middlewares/Third_Party/FatFs/src/ff.c **** #if _FS_EXFAT
1116:../../libDaisy//Middlewares/Third_Party/FatFs/src/ff.c **** 		case FS_EXFAT :
1117:../../libDaisy//Middlewares/Third_Party/FatFs/src/ff.c **** #endif
1118:../../libDaisy//Middlewares/Third_Party/FatFs/src/ff.c **** 			res = move_window(fs, fs->fatbase + (clst / (SS(fs) / 4)));
1119:../../libDaisy//Middlewares/Third_Party/FatFs/src/ff.c **** 			if (res != FR_OK) break;
1120:../../libDaisy//Middlewares/Third_Party/FatFs/src/ff.c **** 			if (!_FS_EXFAT || fs->fs_type != FS_EXFAT) {
1121:../../libDaisy//Middlewares/Third_Party/FatFs/src/ff.c **** 				val = (val & 0x0FFFFFFF) | (ld_dword(fs->win + clst * 4 % SS(fs)) & 0xF0000000);
1122:../../libDaisy//Middlewares/Third_Party/FatFs/src/ff.c **** 			}
1123:../../libDaisy//Middlewares/Third_Party/FatFs/src/ff.c **** 			st_dword(fs->win + clst * 4 % SS(fs), val);
1124:../../libDaisy//Middlewares/Third_Party/FatFs/src/ff.c **** 			fs->wflag = 1;
1125:../../libDaisy//Middlewares/Third_Party/FatFs/src/ff.c **** 			break;
1126:../../libDaisy//Middlewares/Third_Party/FatFs/src/ff.c **** 		}
1127:../../libDaisy//Middlewares/Third_Party/FatFs/src/ff.c **** 	}
1128:../../libDaisy//Middlewares/Third_Party/FatFs/src/ff.c **** 	return res;
1129:../../libDaisy//Middlewares/Third_Party/FatFs/src/ff.c **** }
1130:../../libDaisy//Middlewares/Third_Party/FatFs/src/ff.c **** 
1131:../../libDaisy//Middlewares/Third_Party/FatFs/src/ff.c **** #endif /* !_FS_READONLY */
1132:../../libDaisy//Middlewares/Third_Party/FatFs/src/ff.c **** 
1133:../../libDaisy//Middlewares/Third_Party/FatFs/src/ff.c **** 
1134:../../libDaisy//Middlewares/Third_Party/FatFs/src/ff.c **** 
1135:../../libDaisy//Middlewares/Third_Party/FatFs/src/ff.c **** 
1136:../../libDaisy//Middlewares/Third_Party/FatFs/src/ff.c **** #if _FS_EXFAT && !_FS_READONLY
1137:../../libDaisy//Middlewares/Third_Party/FatFs/src/ff.c **** /*-----------------------------------------------------------------------*/
1138:../../libDaisy//Middlewares/Third_Party/FatFs/src/ff.c **** /* exFAT: Accessing FAT and Allocation Bitmap                            */
1139:../../libDaisy//Middlewares/Third_Party/FatFs/src/ff.c **** /*-----------------------------------------------------------------------*/
1140:../../libDaisy//Middlewares/Third_Party/FatFs/src/ff.c **** 
ARM GAS  C:\Users\danig\AppData\Local\Temp\ccGhRbic.s 			page 24


1141:../../libDaisy//Middlewares/Third_Party/FatFs/src/ff.c **** /*--------------------------------------*/
1142:../../libDaisy//Middlewares/Third_Party/FatFs/src/ff.c **** /* Find a contiguous free cluster block */
1143:../../libDaisy//Middlewares/Third_Party/FatFs/src/ff.c **** /*--------------------------------------*/
1144:../../libDaisy//Middlewares/Third_Party/FatFs/src/ff.c **** 
1145:../../libDaisy//Middlewares/Third_Party/FatFs/src/ff.c **** static
1146:../../libDaisy//Middlewares/Third_Party/FatFs/src/ff.c **** DWORD find_bitmap (	/* 0:Not found, 2..:Cluster block found, 0xFFFFFFFF:Disk error */
1147:../../libDaisy//Middlewares/Third_Party/FatFs/src/ff.c **** 	FATFS* fs,	/* File system object */
1148:../../libDaisy//Middlewares/Third_Party/FatFs/src/ff.c **** 	DWORD clst,	/* Cluster number to scan from */
1149:../../libDaisy//Middlewares/Third_Party/FatFs/src/ff.c **** 	DWORD ncl	/* Number of contiguous clusters to find (1..) */
1150:../../libDaisy//Middlewares/Third_Party/FatFs/src/ff.c **** )
1151:../../libDaisy//Middlewares/Third_Party/FatFs/src/ff.c **** {
1152:../../libDaisy//Middlewares/Third_Party/FatFs/src/ff.c **** 	BYTE bm, bv;
1153:../../libDaisy//Middlewares/Third_Party/FatFs/src/ff.c **** 	UINT i;
1154:../../libDaisy//Middlewares/Third_Party/FatFs/src/ff.c **** 	DWORD val, scl, ctr;
1155:../../libDaisy//Middlewares/Third_Party/FatFs/src/ff.c **** 
1156:../../libDaisy//Middlewares/Third_Party/FatFs/src/ff.c **** 
1157:../../libDaisy//Middlewares/Third_Party/FatFs/src/ff.c **** 	clst -= 2;	/* The first bit in the bitmap corresponds to cluster #2 */
1158:../../libDaisy//Middlewares/Third_Party/FatFs/src/ff.c **** 	if (clst >= fs->n_fatent - 2) clst = 0;
1159:../../libDaisy//Middlewares/Third_Party/FatFs/src/ff.c **** 	scl = val = clst; ctr = 0;
1160:../../libDaisy//Middlewares/Third_Party/FatFs/src/ff.c **** 	for (;;) {
1161:../../libDaisy//Middlewares/Third_Party/FatFs/src/ff.c **** 		if (move_window(fs, fs->database + val / 8 / SS(fs)) != FR_OK) return 0xFFFFFFFF;	/* (assuming bi
1162:../../libDaisy//Middlewares/Third_Party/FatFs/src/ff.c **** 		i = val / 8 % SS(fs); bm = 1 << (val % 8);
1163:../../libDaisy//Middlewares/Third_Party/FatFs/src/ff.c **** 		do {
1164:../../libDaisy//Middlewares/Third_Party/FatFs/src/ff.c **** 			do {
1165:../../libDaisy//Middlewares/Third_Party/FatFs/src/ff.c **** 				bv = fs->win[i] & bm; bm <<= 1;		/* Get bit value */
1166:../../libDaisy//Middlewares/Third_Party/FatFs/src/ff.c **** 				if (++val >= fs->n_fatent - 2) {	/* Next cluster (with wrap-around) */
1167:../../libDaisy//Middlewares/Third_Party/FatFs/src/ff.c **** 					val = 0; bm = 0; i = SS(fs);
1168:../../libDaisy//Middlewares/Third_Party/FatFs/src/ff.c **** 				}
1169:../../libDaisy//Middlewares/Third_Party/FatFs/src/ff.c **** 				if (!bv) {	/* Is it a free cluster? */
1170:../../libDaisy//Middlewares/Third_Party/FatFs/src/ff.c **** 					if (++ctr == ncl) return scl + 2;	/* Check if run length is sufficient for required */
1171:../../libDaisy//Middlewares/Third_Party/FatFs/src/ff.c **** 				} else {
1172:../../libDaisy//Middlewares/Third_Party/FatFs/src/ff.c **** 					scl = val; ctr = 0;		/* Encountered a cluster in-use, restart to scan */
1173:../../libDaisy//Middlewares/Third_Party/FatFs/src/ff.c **** 				}
1174:../../libDaisy//Middlewares/Third_Party/FatFs/src/ff.c **** 				if (val == clst) return 0;	/* All cluster scanned? */
1175:../../libDaisy//Middlewares/Third_Party/FatFs/src/ff.c **** 			} while (bm);
1176:../../libDaisy//Middlewares/Third_Party/FatFs/src/ff.c **** 			bm = 1;
1177:../../libDaisy//Middlewares/Third_Party/FatFs/src/ff.c **** 		} while (++i < SS(fs));
1178:../../libDaisy//Middlewares/Third_Party/FatFs/src/ff.c **** 	}
1179:../../libDaisy//Middlewares/Third_Party/FatFs/src/ff.c **** }
1180:../../libDaisy//Middlewares/Third_Party/FatFs/src/ff.c **** 
1181:../../libDaisy//Middlewares/Third_Party/FatFs/src/ff.c **** 
1182:../../libDaisy//Middlewares/Third_Party/FatFs/src/ff.c **** /*----------------------------------------*/
1183:../../libDaisy//Middlewares/Third_Party/FatFs/src/ff.c **** /* Set/Clear a block of allocation bitmap */
1184:../../libDaisy//Middlewares/Third_Party/FatFs/src/ff.c **** /*----------------------------------------*/
1185:../../libDaisy//Middlewares/Third_Party/FatFs/src/ff.c **** 
1186:../../libDaisy//Middlewares/Third_Party/FatFs/src/ff.c **** static
1187:../../libDaisy//Middlewares/Third_Party/FatFs/src/ff.c **** FRESULT change_bitmap (
1188:../../libDaisy//Middlewares/Third_Party/FatFs/src/ff.c **** 	FATFS* fs,	/* File system object */
1189:../../libDaisy//Middlewares/Third_Party/FatFs/src/ff.c **** 	DWORD clst,	/* Cluster number to change from */
1190:../../libDaisy//Middlewares/Third_Party/FatFs/src/ff.c **** 	DWORD ncl,	/* Number of clusters to be changed */
1191:../../libDaisy//Middlewares/Third_Party/FatFs/src/ff.c **** 	int bv		/* bit value to be set (0 or 1) */
1192:../../libDaisy//Middlewares/Third_Party/FatFs/src/ff.c **** )
1193:../../libDaisy//Middlewares/Third_Party/FatFs/src/ff.c **** {
1194:../../libDaisy//Middlewares/Third_Party/FatFs/src/ff.c **** 	BYTE bm;
1195:../../libDaisy//Middlewares/Third_Party/FatFs/src/ff.c **** 	UINT i;
1196:../../libDaisy//Middlewares/Third_Party/FatFs/src/ff.c **** 	DWORD sect;
1197:../../libDaisy//Middlewares/Third_Party/FatFs/src/ff.c **** 
ARM GAS  C:\Users\danig\AppData\Local\Temp\ccGhRbic.s 			page 25


1198:../../libDaisy//Middlewares/Third_Party/FatFs/src/ff.c **** 	clst -= 2;	/* The first bit corresponds to cluster #2 */
1199:../../libDaisy//Middlewares/Third_Party/FatFs/src/ff.c **** 	sect = fs->database + clst / 8 / SS(fs);	/* Sector address (assuming bitmap is located top of the 
1200:../../libDaisy//Middlewares/Third_Party/FatFs/src/ff.c **** 	i = clst / 8 % SS(fs);						/* Byte offset in the sector */
1201:../../libDaisy//Middlewares/Third_Party/FatFs/src/ff.c **** 	bm = 1 << (clst % 8);						/* Bit mask in the byte */
1202:../../libDaisy//Middlewares/Third_Party/FatFs/src/ff.c **** 	for (;;) {
1203:../../libDaisy//Middlewares/Third_Party/FatFs/src/ff.c **** 		if (move_window(fs, sect++) != FR_OK) return FR_DISK_ERR;
1204:../../libDaisy//Middlewares/Third_Party/FatFs/src/ff.c **** 		do {
1205:../../libDaisy//Middlewares/Third_Party/FatFs/src/ff.c **** 			do {
1206:../../libDaisy//Middlewares/Third_Party/FatFs/src/ff.c **** 				if (bv == (int)((fs->win[i] & bm) != 0)) return FR_INT_ERR;	/* Is the bit expected value? */
1207:../../libDaisy//Middlewares/Third_Party/FatFs/src/ff.c **** 				fs->win[i] ^= bm;	/* Flip the bit */
1208:../../libDaisy//Middlewares/Third_Party/FatFs/src/ff.c **** 				fs->wflag = 1;
1209:../../libDaisy//Middlewares/Third_Party/FatFs/src/ff.c **** 				if (--ncl == 0) return FR_OK;	/* All bits processed? */
1210:../../libDaisy//Middlewares/Third_Party/FatFs/src/ff.c **** 			} while (bm <<= 1);		/* Next bit */
1211:../../libDaisy//Middlewares/Third_Party/FatFs/src/ff.c **** 			bm = 1;
1212:../../libDaisy//Middlewares/Third_Party/FatFs/src/ff.c **** 		} while (++i < SS(fs));		/* Next byte */
1213:../../libDaisy//Middlewares/Third_Party/FatFs/src/ff.c **** 		i = 0;
1214:../../libDaisy//Middlewares/Third_Party/FatFs/src/ff.c **** 	}
1215:../../libDaisy//Middlewares/Third_Party/FatFs/src/ff.c **** }
1216:../../libDaisy//Middlewares/Third_Party/FatFs/src/ff.c **** 
1217:../../libDaisy//Middlewares/Third_Party/FatFs/src/ff.c **** 
1218:../../libDaisy//Middlewares/Third_Party/FatFs/src/ff.c **** /*---------------------------------------------*/
1219:../../libDaisy//Middlewares/Third_Party/FatFs/src/ff.c **** /* Fill the first fragment of the FAT chain    */
1220:../../libDaisy//Middlewares/Third_Party/FatFs/src/ff.c **** /*---------------------------------------------*/
1221:../../libDaisy//Middlewares/Third_Party/FatFs/src/ff.c **** 
1222:../../libDaisy//Middlewares/Third_Party/FatFs/src/ff.c **** static
1223:../../libDaisy//Middlewares/Third_Party/FatFs/src/ff.c **** FRESULT fill_first_frag (
1224:../../libDaisy//Middlewares/Third_Party/FatFs/src/ff.c **** 	_FDID* obj	/* Pointer to the corresponding object */
1225:../../libDaisy//Middlewares/Third_Party/FatFs/src/ff.c **** )
1226:../../libDaisy//Middlewares/Third_Party/FatFs/src/ff.c **** {
1227:../../libDaisy//Middlewares/Third_Party/FatFs/src/ff.c **** 	FRESULT res;
1228:../../libDaisy//Middlewares/Third_Party/FatFs/src/ff.c **** 	DWORD cl, n;
1229:../../libDaisy//Middlewares/Third_Party/FatFs/src/ff.c **** 
1230:../../libDaisy//Middlewares/Third_Party/FatFs/src/ff.c **** 	if (obj->stat == 3) {	/* Has the object been changed 'fragmented'? */
1231:../../libDaisy//Middlewares/Third_Party/FatFs/src/ff.c **** 		for (cl = obj->sclust, n = obj->n_cont; n; cl++, n--) {	/* Create cluster chain on the FAT */
1232:../../libDaisy//Middlewares/Third_Party/FatFs/src/ff.c **** 			res = put_fat(obj->fs, cl, cl + 1);
1233:../../libDaisy//Middlewares/Third_Party/FatFs/src/ff.c **** 			if (res != FR_OK) return res;
1234:../../libDaisy//Middlewares/Third_Party/FatFs/src/ff.c **** 		}
1235:../../libDaisy//Middlewares/Third_Party/FatFs/src/ff.c **** 		obj->stat = 0;	/* Change status 'FAT chain is valid' */
1236:../../libDaisy//Middlewares/Third_Party/FatFs/src/ff.c **** 	}
1237:../../libDaisy//Middlewares/Third_Party/FatFs/src/ff.c **** 	return FR_OK;
1238:../../libDaisy//Middlewares/Third_Party/FatFs/src/ff.c **** }
1239:../../libDaisy//Middlewares/Third_Party/FatFs/src/ff.c **** 
1240:../../libDaisy//Middlewares/Third_Party/FatFs/src/ff.c **** 
1241:../../libDaisy//Middlewares/Third_Party/FatFs/src/ff.c **** /*---------------------------------------------*/
1242:../../libDaisy//Middlewares/Third_Party/FatFs/src/ff.c **** /* Fill the last fragment of the FAT chain     */
1243:../../libDaisy//Middlewares/Third_Party/FatFs/src/ff.c **** /*---------------------------------------------*/
1244:../../libDaisy//Middlewares/Third_Party/FatFs/src/ff.c **** 
1245:../../libDaisy//Middlewares/Third_Party/FatFs/src/ff.c **** static
1246:../../libDaisy//Middlewares/Third_Party/FatFs/src/ff.c **** FRESULT fill_last_frag (
1247:../../libDaisy//Middlewares/Third_Party/FatFs/src/ff.c **** 	_FDID* obj,	/* Pointer to the corresponding object */
1248:../../libDaisy//Middlewares/Third_Party/FatFs/src/ff.c **** 	DWORD lcl,	/* Last cluster of the fragment */
1249:../../libDaisy//Middlewares/Third_Party/FatFs/src/ff.c **** 	DWORD term	/* Value to set the last FAT entry */
1250:../../libDaisy//Middlewares/Third_Party/FatFs/src/ff.c **** )
1251:../../libDaisy//Middlewares/Third_Party/FatFs/src/ff.c **** {
1252:../../libDaisy//Middlewares/Third_Party/FatFs/src/ff.c **** 	FRESULT res;
1253:../../libDaisy//Middlewares/Third_Party/FatFs/src/ff.c **** 
1254:../../libDaisy//Middlewares/Third_Party/FatFs/src/ff.c **** 	while (obj->n_frag > 0) {	/* Create the last chain on the FAT */
ARM GAS  C:\Users\danig\AppData\Local\Temp\ccGhRbic.s 			page 26


1255:../../libDaisy//Middlewares/Third_Party/FatFs/src/ff.c **** 		res = put_fat(obj->fs, lcl - obj->n_frag + 1, (obj->n_frag > 1) ? lcl - obj->n_frag + 2 : term);
1256:../../libDaisy//Middlewares/Third_Party/FatFs/src/ff.c **** 		if (res != FR_OK) return res;
1257:../../libDaisy//Middlewares/Third_Party/FatFs/src/ff.c **** 		obj->n_frag--;
1258:../../libDaisy//Middlewares/Third_Party/FatFs/src/ff.c **** 	}
1259:../../libDaisy//Middlewares/Third_Party/FatFs/src/ff.c **** 	return FR_OK;
1260:../../libDaisy//Middlewares/Third_Party/FatFs/src/ff.c **** }
1261:../../libDaisy//Middlewares/Third_Party/FatFs/src/ff.c **** 
1262:../../libDaisy//Middlewares/Third_Party/FatFs/src/ff.c **** #endif	/* _FS_EXFAT && !_FS_READONLY */
1263:../../libDaisy//Middlewares/Third_Party/FatFs/src/ff.c **** 
1264:../../libDaisy//Middlewares/Third_Party/FatFs/src/ff.c **** 
1265:../../libDaisy//Middlewares/Third_Party/FatFs/src/ff.c **** 
1266:../../libDaisy//Middlewares/Third_Party/FatFs/src/ff.c **** #if !_FS_READONLY
1267:../../libDaisy//Middlewares/Third_Party/FatFs/src/ff.c **** /*-----------------------------------------------------------------------*/
1268:../../libDaisy//Middlewares/Third_Party/FatFs/src/ff.c **** /* FAT handling - Remove a cluster chain                                 */
1269:../../libDaisy//Middlewares/Third_Party/FatFs/src/ff.c **** /*-----------------------------------------------------------------------*/
1270:../../libDaisy//Middlewares/Third_Party/FatFs/src/ff.c **** static
1271:../../libDaisy//Middlewares/Third_Party/FatFs/src/ff.c **** FRESULT remove_chain (	/* FR_OK(0):succeeded, !=0:error */
1272:../../libDaisy//Middlewares/Third_Party/FatFs/src/ff.c **** 	_FDID* obj,			/* Corresponding object */
1273:../../libDaisy//Middlewares/Third_Party/FatFs/src/ff.c **** 	DWORD clst,			/* Cluster to remove a chain from */
1274:../../libDaisy//Middlewares/Third_Party/FatFs/src/ff.c **** 	DWORD pclst			/* Previous cluster of clst (0:an entire chain) */
1275:../../libDaisy//Middlewares/Third_Party/FatFs/src/ff.c **** )
1276:../../libDaisy//Middlewares/Third_Party/FatFs/src/ff.c **** {
1277:../../libDaisy//Middlewares/Third_Party/FatFs/src/ff.c **** 	FRESULT res = FR_OK;
1278:../../libDaisy//Middlewares/Third_Party/FatFs/src/ff.c **** 	DWORD nxt;
1279:../../libDaisy//Middlewares/Third_Party/FatFs/src/ff.c **** 	FATFS *fs = obj->fs;
1280:../../libDaisy//Middlewares/Third_Party/FatFs/src/ff.c **** #if _FS_EXFAT || _USE_TRIM
1281:../../libDaisy//Middlewares/Third_Party/FatFs/src/ff.c **** 	DWORD scl = clst, ecl = clst;
1282:../../libDaisy//Middlewares/Third_Party/FatFs/src/ff.c **** #endif
1283:../../libDaisy//Middlewares/Third_Party/FatFs/src/ff.c **** #if _USE_TRIM
1284:../../libDaisy//Middlewares/Third_Party/FatFs/src/ff.c **** 	DWORD rt[2];
1285:../../libDaisy//Middlewares/Third_Party/FatFs/src/ff.c **** #endif
1286:../../libDaisy//Middlewares/Third_Party/FatFs/src/ff.c **** 
1287:../../libDaisy//Middlewares/Third_Party/FatFs/src/ff.c **** 	if (clst < 2 || clst >= fs->n_fatent) return FR_INT_ERR;	/* Check if in valid range */
1288:../../libDaisy//Middlewares/Third_Party/FatFs/src/ff.c **** 
1289:../../libDaisy//Middlewares/Third_Party/FatFs/src/ff.c **** 	/* Mark the previous cluster 'EOC' on the FAT if it exists */
1290:../../libDaisy//Middlewares/Third_Party/FatFs/src/ff.c **** 	if (pclst && (!_FS_EXFAT || fs->fs_type != FS_EXFAT || obj->stat != 2)) {
1291:../../libDaisy//Middlewares/Third_Party/FatFs/src/ff.c **** 		res = put_fat(fs, pclst, 0xFFFFFFFF);
1292:../../libDaisy//Middlewares/Third_Party/FatFs/src/ff.c **** 		if (res != FR_OK) return res;
1293:../../libDaisy//Middlewares/Third_Party/FatFs/src/ff.c **** 	}
1294:../../libDaisy//Middlewares/Third_Party/FatFs/src/ff.c **** 
1295:../../libDaisy//Middlewares/Third_Party/FatFs/src/ff.c **** 	/* Remove the chain */
1296:../../libDaisy//Middlewares/Third_Party/FatFs/src/ff.c **** 	do {
1297:../../libDaisy//Middlewares/Third_Party/FatFs/src/ff.c **** 		nxt = get_fat(obj, clst);			/* Get cluster status */
1298:../../libDaisy//Middlewares/Third_Party/FatFs/src/ff.c **** 		if (nxt == 0) break;				/* Empty cluster? */
1299:../../libDaisy//Middlewares/Third_Party/FatFs/src/ff.c **** 		if (nxt == 1) return FR_INT_ERR;	/* Internal error? */
1300:../../libDaisy//Middlewares/Third_Party/FatFs/src/ff.c **** 		if (nxt == 0xFFFFFFFF) return FR_DISK_ERR;	/* Disk error? */
1301:../../libDaisy//Middlewares/Third_Party/FatFs/src/ff.c **** 		if (!_FS_EXFAT || fs->fs_type != FS_EXFAT) {
1302:../../libDaisy//Middlewares/Third_Party/FatFs/src/ff.c **** 			res = put_fat(fs, clst, 0);		/* Mark the cluster 'free' on the FAT */
1303:../../libDaisy//Middlewares/Third_Party/FatFs/src/ff.c **** 			if (res != FR_OK) return res;
1304:../../libDaisy//Middlewares/Third_Party/FatFs/src/ff.c **** 		}
1305:../../libDaisy//Middlewares/Third_Party/FatFs/src/ff.c **** 		if (fs->free_clst < fs->n_fatent - 2) {	/* Update FSINFO */
1306:../../libDaisy//Middlewares/Third_Party/FatFs/src/ff.c **** 			fs->free_clst++;
1307:../../libDaisy//Middlewares/Third_Party/FatFs/src/ff.c **** 			fs->fsi_flag |= 1;
1308:../../libDaisy//Middlewares/Third_Party/FatFs/src/ff.c **** 		}
1309:../../libDaisy//Middlewares/Third_Party/FatFs/src/ff.c **** #if _FS_EXFAT || _USE_TRIM
1310:../../libDaisy//Middlewares/Third_Party/FatFs/src/ff.c **** 		if (ecl + 1 == nxt) {	/* Is next cluster contiguous? */
1311:../../libDaisy//Middlewares/Third_Party/FatFs/src/ff.c **** 			ecl = nxt;
ARM GAS  C:\Users\danig\AppData\Local\Temp\ccGhRbic.s 			page 27


1312:../../libDaisy//Middlewares/Third_Party/FatFs/src/ff.c **** 		} else {				/* End of contiguous cluster block */
1313:../../libDaisy//Middlewares/Third_Party/FatFs/src/ff.c **** #if _FS_EXFAT
1314:../../libDaisy//Middlewares/Third_Party/FatFs/src/ff.c **** 			if (fs->fs_type == FS_EXFAT) {
1315:../../libDaisy//Middlewares/Third_Party/FatFs/src/ff.c **** 				res = change_bitmap(fs, scl, ecl - scl + 1, 0);	/* Mark the cluster block 'free' on the bitmap 
1316:../../libDaisy//Middlewares/Third_Party/FatFs/src/ff.c **** 				if (res != FR_OK) return res;
1317:../../libDaisy//Middlewares/Third_Party/FatFs/src/ff.c **** 			}
1318:../../libDaisy//Middlewares/Third_Party/FatFs/src/ff.c **** #endif
1319:../../libDaisy//Middlewares/Third_Party/FatFs/src/ff.c **** #if _USE_TRIM
1320:../../libDaisy//Middlewares/Third_Party/FatFs/src/ff.c **** 			rt[0] = clust2sect(fs, scl);					/* Start sector */
1321:../../libDaisy//Middlewares/Third_Party/FatFs/src/ff.c **** 			rt[1] = clust2sect(fs, ecl) + fs->csize - 1;	/* End sector */
1322:../../libDaisy//Middlewares/Third_Party/FatFs/src/ff.c **** 			disk_ioctl(fs->drv, CTRL_TRIM, rt);				/* Inform device the block can be erased */
1323:../../libDaisy//Middlewares/Third_Party/FatFs/src/ff.c **** #endif
1324:../../libDaisy//Middlewares/Third_Party/FatFs/src/ff.c **** 			scl = ecl = nxt;
1325:../../libDaisy//Middlewares/Third_Party/FatFs/src/ff.c **** 		}
1326:../../libDaisy//Middlewares/Third_Party/FatFs/src/ff.c **** #endif
1327:../../libDaisy//Middlewares/Third_Party/FatFs/src/ff.c **** 		clst = nxt;					/* Next cluster */
1328:../../libDaisy//Middlewares/Third_Party/FatFs/src/ff.c **** 	} while (clst < fs->n_fatent);	/* Repeat while not the last link */
1329:../../libDaisy//Middlewares/Third_Party/FatFs/src/ff.c **** 
1330:../../libDaisy//Middlewares/Third_Party/FatFs/src/ff.c **** #if _FS_EXFAT
1331:../../libDaisy//Middlewares/Third_Party/FatFs/src/ff.c **** 	if (fs->fs_type == FS_EXFAT) {
1332:../../libDaisy//Middlewares/Third_Party/FatFs/src/ff.c **** 		if (pclst == 0) {	/* Does the object have no chain? */
1333:../../libDaisy//Middlewares/Third_Party/FatFs/src/ff.c **** 			obj->stat = 0;		/* Change the object status 'initial' */
1334:../../libDaisy//Middlewares/Third_Party/FatFs/src/ff.c **** 		} else {
1335:../../libDaisy//Middlewares/Third_Party/FatFs/src/ff.c **** 			if (obj->stat == 3 && pclst >= obj->sclust && pclst <= obj->sclust + obj->n_cont) {	/* Did the c
1336:../../libDaisy//Middlewares/Third_Party/FatFs/src/ff.c **** 				obj->stat = 2;	/* Change the object status 'contiguous' */
1337:../../libDaisy//Middlewares/Third_Party/FatFs/src/ff.c **** 			}
1338:../../libDaisy//Middlewares/Third_Party/FatFs/src/ff.c **** 		}
1339:../../libDaisy//Middlewares/Third_Party/FatFs/src/ff.c **** 	}
1340:../../libDaisy//Middlewares/Third_Party/FatFs/src/ff.c **** #endif
1341:../../libDaisy//Middlewares/Third_Party/FatFs/src/ff.c **** 	return FR_OK;
1342:../../libDaisy//Middlewares/Third_Party/FatFs/src/ff.c **** }
1343:../../libDaisy//Middlewares/Third_Party/FatFs/src/ff.c **** 
1344:../../libDaisy//Middlewares/Third_Party/FatFs/src/ff.c **** 
1345:../../libDaisy//Middlewares/Third_Party/FatFs/src/ff.c **** 
1346:../../libDaisy//Middlewares/Third_Party/FatFs/src/ff.c **** 
1347:../../libDaisy//Middlewares/Third_Party/FatFs/src/ff.c **** /*-----------------------------------------------------------------------*/
1348:../../libDaisy//Middlewares/Third_Party/FatFs/src/ff.c **** /* FAT handling - Stretch a chain or Create a new chain                  */
1349:../../libDaisy//Middlewares/Third_Party/FatFs/src/ff.c **** /*-----------------------------------------------------------------------*/
1350:../../libDaisy//Middlewares/Third_Party/FatFs/src/ff.c **** static
1351:../../libDaisy//Middlewares/Third_Party/FatFs/src/ff.c **** DWORD create_chain (	/* 0:No free cluster, 1:Internal error, 0xFFFFFFFF:Disk error, >=2:New cluster
1352:../../libDaisy//Middlewares/Third_Party/FatFs/src/ff.c **** 	_FDID* obj,			/* Corresponding object */
1353:../../libDaisy//Middlewares/Third_Party/FatFs/src/ff.c **** 	DWORD clst			/* Cluster# to stretch, 0:Create a new chain */
1354:../../libDaisy//Middlewares/Third_Party/FatFs/src/ff.c **** )
1355:../../libDaisy//Middlewares/Third_Party/FatFs/src/ff.c **** {
1356:../../libDaisy//Middlewares/Third_Party/FatFs/src/ff.c **** 	DWORD cs, ncl, scl;
1357:../../libDaisy//Middlewares/Third_Party/FatFs/src/ff.c **** 	FRESULT res;
1358:../../libDaisy//Middlewares/Third_Party/FatFs/src/ff.c **** 	FATFS *fs = obj->fs;
1359:../../libDaisy//Middlewares/Third_Party/FatFs/src/ff.c **** 
1360:../../libDaisy//Middlewares/Third_Party/FatFs/src/ff.c **** 
1361:../../libDaisy//Middlewares/Third_Party/FatFs/src/ff.c **** 	if (clst == 0) {	/* Create a new chain */
1362:../../libDaisy//Middlewares/Third_Party/FatFs/src/ff.c **** 		scl = fs->last_clst;				/* Get suggested cluster to start from */
1363:../../libDaisy//Middlewares/Third_Party/FatFs/src/ff.c **** 		if (scl == 0 || scl >= fs->n_fatent) scl = 1;
1364:../../libDaisy//Middlewares/Third_Party/FatFs/src/ff.c **** 	}
1365:../../libDaisy//Middlewares/Third_Party/FatFs/src/ff.c **** 	else {				/* Stretch current chain */
1366:../../libDaisy//Middlewares/Third_Party/FatFs/src/ff.c **** 		cs = get_fat(obj, clst);			/* Check the cluster status */
1367:../../libDaisy//Middlewares/Third_Party/FatFs/src/ff.c **** 		if (cs < 2) return 1;				/* Invalid FAT value */
1368:../../libDaisy//Middlewares/Third_Party/FatFs/src/ff.c **** 		if (cs == 0xFFFFFFFF) return cs;	/* A disk error occurred */
ARM GAS  C:\Users\danig\AppData\Local\Temp\ccGhRbic.s 			page 28


1369:../../libDaisy//Middlewares/Third_Party/FatFs/src/ff.c **** 		if (cs < fs->n_fatent) return cs;	/* It is already followed by next cluster */
1370:../../libDaisy//Middlewares/Third_Party/FatFs/src/ff.c **** 		scl = clst;
1371:../../libDaisy//Middlewares/Third_Party/FatFs/src/ff.c **** 	}
1372:../../libDaisy//Middlewares/Third_Party/FatFs/src/ff.c **** 
1373:../../libDaisy//Middlewares/Third_Party/FatFs/src/ff.c **** #if _FS_EXFAT
1374:../../libDaisy//Middlewares/Third_Party/FatFs/src/ff.c **** 	if (fs->fs_type == FS_EXFAT) {	/* On the exFAT volume */
1375:../../libDaisy//Middlewares/Third_Party/FatFs/src/ff.c **** 		ncl = find_bitmap(fs, scl, 1);				/* Find a free cluster */
1376:../../libDaisy//Middlewares/Third_Party/FatFs/src/ff.c **** 		if (ncl == 0 || ncl == 0xFFFFFFFF) return ncl;	/* No free cluster or hard error? */
1377:../../libDaisy//Middlewares/Third_Party/FatFs/src/ff.c **** 		res = change_bitmap(fs, ncl, 1, 1);			/* Mark the cluster 'in use' */
1378:../../libDaisy//Middlewares/Third_Party/FatFs/src/ff.c **** 		if (res == FR_INT_ERR) return 1;
1379:../../libDaisy//Middlewares/Third_Party/FatFs/src/ff.c **** 		if (res == FR_DISK_ERR) return 0xFFFFFFFF;
1380:../../libDaisy//Middlewares/Third_Party/FatFs/src/ff.c **** 		if (clst == 0) {							/* Is it a new chain? */
1381:../../libDaisy//Middlewares/Third_Party/FatFs/src/ff.c **** 			obj->stat = 2;							/* Set status 'contiguous' */
1382:../../libDaisy//Middlewares/Third_Party/FatFs/src/ff.c **** 		} else {									/* It is a stretched chain */
1383:../../libDaisy//Middlewares/Third_Party/FatFs/src/ff.c **** 			if (obj->stat == 2 && ncl != scl + 1) {	/* Is the chain got fragmented? */
1384:../../libDaisy//Middlewares/Third_Party/FatFs/src/ff.c **** 				obj->n_cont = scl - obj->sclust;	/* Set size of the contiguous part */
1385:../../libDaisy//Middlewares/Third_Party/FatFs/src/ff.c **** 				obj->stat = 3;						/* Change status 'just fragmented' */
1386:../../libDaisy//Middlewares/Third_Party/FatFs/src/ff.c **** 			}
1387:../../libDaisy//Middlewares/Third_Party/FatFs/src/ff.c **** 		}
1388:../../libDaisy//Middlewares/Third_Party/FatFs/src/ff.c **** 		if (obj->stat != 2) {	/* Is the file non-contiguous? */
1389:../../libDaisy//Middlewares/Third_Party/FatFs/src/ff.c **** 			if (ncl == clst + 1) {	/* Is the cluster next to previous one? */
1390:../../libDaisy//Middlewares/Third_Party/FatFs/src/ff.c **** 				obj->n_frag = obj->n_frag ? obj->n_frag + 1 : 2;	/* Increment size of last framgent */
1391:../../libDaisy//Middlewares/Third_Party/FatFs/src/ff.c **** 			} else {				/* New fragment */
1392:../../libDaisy//Middlewares/Third_Party/FatFs/src/ff.c **** 				if (obj->n_frag == 0) obj->n_frag = 1;
1393:../../libDaisy//Middlewares/Third_Party/FatFs/src/ff.c **** 				res = fill_last_frag(obj, clst, ncl);	/* Fill last fragment on the FAT and link it to new one *
1394:../../libDaisy//Middlewares/Third_Party/FatFs/src/ff.c **** 				if (res == FR_OK) obj->n_frag = 1;
1395:../../libDaisy//Middlewares/Third_Party/FatFs/src/ff.c **** 			}
1396:../../libDaisy//Middlewares/Third_Party/FatFs/src/ff.c **** 		}
1397:../../libDaisy//Middlewares/Third_Party/FatFs/src/ff.c **** 	} else
1398:../../libDaisy//Middlewares/Third_Party/FatFs/src/ff.c **** #endif
1399:../../libDaisy//Middlewares/Third_Party/FatFs/src/ff.c **** 	{	/* On the FAT12/16/32 volume */
1400:../../libDaisy//Middlewares/Third_Party/FatFs/src/ff.c **** 		ncl = scl;	/* Start cluster */
1401:../../libDaisy//Middlewares/Third_Party/FatFs/src/ff.c **** 		for (;;) {
1402:../../libDaisy//Middlewares/Third_Party/FatFs/src/ff.c **** 			ncl++;							/* Next cluster */
1403:../../libDaisy//Middlewares/Third_Party/FatFs/src/ff.c **** 			if (ncl >= fs->n_fatent) {		/* Check wrap-around */
1404:../../libDaisy//Middlewares/Third_Party/FatFs/src/ff.c **** 				ncl = 2;
1405:../../libDaisy//Middlewares/Third_Party/FatFs/src/ff.c **** 				if (ncl > scl) return 0;	/* No free cluster */
1406:../../libDaisy//Middlewares/Third_Party/FatFs/src/ff.c **** 			}
1407:../../libDaisy//Middlewares/Third_Party/FatFs/src/ff.c **** 			cs = get_fat(obj, ncl);			/* Get the cluster status */
1408:../../libDaisy//Middlewares/Third_Party/FatFs/src/ff.c **** 			if (cs == 0) break;				/* Found a free cluster */
1409:../../libDaisy//Middlewares/Third_Party/FatFs/src/ff.c **** 			if (cs == 1 || cs == 0xFFFFFFFF) return cs;	/* An error occurred */
1410:../../libDaisy//Middlewares/Third_Party/FatFs/src/ff.c **** 			if (ncl == scl) return 0;		/* No free cluster */
1411:../../libDaisy//Middlewares/Third_Party/FatFs/src/ff.c **** 		}
1412:../../libDaisy//Middlewares/Third_Party/FatFs/src/ff.c **** 		res = put_fat(fs, ncl, 0xFFFFFFFF);	/* Mark the new cluster 'EOC' */
1413:../../libDaisy//Middlewares/Third_Party/FatFs/src/ff.c **** 		if (res == FR_OK && clst != 0) {
1414:../../libDaisy//Middlewares/Third_Party/FatFs/src/ff.c **** 			res = put_fat(fs, clst, ncl);	/* Link it from the previous one if needed */
1415:../../libDaisy//Middlewares/Third_Party/FatFs/src/ff.c **** 		}
1416:../../libDaisy//Middlewares/Third_Party/FatFs/src/ff.c **** 	}
1417:../../libDaisy//Middlewares/Third_Party/FatFs/src/ff.c **** 
1418:../../libDaisy//Middlewares/Third_Party/FatFs/src/ff.c **** 	if (res == FR_OK) {			/* Update FSINFO if function succeeded. */
1419:../../libDaisy//Middlewares/Third_Party/FatFs/src/ff.c **** 		fs->last_clst = ncl;
1420:../../libDaisy//Middlewares/Third_Party/FatFs/src/ff.c **** 		if (fs->free_clst <= fs->n_fatent - 2) fs->free_clst--;
1421:../../libDaisy//Middlewares/Third_Party/FatFs/src/ff.c **** 		fs->fsi_flag |= 1;
1422:../../libDaisy//Middlewares/Third_Party/FatFs/src/ff.c **** 	} else {
1423:../../libDaisy//Middlewares/Third_Party/FatFs/src/ff.c **** 		ncl = (res == FR_DISK_ERR) ? 0xFFFFFFFF : 1;	/* Failed. Generate error status */
1424:../../libDaisy//Middlewares/Third_Party/FatFs/src/ff.c **** 	}
1425:../../libDaisy//Middlewares/Third_Party/FatFs/src/ff.c **** 
ARM GAS  C:\Users\danig\AppData\Local\Temp\ccGhRbic.s 			page 29


1426:../../libDaisy//Middlewares/Third_Party/FatFs/src/ff.c **** 	return ncl;		/* Return new cluster number or error status */
1427:../../libDaisy//Middlewares/Third_Party/FatFs/src/ff.c **** }
1428:../../libDaisy//Middlewares/Third_Party/FatFs/src/ff.c **** 
1429:../../libDaisy//Middlewares/Third_Party/FatFs/src/ff.c **** #endif /* !_FS_READONLY */
1430:../../libDaisy//Middlewares/Third_Party/FatFs/src/ff.c **** 
1431:../../libDaisy//Middlewares/Third_Party/FatFs/src/ff.c **** 
1432:../../libDaisy//Middlewares/Third_Party/FatFs/src/ff.c **** 
1433:../../libDaisy//Middlewares/Third_Party/FatFs/src/ff.c **** 
1434:../../libDaisy//Middlewares/Third_Party/FatFs/src/ff.c **** #if _USE_FASTSEEK
1435:../../libDaisy//Middlewares/Third_Party/FatFs/src/ff.c **** /*-----------------------------------------------------------------------*/
1436:../../libDaisy//Middlewares/Third_Party/FatFs/src/ff.c **** /* FAT handling - Convert offset into cluster with link map table        */
1437:../../libDaisy//Middlewares/Third_Party/FatFs/src/ff.c **** /*-----------------------------------------------------------------------*/
1438:../../libDaisy//Middlewares/Third_Party/FatFs/src/ff.c **** 
1439:../../libDaisy//Middlewares/Third_Party/FatFs/src/ff.c **** static
1440:../../libDaisy//Middlewares/Third_Party/FatFs/src/ff.c **** DWORD clmt_clust (	/* <2:Error, >=2:Cluster number */
1441:../../libDaisy//Middlewares/Third_Party/FatFs/src/ff.c **** 	FIL* fp,		/* Pointer to the file object */
1442:../../libDaisy//Middlewares/Third_Party/FatFs/src/ff.c **** 	FSIZE_t ofs		/* File offset to be converted to cluster# */
1443:../../libDaisy//Middlewares/Third_Party/FatFs/src/ff.c **** )
1444:../../libDaisy//Middlewares/Third_Party/FatFs/src/ff.c **** {
 178              		.loc 1 1444 1 is_stmt 1 view -0
 179              		.cfi_startproc
 180              		@ args = 0, pretend = 0, frame = 0
 181              		@ frame_needed = 0, uses_anonymous_args = 0
 182              		@ link register save eliminated.
1445:../../libDaisy//Middlewares/Third_Party/FatFs/src/ff.c **** 	DWORD cl, ncl, *tbl;
 183              		.loc 1 1445 2 view .LVU48
1446:../../libDaisy//Middlewares/Third_Party/FatFs/src/ff.c **** 	FATFS *fs = fp->obj.fs;
 184              		.loc 1 1446 2 view .LVU49
1447:../../libDaisy//Middlewares/Third_Party/FatFs/src/ff.c **** 
1448:../../libDaisy//Middlewares/Third_Party/FatFs/src/ff.c **** 
1449:../../libDaisy//Middlewares/Third_Party/FatFs/src/ff.c **** 	tbl = fp->cltbl + 1;	/* Top of CLMT */
 185              		.loc 1 1449 2 view .LVU50
1450:../../libDaisy//Middlewares/Third_Party/FatFs/src/ff.c **** 	cl = (DWORD)(ofs / SS(fs) / fs->csize);	/* Cluster order from top of the file */
 186              		.loc 1 1450 32 is_stmt 0 view .LVU51
 187 0000 0268     		ldr	r2, [r0]
 188              		.loc 1 1450 19 view .LVU52
 189 0002 490A     		lsrs	r1, r1, #9
 190              	.LVL14:
1449:../../libDaisy//Middlewares/Third_Party/FatFs/src/ff.c **** 	cl = (DWORD)(ofs / SS(fs) / fs->csize);	/* Cluster order from top of the file */
 191              		.loc 1 1449 6 view .LVU53
 192 0004 836A     		ldr	r3, [r0, #40]
 193              		.loc 1 1450 32 view .LVU54
 194 0006 5289     		ldrh	r2, [r2, #10]
1449:../../libDaisy//Middlewares/Third_Party/FatFs/src/ff.c **** 	cl = (DWORD)(ofs / SS(fs) / fs->csize);	/* Cluster order from top of the file */
 195              		.loc 1 1449 6 view .LVU55
 196 0008 0433     		adds	r3, r3, #4
 197              	.LVL15:
 198              		.loc 1 1450 2 is_stmt 1 view .LVU56
 199              		.loc 1 1450 5 is_stmt 0 view .LVU57
 200 000a B1FBF2F1 		udiv	r1, r1, r2
 201              	.LVL16:
 202              	.L12:
1451:../../libDaisy//Middlewares/Third_Party/FatFs/src/ff.c **** 	for (;;) {
 203              		.loc 1 1451 2 is_stmt 1 view .LVU58
1452:../../libDaisy//Middlewares/Third_Party/FatFs/src/ff.c **** 		ncl = *tbl++;			/* Number of cluters in the fragment */
 204              		.loc 1 1452 3 view .LVU59
 205              		.loc 1 1452 7 is_stmt 0 view .LVU60
ARM GAS  C:\Users\danig\AppData\Local\Temp\ccGhRbic.s 			page 30


 206 000e 1868     		ldr	r0, [r3]
 207              	.LVL17:
1453:../../libDaisy//Middlewares/Third_Party/FatFs/src/ff.c **** 		if (ncl == 0) return 0;	/* End of table? (error) */
 208              		.loc 1 1453 3 is_stmt 1 view .LVU61
 209              		.loc 1 1453 6 is_stmt 0 view .LVU62
 210 0010 30B1     		cbz	r0, .L9
1454:../../libDaisy//Middlewares/Third_Party/FatFs/src/ff.c **** 		if (cl < ncl) break;	/* In this fragment? */
 211              		.loc 1 1454 3 is_stmt 1 view .LVU63
 212              		.loc 1 1454 6 is_stmt 0 view .LVU64
 213 0012 8142     		cmp	r1, r0
 214 0014 02D3     		bcc	.L11
1455:../../libDaisy//Middlewares/Third_Party/FatFs/src/ff.c **** 		cl -= ncl; tbl++;		/* Next fragment */
 215              		.loc 1 1455 3 is_stmt 1 view .LVU65
 216              		.loc 1 1455 6 is_stmt 0 view .LVU66
 217 0016 091A     		subs	r1, r1, r0
 218              	.LVL18:
 219              		.loc 1 1455 14 is_stmt 1 view .LVU67
 220 0018 0833     		adds	r3, r3, #8
 221              	.LVL19:
1451:../../libDaisy//Middlewares/Third_Party/FatFs/src/ff.c **** 		ncl = *tbl++;			/* Number of cluters in the fragment */
 222              		.loc 1 1451 8 view .LVU68
1452:../../libDaisy//Middlewares/Third_Party/FatFs/src/ff.c **** 		if (ncl == 0) return 0;	/* End of table? (error) */
 223              		.loc 1 1452 7 is_stmt 0 view .LVU69
 224 001a F8E7     		b	.L12
 225              	.LVL20:
 226              	.L11:
1456:../../libDaisy//Middlewares/Third_Party/FatFs/src/ff.c **** 	}
1457:../../libDaisy//Middlewares/Third_Party/FatFs/src/ff.c **** 	return cl + *tbl;	/* Return the cluster number */
 227              		.loc 1 1457 2 is_stmt 1 view .LVU70
 228              		.loc 1 1457 12 is_stmt 0 view .LVU71
 229 001c 5868     		ldr	r0, [r3, #4]
 230              	.LVL21:
 231              		.loc 1 1457 12 view .LVU72
 232 001e 0844     		add	r0, r0, r1
 233              	.L9:
1458:../../libDaisy//Middlewares/Third_Party/FatFs/src/ff.c **** }
 234              		.loc 1 1458 1 view .LVU73
 235 0020 7047     		bx	lr
 236              		.cfi_endproc
 237              	.LFE353:
 239              		.section	.text.st_clust,"ax",%progbits
 240              		.align	1
 241              		.syntax unified
 242              		.thumb
 243              		.thumb_func
 244              		.fpu fpv5-d16
 246              	st_clust:
 247              	.LVL22:
 248              	.LFB358:
1459:../../libDaisy//Middlewares/Third_Party/FatFs/src/ff.c **** 
1460:../../libDaisy//Middlewares/Third_Party/FatFs/src/ff.c **** #endif	/* _USE_FASTSEEK */
1461:../../libDaisy//Middlewares/Third_Party/FatFs/src/ff.c **** 
1462:../../libDaisy//Middlewares/Third_Party/FatFs/src/ff.c **** 
1463:../../libDaisy//Middlewares/Third_Party/FatFs/src/ff.c **** 
1464:../../libDaisy//Middlewares/Third_Party/FatFs/src/ff.c **** 
1465:../../libDaisy//Middlewares/Third_Party/FatFs/src/ff.c **** /*-----------------------------------------------------------------------*/
1466:../../libDaisy//Middlewares/Third_Party/FatFs/src/ff.c **** /* Directory handling - Set directory index                              */
ARM GAS  C:\Users\danig\AppData\Local\Temp\ccGhRbic.s 			page 31


1467:../../libDaisy//Middlewares/Third_Party/FatFs/src/ff.c **** /*-----------------------------------------------------------------------*/
1468:../../libDaisy//Middlewares/Third_Party/FatFs/src/ff.c **** 
1469:../../libDaisy//Middlewares/Third_Party/FatFs/src/ff.c **** static
1470:../../libDaisy//Middlewares/Third_Party/FatFs/src/ff.c **** FRESULT dir_sdi (	/* FR_OK(0):succeeded, !=0:error */
1471:../../libDaisy//Middlewares/Third_Party/FatFs/src/ff.c **** 	DIR* dp,		/* Pointer to directory object */
1472:../../libDaisy//Middlewares/Third_Party/FatFs/src/ff.c **** 	DWORD ofs		/* Offset of directory table */
1473:../../libDaisy//Middlewares/Third_Party/FatFs/src/ff.c **** )
1474:../../libDaisy//Middlewares/Third_Party/FatFs/src/ff.c **** {
1475:../../libDaisy//Middlewares/Third_Party/FatFs/src/ff.c **** 	DWORD csz, clst;
1476:../../libDaisy//Middlewares/Third_Party/FatFs/src/ff.c **** 	FATFS *fs = dp->obj.fs;
1477:../../libDaisy//Middlewares/Third_Party/FatFs/src/ff.c **** 
1478:../../libDaisy//Middlewares/Third_Party/FatFs/src/ff.c **** 
1479:../../libDaisy//Middlewares/Third_Party/FatFs/src/ff.c **** 	if (ofs >= (DWORD)((_FS_EXFAT && fs->fs_type == FS_EXFAT) ? MAX_DIR_EX : MAX_DIR) || ofs % SZDIRE)
1480:../../libDaisy//Middlewares/Third_Party/FatFs/src/ff.c **** 		return FR_INT_ERR;
1481:../../libDaisy//Middlewares/Third_Party/FatFs/src/ff.c **** 	}
1482:../../libDaisy//Middlewares/Third_Party/FatFs/src/ff.c **** 	dp->dptr = ofs;				/* Set current offset */
1483:../../libDaisy//Middlewares/Third_Party/FatFs/src/ff.c **** 	clst = dp->obj.sclust;		/* Table start cluster (0:root) */
1484:../../libDaisy//Middlewares/Third_Party/FatFs/src/ff.c **** 	if (clst == 0 && fs->fs_type >= FS_FAT32) {	/* Replace cluster# 0 with root cluster# */
1485:../../libDaisy//Middlewares/Third_Party/FatFs/src/ff.c **** 		clst = fs->dirbase;
1486:../../libDaisy//Middlewares/Third_Party/FatFs/src/ff.c **** 		if (_FS_EXFAT) dp->obj.stat = 0;	/* exFAT: Root dir has an FAT chain */
1487:../../libDaisy//Middlewares/Third_Party/FatFs/src/ff.c **** 	}
1488:../../libDaisy//Middlewares/Third_Party/FatFs/src/ff.c **** 
1489:../../libDaisy//Middlewares/Third_Party/FatFs/src/ff.c **** 	if (clst == 0) {	/* Static table (root-directory in FAT12/16) */
1490:../../libDaisy//Middlewares/Third_Party/FatFs/src/ff.c **** 		if (ofs / SZDIRE >= fs->n_rootdir)	return FR_INT_ERR;	/* Is index out of range? */
1491:../../libDaisy//Middlewares/Third_Party/FatFs/src/ff.c **** 		dp->sect = fs->dirbase;
1492:../../libDaisy//Middlewares/Third_Party/FatFs/src/ff.c **** 
1493:../../libDaisy//Middlewares/Third_Party/FatFs/src/ff.c **** 	} else {			/* Dynamic table (sub-directory or root-directory in FAT32+) */
1494:../../libDaisy//Middlewares/Third_Party/FatFs/src/ff.c **** 		csz = (DWORD)fs->csize * SS(fs);	/* Bytes per cluster */
1495:../../libDaisy//Middlewares/Third_Party/FatFs/src/ff.c **** 		while (ofs >= csz) {				/* Follow cluster chain */
1496:../../libDaisy//Middlewares/Third_Party/FatFs/src/ff.c **** 			clst = get_fat(&dp->obj, clst);				/* Get next cluster */
1497:../../libDaisy//Middlewares/Third_Party/FatFs/src/ff.c **** 			if (clst == 0xFFFFFFFF) return FR_DISK_ERR;	/* Disk error */
1498:../../libDaisy//Middlewares/Third_Party/FatFs/src/ff.c **** 			if (clst < 2 || clst >= fs->n_fatent) return FR_INT_ERR;	/* Reached to end of table or internal 
1499:../../libDaisy//Middlewares/Third_Party/FatFs/src/ff.c **** 			ofs -= csz;
1500:../../libDaisy//Middlewares/Third_Party/FatFs/src/ff.c **** 		}
1501:../../libDaisy//Middlewares/Third_Party/FatFs/src/ff.c **** 		dp->sect = clust2sect(fs, clst);
1502:../../libDaisy//Middlewares/Third_Party/FatFs/src/ff.c **** 	}
1503:../../libDaisy//Middlewares/Third_Party/FatFs/src/ff.c **** 	dp->clust = clst;					/* Current cluster# */
1504:../../libDaisy//Middlewares/Third_Party/FatFs/src/ff.c **** 	if (!dp->sect) return FR_INT_ERR;
1505:../../libDaisy//Middlewares/Third_Party/FatFs/src/ff.c **** 	dp->sect += ofs / SS(fs);			/* Sector# of the directory entry */
1506:../../libDaisy//Middlewares/Third_Party/FatFs/src/ff.c **** 	dp->dir = fs->win + (ofs % SS(fs));	/* Pointer to the entry in the win[] */
1507:../../libDaisy//Middlewares/Third_Party/FatFs/src/ff.c **** 
1508:../../libDaisy//Middlewares/Third_Party/FatFs/src/ff.c **** 	return FR_OK;
1509:../../libDaisy//Middlewares/Third_Party/FatFs/src/ff.c **** }
1510:../../libDaisy//Middlewares/Third_Party/FatFs/src/ff.c **** 
1511:../../libDaisy//Middlewares/Third_Party/FatFs/src/ff.c **** 
1512:../../libDaisy//Middlewares/Third_Party/FatFs/src/ff.c **** 
1513:../../libDaisy//Middlewares/Third_Party/FatFs/src/ff.c **** 
1514:../../libDaisy//Middlewares/Third_Party/FatFs/src/ff.c **** /*-----------------------------------------------------------------------*/
1515:../../libDaisy//Middlewares/Third_Party/FatFs/src/ff.c **** /* Directory handling - Move directory table index next                  */
1516:../../libDaisy//Middlewares/Third_Party/FatFs/src/ff.c **** /*-----------------------------------------------------------------------*/
1517:../../libDaisy//Middlewares/Third_Party/FatFs/src/ff.c **** 
1518:../../libDaisy//Middlewares/Third_Party/FatFs/src/ff.c **** static
1519:../../libDaisy//Middlewares/Third_Party/FatFs/src/ff.c **** FRESULT dir_next (	/* FR_OK(0):succeeded, FR_NO_FILE:End of table, FR_DENIED:Could not stretch */
1520:../../libDaisy//Middlewares/Third_Party/FatFs/src/ff.c **** 	DIR* dp,		/* Pointer to the directory object */
1521:../../libDaisy//Middlewares/Third_Party/FatFs/src/ff.c **** 	int stretch		/* 0: Do not stretch table, 1: Stretch table if needed */
1522:../../libDaisy//Middlewares/Third_Party/FatFs/src/ff.c **** )
1523:../../libDaisy//Middlewares/Third_Party/FatFs/src/ff.c **** {
ARM GAS  C:\Users\danig\AppData\Local\Temp\ccGhRbic.s 			page 32


1524:../../libDaisy//Middlewares/Third_Party/FatFs/src/ff.c **** 	DWORD ofs, clst;
1525:../../libDaisy//Middlewares/Third_Party/FatFs/src/ff.c **** 	FATFS *fs = dp->obj.fs;
1526:../../libDaisy//Middlewares/Third_Party/FatFs/src/ff.c **** #if !_FS_READONLY
1527:../../libDaisy//Middlewares/Third_Party/FatFs/src/ff.c **** 	UINT n;
1528:../../libDaisy//Middlewares/Third_Party/FatFs/src/ff.c **** #endif
1529:../../libDaisy//Middlewares/Third_Party/FatFs/src/ff.c **** 
1530:../../libDaisy//Middlewares/Third_Party/FatFs/src/ff.c **** 	ofs = dp->dptr + SZDIRE;	/* Next entry */
1531:../../libDaisy//Middlewares/Third_Party/FatFs/src/ff.c **** 	if (!dp->sect || ofs >= (DWORD)((_FS_EXFAT && fs->fs_type == FS_EXFAT) ? MAX_DIR_EX : MAX_DIR)) re
1532:../../libDaisy//Middlewares/Third_Party/FatFs/src/ff.c **** 
1533:../../libDaisy//Middlewares/Third_Party/FatFs/src/ff.c **** 	if (ofs % SS(fs) == 0) {	/* Sector changed? */
1534:../../libDaisy//Middlewares/Third_Party/FatFs/src/ff.c **** 		dp->sect++;				/* Next sector */
1535:../../libDaisy//Middlewares/Third_Party/FatFs/src/ff.c **** 
1536:../../libDaisy//Middlewares/Third_Party/FatFs/src/ff.c **** 		if (!dp->clust) {		/* Static table */
1537:../../libDaisy//Middlewares/Third_Party/FatFs/src/ff.c **** 			if (ofs / SZDIRE >= fs->n_rootdir) {	/* Report EOT if it reached end of static table */
1538:../../libDaisy//Middlewares/Third_Party/FatFs/src/ff.c **** 				dp->sect = 0; return FR_NO_FILE;
1539:../../libDaisy//Middlewares/Third_Party/FatFs/src/ff.c **** 			}
1540:../../libDaisy//Middlewares/Third_Party/FatFs/src/ff.c **** 		}
1541:../../libDaisy//Middlewares/Third_Party/FatFs/src/ff.c **** 		else {					/* Dynamic table */
1542:../../libDaisy//Middlewares/Third_Party/FatFs/src/ff.c **** 			if ((ofs / SS(fs) & (fs->csize - 1)) == 0) {		/* Cluster changed? */
1543:../../libDaisy//Middlewares/Third_Party/FatFs/src/ff.c **** 				clst = get_fat(&dp->obj, dp->clust);			/* Get next cluster */
1544:../../libDaisy//Middlewares/Third_Party/FatFs/src/ff.c **** 				if (clst <= 1) return FR_INT_ERR;				/* Internal error */
1545:../../libDaisy//Middlewares/Third_Party/FatFs/src/ff.c **** 				if (clst == 0xFFFFFFFF) return FR_DISK_ERR;		/* Disk error */
1546:../../libDaisy//Middlewares/Third_Party/FatFs/src/ff.c **** 				if (clst >= fs->n_fatent) {						/* Reached end of dynamic table */
1547:../../libDaisy//Middlewares/Third_Party/FatFs/src/ff.c **** #if !_FS_READONLY
1548:../../libDaisy//Middlewares/Third_Party/FatFs/src/ff.c **** 					if (!stretch) {								/* If no stretch, report EOT */
1549:../../libDaisy//Middlewares/Third_Party/FatFs/src/ff.c **** 						dp->sect = 0; return FR_NO_FILE;
1550:../../libDaisy//Middlewares/Third_Party/FatFs/src/ff.c **** 					}
1551:../../libDaisy//Middlewares/Third_Party/FatFs/src/ff.c **** 					clst = create_chain(&dp->obj, dp->clust);	/* Allocate a cluster */
1552:../../libDaisy//Middlewares/Third_Party/FatFs/src/ff.c **** 					if (clst == 0) return FR_DENIED;			/* No free cluster */
1553:../../libDaisy//Middlewares/Third_Party/FatFs/src/ff.c **** 					if (clst == 1) return FR_INT_ERR;			/* Internal error */
1554:../../libDaisy//Middlewares/Third_Party/FatFs/src/ff.c **** 					if (clst == 0xFFFFFFFF) return FR_DISK_ERR;	/* Disk error */
1555:../../libDaisy//Middlewares/Third_Party/FatFs/src/ff.c **** 					/* Clean-up the stretched table */
1556:../../libDaisy//Middlewares/Third_Party/FatFs/src/ff.c **** 					if (_FS_EXFAT) dp->obj.stat |= 4;			/* The directory needs to be updated */
1557:../../libDaisy//Middlewares/Third_Party/FatFs/src/ff.c **** 					if (sync_window(fs) != FR_OK) return FR_DISK_ERR;	/* Flush disk access window */
1558:../../libDaisy//Middlewares/Third_Party/FatFs/src/ff.c **** 					mem_set(fs->win, 0, SS(fs));				/* Clear window buffer */
1559:../../libDaisy//Middlewares/Third_Party/FatFs/src/ff.c **** 					for (n = 0, fs->winsect = clust2sect(fs, clst); n < fs->csize; n++, fs->winsect++) {	/* Fill t
1560:../../libDaisy//Middlewares/Third_Party/FatFs/src/ff.c **** 						fs->wflag = 1;
1561:../../libDaisy//Middlewares/Third_Party/FatFs/src/ff.c **** 						if (sync_window(fs) != FR_OK) return FR_DISK_ERR;
1562:../../libDaisy//Middlewares/Third_Party/FatFs/src/ff.c **** 					}
1563:../../libDaisy//Middlewares/Third_Party/FatFs/src/ff.c **** 					fs->winsect -= n;							/* Restore window offset */
1564:../../libDaisy//Middlewares/Third_Party/FatFs/src/ff.c **** #else
1565:../../libDaisy//Middlewares/Third_Party/FatFs/src/ff.c **** 					if (!stretch) dp->sect = 0;					/* (this line is to suppress compiler warning) */
1566:../../libDaisy//Middlewares/Third_Party/FatFs/src/ff.c **** 					dp->sect = 0; return FR_NO_FILE;			/* Report EOT */
1567:../../libDaisy//Middlewares/Third_Party/FatFs/src/ff.c **** #endif
1568:../../libDaisy//Middlewares/Third_Party/FatFs/src/ff.c **** 				}
1569:../../libDaisy//Middlewares/Third_Party/FatFs/src/ff.c **** 				dp->clust = clst;		/* Initialize data for new cluster */
1570:../../libDaisy//Middlewares/Third_Party/FatFs/src/ff.c **** 				dp->sect = clust2sect(fs, clst);
1571:../../libDaisy//Middlewares/Third_Party/FatFs/src/ff.c **** 			}
1572:../../libDaisy//Middlewares/Third_Party/FatFs/src/ff.c **** 		}
1573:../../libDaisy//Middlewares/Third_Party/FatFs/src/ff.c **** 	}
1574:../../libDaisy//Middlewares/Third_Party/FatFs/src/ff.c **** 	dp->dptr = ofs;						/* Current entry */
1575:../../libDaisy//Middlewares/Third_Party/FatFs/src/ff.c **** 	dp->dir = fs->win + ofs % SS(fs);	/* Pointer to the entry in the win[] */
1576:../../libDaisy//Middlewares/Third_Party/FatFs/src/ff.c **** 
1577:../../libDaisy//Middlewares/Third_Party/FatFs/src/ff.c **** 	return FR_OK;
1578:../../libDaisy//Middlewares/Third_Party/FatFs/src/ff.c **** }
1579:../../libDaisy//Middlewares/Third_Party/FatFs/src/ff.c **** 
1580:../../libDaisy//Middlewares/Third_Party/FatFs/src/ff.c **** 
ARM GAS  C:\Users\danig\AppData\Local\Temp\ccGhRbic.s 			page 33


1581:../../libDaisy//Middlewares/Third_Party/FatFs/src/ff.c **** 
1582:../../libDaisy//Middlewares/Third_Party/FatFs/src/ff.c **** 
1583:../../libDaisy//Middlewares/Third_Party/FatFs/src/ff.c **** #if !_FS_READONLY
1584:../../libDaisy//Middlewares/Third_Party/FatFs/src/ff.c **** /*-----------------------------------------------------------------------*/
1585:../../libDaisy//Middlewares/Third_Party/FatFs/src/ff.c **** /* Directory handling - Reserve a block of directory entries             */
1586:../../libDaisy//Middlewares/Third_Party/FatFs/src/ff.c **** /*-----------------------------------------------------------------------*/
1587:../../libDaisy//Middlewares/Third_Party/FatFs/src/ff.c **** 
1588:../../libDaisy//Middlewares/Third_Party/FatFs/src/ff.c **** static
1589:../../libDaisy//Middlewares/Third_Party/FatFs/src/ff.c **** FRESULT dir_alloc (	/* FR_OK(0):succeeded, !=0:error */
1590:../../libDaisy//Middlewares/Third_Party/FatFs/src/ff.c **** 	DIR* dp,		/* Pointer to the directory object */
1591:../../libDaisy//Middlewares/Third_Party/FatFs/src/ff.c **** 	UINT nent		/* Number of contiguous entries to allocate */
1592:../../libDaisy//Middlewares/Third_Party/FatFs/src/ff.c **** )
1593:../../libDaisy//Middlewares/Third_Party/FatFs/src/ff.c **** {
1594:../../libDaisy//Middlewares/Third_Party/FatFs/src/ff.c **** 	FRESULT res;
1595:../../libDaisy//Middlewares/Third_Party/FatFs/src/ff.c **** 	UINT n;
1596:../../libDaisy//Middlewares/Third_Party/FatFs/src/ff.c **** 	FATFS *fs = dp->obj.fs;
1597:../../libDaisy//Middlewares/Third_Party/FatFs/src/ff.c **** 
1598:../../libDaisy//Middlewares/Third_Party/FatFs/src/ff.c **** 
1599:../../libDaisy//Middlewares/Third_Party/FatFs/src/ff.c **** 	res = dir_sdi(dp, 0);
1600:../../libDaisy//Middlewares/Third_Party/FatFs/src/ff.c **** 	if (res == FR_OK) {
1601:../../libDaisy//Middlewares/Third_Party/FatFs/src/ff.c **** 		n = 0;
1602:../../libDaisy//Middlewares/Third_Party/FatFs/src/ff.c **** 		do {
1603:../../libDaisy//Middlewares/Third_Party/FatFs/src/ff.c **** 			res = move_window(fs, dp->sect);
1604:../../libDaisy//Middlewares/Third_Party/FatFs/src/ff.c **** 			if (res != FR_OK) break;
1605:../../libDaisy//Middlewares/Third_Party/FatFs/src/ff.c **** #if _FS_EXFAT
1606:../../libDaisy//Middlewares/Third_Party/FatFs/src/ff.c **** 			if ((fs->fs_type == FS_EXFAT) ? (int)((dp->dir[XDIR_Type] & 0x80) == 0) : (int)(dp->dir[DIR_Name
1607:../../libDaisy//Middlewares/Third_Party/FatFs/src/ff.c **** #else
1608:../../libDaisy//Middlewares/Third_Party/FatFs/src/ff.c **** 			if (dp->dir[DIR_Name] == DDEM || dp->dir[DIR_Name] == 0) {
1609:../../libDaisy//Middlewares/Third_Party/FatFs/src/ff.c **** #endif
1610:../../libDaisy//Middlewares/Third_Party/FatFs/src/ff.c **** 				if (++n == nent) break;	/* A block of contiguous free entries is found */
1611:../../libDaisy//Middlewares/Third_Party/FatFs/src/ff.c **** 			} else {
1612:../../libDaisy//Middlewares/Third_Party/FatFs/src/ff.c **** 				n = 0;					/* Not a blank entry. Restart to search */
1613:../../libDaisy//Middlewares/Third_Party/FatFs/src/ff.c **** 			}
1614:../../libDaisy//Middlewares/Third_Party/FatFs/src/ff.c **** 			res = dir_next(dp, 1);
1615:../../libDaisy//Middlewares/Third_Party/FatFs/src/ff.c **** 		} while (res == FR_OK);	/* Next entry with table stretch enabled */
1616:../../libDaisy//Middlewares/Third_Party/FatFs/src/ff.c **** 	}
1617:../../libDaisy//Middlewares/Third_Party/FatFs/src/ff.c **** 
1618:../../libDaisy//Middlewares/Third_Party/FatFs/src/ff.c **** 	if (res == FR_NO_FILE) res = FR_DENIED;	/* No directory entry to allocate */
1619:../../libDaisy//Middlewares/Third_Party/FatFs/src/ff.c **** 	return res;
1620:../../libDaisy//Middlewares/Third_Party/FatFs/src/ff.c **** }
1621:../../libDaisy//Middlewares/Third_Party/FatFs/src/ff.c **** 
1622:../../libDaisy//Middlewares/Third_Party/FatFs/src/ff.c **** #endif	/* !_FS_READONLY */
1623:../../libDaisy//Middlewares/Third_Party/FatFs/src/ff.c **** 
1624:../../libDaisy//Middlewares/Third_Party/FatFs/src/ff.c **** 
1625:../../libDaisy//Middlewares/Third_Party/FatFs/src/ff.c **** 
1626:../../libDaisy//Middlewares/Third_Party/FatFs/src/ff.c **** 
1627:../../libDaisy//Middlewares/Third_Party/FatFs/src/ff.c **** /*-----------------------------------------------------------------------*/
1628:../../libDaisy//Middlewares/Third_Party/FatFs/src/ff.c **** /* FAT: Directory handling - Load/Store start cluster number             */
1629:../../libDaisy//Middlewares/Third_Party/FatFs/src/ff.c **** /*-----------------------------------------------------------------------*/
1630:../../libDaisy//Middlewares/Third_Party/FatFs/src/ff.c **** 
1631:../../libDaisy//Middlewares/Third_Party/FatFs/src/ff.c **** static
1632:../../libDaisy//Middlewares/Third_Party/FatFs/src/ff.c **** DWORD ld_clust (	/* Returns the top cluster value of the SFN entry */
1633:../../libDaisy//Middlewares/Third_Party/FatFs/src/ff.c **** 	FATFS* fs,		/* Pointer to the fs object */
1634:../../libDaisy//Middlewares/Third_Party/FatFs/src/ff.c **** 	const BYTE* dir	/* Pointer to the key entry */
1635:../../libDaisy//Middlewares/Third_Party/FatFs/src/ff.c **** )
1636:../../libDaisy//Middlewares/Third_Party/FatFs/src/ff.c **** {
1637:../../libDaisy//Middlewares/Third_Party/FatFs/src/ff.c **** 	DWORD cl;
ARM GAS  C:\Users\danig\AppData\Local\Temp\ccGhRbic.s 			page 34


1638:../../libDaisy//Middlewares/Third_Party/FatFs/src/ff.c **** 
1639:../../libDaisy//Middlewares/Third_Party/FatFs/src/ff.c **** 	cl = ld_word(dir + DIR_FstClusLO);
1640:../../libDaisy//Middlewares/Third_Party/FatFs/src/ff.c **** 	if (fs->fs_type == FS_FAT32) {
1641:../../libDaisy//Middlewares/Third_Party/FatFs/src/ff.c **** 		cl |= (DWORD)ld_word(dir + DIR_FstClusHI) << 16;
1642:../../libDaisy//Middlewares/Third_Party/FatFs/src/ff.c **** 	}
1643:../../libDaisy//Middlewares/Third_Party/FatFs/src/ff.c **** 
1644:../../libDaisy//Middlewares/Third_Party/FatFs/src/ff.c **** 	return cl;
1645:../../libDaisy//Middlewares/Third_Party/FatFs/src/ff.c **** }
1646:../../libDaisy//Middlewares/Third_Party/FatFs/src/ff.c **** 
1647:../../libDaisy//Middlewares/Third_Party/FatFs/src/ff.c **** 
1648:../../libDaisy//Middlewares/Third_Party/FatFs/src/ff.c **** #if !_FS_READONLY
1649:../../libDaisy//Middlewares/Third_Party/FatFs/src/ff.c **** static
1650:../../libDaisy//Middlewares/Third_Party/FatFs/src/ff.c **** void st_clust (
1651:../../libDaisy//Middlewares/Third_Party/FatFs/src/ff.c **** 	FATFS* fs,	/* Pointer to the fs object */
1652:../../libDaisy//Middlewares/Third_Party/FatFs/src/ff.c **** 	BYTE* dir,	/* Pointer to the key entry */
1653:../../libDaisy//Middlewares/Third_Party/FatFs/src/ff.c **** 	DWORD cl	/* Value to be set */
1654:../../libDaisy//Middlewares/Third_Party/FatFs/src/ff.c **** )
1655:../../libDaisy//Middlewares/Third_Party/FatFs/src/ff.c **** {
 249              		.loc 1 1655 1 is_stmt 1 view -0
 250              		.cfi_startproc
 251              		@ args = 0, pretend = 0, frame = 0
 252              		@ frame_needed = 0, uses_anonymous_args = 0
 253              		@ link register save eliminated.
1656:../../libDaisy//Middlewares/Third_Party/FatFs/src/ff.c **** 	st_word(dir + DIR_FstClusLO, (WORD)cl);
 254              		.loc 1 1656 2 view .LVU75
 255              	.LBB140:
 256              	.LBI140:
 654:../../libDaisy//Middlewares/Third_Party/FatFs/src/ff.c **** {
 257              		.loc 1 654 6 view .LVU76
 258              	.LBB141:
 656:../../libDaisy//Middlewares/Third_Party/FatFs/src/ff.c **** 	*ptr++ = (BYTE)val;
 259              		.loc 1 656 2 view .LVU77
 656:../../libDaisy//Middlewares/Third_Party/FatFs/src/ff.c **** 	*ptr++ = (BYTE)val;
 260              		.loc 1 656 26 is_stmt 0 view .LVU78
 261 0000 C2F30723 		ubfx	r3, r2, #8, #8
 656:../../libDaisy//Middlewares/Third_Party/FatFs/src/ff.c **** 	*ptr++ = (BYTE)val;
 262              		.loc 1 656 11 view .LVU79
 263 0004 8A76     		strb	r2, [r1, #26]
 656:../../libDaisy//Middlewares/Third_Party/FatFs/src/ff.c **** 	*ptr++ = (BYTE)val;
 264              		.loc 1 656 22 is_stmt 1 view .LVU80
 265              	.LVL23:
 657:../../libDaisy//Middlewares/Third_Party/FatFs/src/ff.c **** }
 266              		.loc 1 657 2 view .LVU81
 657:../../libDaisy//Middlewares/Third_Party/FatFs/src/ff.c **** }
 267              		.loc 1 657 11 is_stmt 0 view .LVU82
 268 0006 CB76     		strb	r3, [r1, #27]
 269              	.LVL24:
 657:../../libDaisy//Middlewares/Third_Party/FatFs/src/ff.c **** }
 270              		.loc 1 657 11 view .LVU83
 271              	.LBE141:
 272              	.LBE140:
1657:../../libDaisy//Middlewares/Third_Party/FatFs/src/ff.c **** 	if (fs->fs_type == FS_FAT32) {
 273              		.loc 1 1657 2 is_stmt 1 view .LVU84
 274              		.loc 1 1657 5 is_stmt 0 view .LVU85
 275 0008 0378     		ldrb	r3, [r0]	@ zero_extendqisi2
 276 000a 032B     		cmp	r3, #3
1658:../../libDaisy//Middlewares/Third_Party/FatFs/src/ff.c **** 		st_word(dir + DIR_FstClusHI, (WORD)(cl >> 16));
ARM GAS  C:\Users\danig\AppData\Local\Temp\ccGhRbic.s 			page 35


 277              		.loc 1 1658 3 is_stmt 1 view .LVU86
 278              		.loc 1 1658 42 is_stmt 0 view .LVU87
 279 000c 01BF     		itttt	eq
 280 000e 120C     		lsreq	r2, r2, #16
 281              	.LVL25:
 282              	.LBB142:
 283              	.LBI142:
 654:../../libDaisy//Middlewares/Third_Party/FatFs/src/ff.c **** {
 284              		.loc 1 654 6 is_stmt 1 view .LVU88
 285              	.LBB143:
 656:../../libDaisy//Middlewares/Third_Party/FatFs/src/ff.c **** 	*ptr++ = (BYTE)val;
 286              		.loc 1 656 2 view .LVU89
 656:../../libDaisy//Middlewares/Third_Party/FatFs/src/ff.c **** 	*ptr++ = (BYTE)val;
 287              		.loc 1 656 11 is_stmt 0 view .LVU90
 288 0010 0A75     		strbeq	r2, [r1, #20]
 656:../../libDaisy//Middlewares/Third_Party/FatFs/src/ff.c **** 	*ptr++ = (BYTE)val;
 289              		.loc 1 656 22 is_stmt 1 view .LVU91
 290              	.LVL26:
 657:../../libDaisy//Middlewares/Third_Party/FatFs/src/ff.c **** }
 291              		.loc 1 657 2 view .LVU92
 656:../../libDaisy//Middlewares/Third_Party/FatFs/src/ff.c **** 	*ptr++ = (BYTE)val;
 292              		.loc 1 656 26 is_stmt 0 view .LVU93
 293 0012 120A     		lsreq	r2, r2, #8
 294              	.LVL27:
 657:../../libDaisy//Middlewares/Third_Party/FatFs/src/ff.c **** }
 295              		.loc 1 657 11 view .LVU94
 296 0014 4A75     		strbeq	r2, [r1, #21]
 297              	.LVL28:
 657:../../libDaisy//Middlewares/Third_Party/FatFs/src/ff.c **** }
 298              		.loc 1 657 11 view .LVU95
 299              	.LBE143:
 300              	.LBE142:
1659:../../libDaisy//Middlewares/Third_Party/FatFs/src/ff.c **** 	}
1660:../../libDaisy//Middlewares/Third_Party/FatFs/src/ff.c **** }
 301              		.loc 1 1660 1 view .LVU96
 302 0016 7047     		bx	lr
 303              		.cfi_endproc
 304              	.LFE358:
 306              		.section	.text.sum_sfn,"ax",%progbits
 307              		.align	1
 308              		.syntax unified
 309              		.thumb
 310              		.thumb_func
 311              		.fpu fpv5-d16
 313              	sum_sfn:
 314              	.LVL29:
 315              	.LFB363:
1661:../../libDaisy//Middlewares/Third_Party/FatFs/src/ff.c **** #endif
1662:../../libDaisy//Middlewares/Third_Party/FatFs/src/ff.c **** 
1663:../../libDaisy//Middlewares/Third_Party/FatFs/src/ff.c **** 
1664:../../libDaisy//Middlewares/Third_Party/FatFs/src/ff.c **** 
1665:../../libDaisy//Middlewares/Third_Party/FatFs/src/ff.c **** #if _USE_LFN != 0
1666:../../libDaisy//Middlewares/Third_Party/FatFs/src/ff.c **** /*------------------------------------------------------------------------*/
1667:../../libDaisy//Middlewares/Third_Party/FatFs/src/ff.c **** /* FAT-LFN: LFN handling                                                  */
1668:../../libDaisy//Middlewares/Third_Party/FatFs/src/ff.c **** /*------------------------------------------------------------------------*/
1669:../../libDaisy//Middlewares/Third_Party/FatFs/src/ff.c **** static
1670:../../libDaisy//Middlewares/Third_Party/FatFs/src/ff.c **** const BYTE LfnOfs[] = {1,3,5,7,9,14,16,18,20,22,24,28,30};	/* Offset of LFN characters in the direc
ARM GAS  C:\Users\danig\AppData\Local\Temp\ccGhRbic.s 			page 36


1671:../../libDaisy//Middlewares/Third_Party/FatFs/src/ff.c **** 
1672:../../libDaisy//Middlewares/Third_Party/FatFs/src/ff.c **** 
1673:../../libDaisy//Middlewares/Third_Party/FatFs/src/ff.c **** /*--------------------------------------------------------*/
1674:../../libDaisy//Middlewares/Third_Party/FatFs/src/ff.c **** /* FAT-LFN: Compare a part of file name with an LFN entry */
1675:../../libDaisy//Middlewares/Third_Party/FatFs/src/ff.c **** /*--------------------------------------------------------*/
1676:../../libDaisy//Middlewares/Third_Party/FatFs/src/ff.c **** static
1677:../../libDaisy//Middlewares/Third_Party/FatFs/src/ff.c **** int cmp_lfn (				/* 1:matched, 0:not matched */
1678:../../libDaisy//Middlewares/Third_Party/FatFs/src/ff.c **** 	const WCHAR* lfnbuf,	/* Pointer to the LFN working buffer to be compared */
1679:../../libDaisy//Middlewares/Third_Party/FatFs/src/ff.c **** 	BYTE* dir				/* Pointer to the directory entry containing the part of LFN */
1680:../../libDaisy//Middlewares/Third_Party/FatFs/src/ff.c **** )
1681:../../libDaisy//Middlewares/Third_Party/FatFs/src/ff.c **** {
1682:../../libDaisy//Middlewares/Third_Party/FatFs/src/ff.c **** 	UINT i, s;
1683:../../libDaisy//Middlewares/Third_Party/FatFs/src/ff.c **** 	WCHAR wc, uc;
1684:../../libDaisy//Middlewares/Third_Party/FatFs/src/ff.c **** 
1685:../../libDaisy//Middlewares/Third_Party/FatFs/src/ff.c **** 
1686:../../libDaisy//Middlewares/Third_Party/FatFs/src/ff.c **** 	if (ld_word(dir + LDIR_FstClusLO) != 0) return 0;	/* Check LDIR_FstClusLO */
1687:../../libDaisy//Middlewares/Third_Party/FatFs/src/ff.c **** 
1688:../../libDaisy//Middlewares/Third_Party/FatFs/src/ff.c **** 	i = ((dir[LDIR_Ord] & 0x3F) - 1) * 13;	/* Offset in the LFN buffer */
1689:../../libDaisy//Middlewares/Third_Party/FatFs/src/ff.c **** 
1690:../../libDaisy//Middlewares/Third_Party/FatFs/src/ff.c **** 	for (wc = 1, s = 0; s < 13; s++) {		/* Process all characters in the entry */
1691:../../libDaisy//Middlewares/Third_Party/FatFs/src/ff.c **** 		uc = ld_word(dir + LfnOfs[s]);		/* Pick an LFN character */
1692:../../libDaisy//Middlewares/Third_Party/FatFs/src/ff.c **** 		if (wc) {
1693:../../libDaisy//Middlewares/Third_Party/FatFs/src/ff.c **** 			if (i >= _MAX_LFN || ff_wtoupper(uc) != ff_wtoupper(lfnbuf[i++])) {	/* Compare it */
1694:../../libDaisy//Middlewares/Third_Party/FatFs/src/ff.c **** 				return 0;					/* Not matched */
1695:../../libDaisy//Middlewares/Third_Party/FatFs/src/ff.c **** 			}
1696:../../libDaisy//Middlewares/Third_Party/FatFs/src/ff.c **** 			wc = uc;
1697:../../libDaisy//Middlewares/Third_Party/FatFs/src/ff.c **** 		} else {
1698:../../libDaisy//Middlewares/Third_Party/FatFs/src/ff.c **** 			if (uc != 0xFFFF) return 0;		/* Check filler */
1699:../../libDaisy//Middlewares/Third_Party/FatFs/src/ff.c **** 		}
1700:../../libDaisy//Middlewares/Third_Party/FatFs/src/ff.c **** 	}
1701:../../libDaisy//Middlewares/Third_Party/FatFs/src/ff.c **** 
1702:../../libDaisy//Middlewares/Third_Party/FatFs/src/ff.c **** 	if ((dir[LDIR_Ord] & LLEF) && wc && lfnbuf[i]) return 0;	/* Last segment matched but different len
1703:../../libDaisy//Middlewares/Third_Party/FatFs/src/ff.c **** 
1704:../../libDaisy//Middlewares/Third_Party/FatFs/src/ff.c **** 	return 1;		/* The part of LFN matched */
1705:../../libDaisy//Middlewares/Third_Party/FatFs/src/ff.c **** }
1706:../../libDaisy//Middlewares/Third_Party/FatFs/src/ff.c **** 
1707:../../libDaisy//Middlewares/Third_Party/FatFs/src/ff.c **** 
1708:../../libDaisy//Middlewares/Third_Party/FatFs/src/ff.c **** #if _FS_MINIMIZE <= 1 || _FS_RPATH >= 2 || _USE_LABEL || _FS_EXFAT
1709:../../libDaisy//Middlewares/Third_Party/FatFs/src/ff.c **** /*-----------------------------------------------------*/
1710:../../libDaisy//Middlewares/Third_Party/FatFs/src/ff.c **** /* FAT-LFN: Pick a part of file name from an LFN entry */
1711:../../libDaisy//Middlewares/Third_Party/FatFs/src/ff.c **** /*-----------------------------------------------------*/
1712:../../libDaisy//Middlewares/Third_Party/FatFs/src/ff.c **** static
1713:../../libDaisy//Middlewares/Third_Party/FatFs/src/ff.c **** int pick_lfn (			/* 1:succeeded, 0:buffer overflow or invalid LFN entry */
1714:../../libDaisy//Middlewares/Third_Party/FatFs/src/ff.c **** 	WCHAR* lfnbuf,		/* Pointer to the LFN working buffer */
1715:../../libDaisy//Middlewares/Third_Party/FatFs/src/ff.c **** 	BYTE* dir			/* Pointer to the LFN entry */
1716:../../libDaisy//Middlewares/Third_Party/FatFs/src/ff.c **** )
1717:../../libDaisy//Middlewares/Third_Party/FatFs/src/ff.c **** {
1718:../../libDaisy//Middlewares/Third_Party/FatFs/src/ff.c **** 	UINT i, s;
1719:../../libDaisy//Middlewares/Third_Party/FatFs/src/ff.c **** 	WCHAR wc, uc;
1720:../../libDaisy//Middlewares/Third_Party/FatFs/src/ff.c **** 
1721:../../libDaisy//Middlewares/Third_Party/FatFs/src/ff.c **** 
1722:../../libDaisy//Middlewares/Third_Party/FatFs/src/ff.c **** 	if (ld_word(dir + LDIR_FstClusLO) != 0) return 0;	/* Check LDIR_FstClusLO is 0 */
1723:../../libDaisy//Middlewares/Third_Party/FatFs/src/ff.c **** 
1724:../../libDaisy//Middlewares/Third_Party/FatFs/src/ff.c **** 	i = ((dir[LDIR_Ord] & ~LLEF) - 1) * 13;	/* Offset in the LFN buffer */
1725:../../libDaisy//Middlewares/Third_Party/FatFs/src/ff.c **** 
1726:../../libDaisy//Middlewares/Third_Party/FatFs/src/ff.c **** 	for (wc = 1, s = 0; s < 13; s++) {		/* Process all characters in the entry */
1727:../../libDaisy//Middlewares/Third_Party/FatFs/src/ff.c **** 		uc = ld_word(dir + LfnOfs[s]);		/* Pick an LFN character */
ARM GAS  C:\Users\danig\AppData\Local\Temp\ccGhRbic.s 			page 37


1728:../../libDaisy//Middlewares/Third_Party/FatFs/src/ff.c **** 		if (wc) {
1729:../../libDaisy//Middlewares/Third_Party/FatFs/src/ff.c **** 			if (i >= _MAX_LFN) return 0;	/* Buffer overflow? */
1730:../../libDaisy//Middlewares/Third_Party/FatFs/src/ff.c **** 			lfnbuf[i++] = wc = uc;			/* Store it */
1731:../../libDaisy//Middlewares/Third_Party/FatFs/src/ff.c **** 		} else {
1732:../../libDaisy//Middlewares/Third_Party/FatFs/src/ff.c **** 			if (uc != 0xFFFF) return 0;		/* Check filler */
1733:../../libDaisy//Middlewares/Third_Party/FatFs/src/ff.c **** 		}
1734:../../libDaisy//Middlewares/Third_Party/FatFs/src/ff.c **** 	}
1735:../../libDaisy//Middlewares/Third_Party/FatFs/src/ff.c **** 
1736:../../libDaisy//Middlewares/Third_Party/FatFs/src/ff.c **** 	if (dir[LDIR_Ord] & LLEF) {				/* Put terminator if it is the last LFN part */
1737:../../libDaisy//Middlewares/Third_Party/FatFs/src/ff.c **** 		if (i >= _MAX_LFN) return 0;		/* Buffer overflow? */
1738:../../libDaisy//Middlewares/Third_Party/FatFs/src/ff.c **** 		lfnbuf[i] = 0;
1739:../../libDaisy//Middlewares/Third_Party/FatFs/src/ff.c **** 	}
1740:../../libDaisy//Middlewares/Third_Party/FatFs/src/ff.c **** 
1741:../../libDaisy//Middlewares/Third_Party/FatFs/src/ff.c **** 	return 1;		/* The part of LFN is valid */
1742:../../libDaisy//Middlewares/Third_Party/FatFs/src/ff.c **** }
1743:../../libDaisy//Middlewares/Third_Party/FatFs/src/ff.c **** #endif
1744:../../libDaisy//Middlewares/Third_Party/FatFs/src/ff.c **** 
1745:../../libDaisy//Middlewares/Third_Party/FatFs/src/ff.c **** 
1746:../../libDaisy//Middlewares/Third_Party/FatFs/src/ff.c **** #if !_FS_READONLY
1747:../../libDaisy//Middlewares/Third_Party/FatFs/src/ff.c **** /*-----------------------------------------*/
1748:../../libDaisy//Middlewares/Third_Party/FatFs/src/ff.c **** /* FAT-LFN: Create an entry of LFN entries */
1749:../../libDaisy//Middlewares/Third_Party/FatFs/src/ff.c **** /*-----------------------------------------*/
1750:../../libDaisy//Middlewares/Third_Party/FatFs/src/ff.c **** static
1751:../../libDaisy//Middlewares/Third_Party/FatFs/src/ff.c **** void put_lfn (
1752:../../libDaisy//Middlewares/Third_Party/FatFs/src/ff.c **** 	const WCHAR* lfn,	/* Pointer to the LFN */
1753:../../libDaisy//Middlewares/Third_Party/FatFs/src/ff.c **** 	BYTE* dir,			/* Pointer to the LFN entry to be created */
1754:../../libDaisy//Middlewares/Third_Party/FatFs/src/ff.c **** 	BYTE ord,			/* LFN order (1-20) */
1755:../../libDaisy//Middlewares/Third_Party/FatFs/src/ff.c **** 	BYTE sum			/* Checksum of the corresponding SFN */
1756:../../libDaisy//Middlewares/Third_Party/FatFs/src/ff.c **** )
1757:../../libDaisy//Middlewares/Third_Party/FatFs/src/ff.c **** {
1758:../../libDaisy//Middlewares/Third_Party/FatFs/src/ff.c **** 	UINT i, s;
1759:../../libDaisy//Middlewares/Third_Party/FatFs/src/ff.c **** 	WCHAR wc;
1760:../../libDaisy//Middlewares/Third_Party/FatFs/src/ff.c **** 
1761:../../libDaisy//Middlewares/Third_Party/FatFs/src/ff.c **** 
1762:../../libDaisy//Middlewares/Third_Party/FatFs/src/ff.c **** 	dir[LDIR_Chksum] = sum;			/* Set checksum */
1763:../../libDaisy//Middlewares/Third_Party/FatFs/src/ff.c **** 	dir[LDIR_Attr] = AM_LFN;		/* Set attribute. LFN entry */
1764:../../libDaisy//Middlewares/Third_Party/FatFs/src/ff.c **** 	dir[LDIR_Type] = 0;
1765:../../libDaisy//Middlewares/Third_Party/FatFs/src/ff.c **** 	st_word(dir + LDIR_FstClusLO, 0);
1766:../../libDaisy//Middlewares/Third_Party/FatFs/src/ff.c **** 
1767:../../libDaisy//Middlewares/Third_Party/FatFs/src/ff.c **** 	i = (ord - 1) * 13;				/* Get offset in the LFN working buffer */
1768:../../libDaisy//Middlewares/Third_Party/FatFs/src/ff.c **** 	s = wc = 0;
1769:../../libDaisy//Middlewares/Third_Party/FatFs/src/ff.c **** 	do {
1770:../../libDaisy//Middlewares/Third_Party/FatFs/src/ff.c **** 		if (wc != 0xFFFF) wc = lfn[i++];	/* Get an effective character */
1771:../../libDaisy//Middlewares/Third_Party/FatFs/src/ff.c **** 		st_word(dir + LfnOfs[s], wc);		/* Put it */
1772:../../libDaisy//Middlewares/Third_Party/FatFs/src/ff.c **** 		if (wc == 0) wc = 0xFFFF;		/* Padding characters for left locations */
1773:../../libDaisy//Middlewares/Third_Party/FatFs/src/ff.c **** 	} while (++s < 13);
1774:../../libDaisy//Middlewares/Third_Party/FatFs/src/ff.c **** 	if (wc == 0xFFFF || !lfn[i]) ord |= LLEF;	/* Last LFN part is the start of LFN sequence */
1775:../../libDaisy//Middlewares/Third_Party/FatFs/src/ff.c **** 	dir[LDIR_Ord] = ord;			/* Set the LFN order */
1776:../../libDaisy//Middlewares/Third_Party/FatFs/src/ff.c **** }
1777:../../libDaisy//Middlewares/Third_Party/FatFs/src/ff.c **** 
1778:../../libDaisy//Middlewares/Third_Party/FatFs/src/ff.c **** #endif	/* !_FS_READONLY */
1779:../../libDaisy//Middlewares/Third_Party/FatFs/src/ff.c **** #endif	/* _USE_LFN != 0 */
1780:../../libDaisy//Middlewares/Third_Party/FatFs/src/ff.c **** 
1781:../../libDaisy//Middlewares/Third_Party/FatFs/src/ff.c **** 
1782:../../libDaisy//Middlewares/Third_Party/FatFs/src/ff.c **** 
1783:../../libDaisy//Middlewares/Third_Party/FatFs/src/ff.c **** #if _USE_LFN != 0 && !_FS_READONLY
1784:../../libDaisy//Middlewares/Third_Party/FatFs/src/ff.c **** /*-----------------------------------------------------------------------*/
ARM GAS  C:\Users\danig\AppData\Local\Temp\ccGhRbic.s 			page 38


1785:../../libDaisy//Middlewares/Third_Party/FatFs/src/ff.c **** /* FAT-LFN: Create a Numbered SFN                                        */
1786:../../libDaisy//Middlewares/Third_Party/FatFs/src/ff.c **** /*-----------------------------------------------------------------------*/
1787:../../libDaisy//Middlewares/Third_Party/FatFs/src/ff.c **** 
1788:../../libDaisy//Middlewares/Third_Party/FatFs/src/ff.c **** static
1789:../../libDaisy//Middlewares/Third_Party/FatFs/src/ff.c **** void gen_numname (
1790:../../libDaisy//Middlewares/Third_Party/FatFs/src/ff.c **** 	BYTE* dst,			/* Pointer to the buffer to store numbered SFN */
1791:../../libDaisy//Middlewares/Third_Party/FatFs/src/ff.c **** 	const BYTE* src,	/* Pointer to SFN */
1792:../../libDaisy//Middlewares/Third_Party/FatFs/src/ff.c **** 	const WCHAR* lfn,	/* Pointer to LFN */
1793:../../libDaisy//Middlewares/Third_Party/FatFs/src/ff.c **** 	UINT seq			/* Sequence number */
1794:../../libDaisy//Middlewares/Third_Party/FatFs/src/ff.c **** )
1795:../../libDaisy//Middlewares/Third_Party/FatFs/src/ff.c **** {
1796:../../libDaisy//Middlewares/Third_Party/FatFs/src/ff.c **** 	BYTE ns[8], c;
1797:../../libDaisy//Middlewares/Third_Party/FatFs/src/ff.c **** 	UINT i, j;
1798:../../libDaisy//Middlewares/Third_Party/FatFs/src/ff.c **** 	WCHAR wc;
1799:../../libDaisy//Middlewares/Third_Party/FatFs/src/ff.c **** 	DWORD sr;
1800:../../libDaisy//Middlewares/Third_Party/FatFs/src/ff.c **** 
1801:../../libDaisy//Middlewares/Third_Party/FatFs/src/ff.c **** 
1802:../../libDaisy//Middlewares/Third_Party/FatFs/src/ff.c **** 	mem_cpy(dst, src, 11);
1803:../../libDaisy//Middlewares/Third_Party/FatFs/src/ff.c **** 
1804:../../libDaisy//Middlewares/Third_Party/FatFs/src/ff.c **** 	if (seq > 5) {	/* In case of many collisions, generate a hash number instead of sequential number 
1805:../../libDaisy//Middlewares/Third_Party/FatFs/src/ff.c **** 		sr = seq;
1806:../../libDaisy//Middlewares/Third_Party/FatFs/src/ff.c **** 		while (*lfn) {	/* Create a CRC */
1807:../../libDaisy//Middlewares/Third_Party/FatFs/src/ff.c **** 			wc = *lfn++;
1808:../../libDaisy//Middlewares/Third_Party/FatFs/src/ff.c **** 			for (i = 0; i < 16; i++) {
1809:../../libDaisy//Middlewares/Third_Party/FatFs/src/ff.c **** 				sr = (sr << 1) + (wc & 1);
1810:../../libDaisy//Middlewares/Third_Party/FatFs/src/ff.c **** 				wc >>= 1;
1811:../../libDaisy//Middlewares/Third_Party/FatFs/src/ff.c **** 				if (sr & 0x10000) sr ^= 0x11021;
1812:../../libDaisy//Middlewares/Third_Party/FatFs/src/ff.c **** 			}
1813:../../libDaisy//Middlewares/Third_Party/FatFs/src/ff.c **** 		}
1814:../../libDaisy//Middlewares/Third_Party/FatFs/src/ff.c **** 		seq = (UINT)sr;
1815:../../libDaisy//Middlewares/Third_Party/FatFs/src/ff.c **** 	}
1816:../../libDaisy//Middlewares/Third_Party/FatFs/src/ff.c **** 
1817:../../libDaisy//Middlewares/Third_Party/FatFs/src/ff.c **** 	/* itoa (hexdecimal) */
1818:../../libDaisy//Middlewares/Third_Party/FatFs/src/ff.c **** 	i = 7;
1819:../../libDaisy//Middlewares/Third_Party/FatFs/src/ff.c **** 	do {
1820:../../libDaisy//Middlewares/Third_Party/FatFs/src/ff.c **** 		c = (BYTE)((seq % 16) + '0');
1821:../../libDaisy//Middlewares/Third_Party/FatFs/src/ff.c **** 		if (c > '9') c += 7;
1822:../../libDaisy//Middlewares/Third_Party/FatFs/src/ff.c **** 		ns[i--] = c;
1823:../../libDaisy//Middlewares/Third_Party/FatFs/src/ff.c **** 		seq /= 16;
1824:../../libDaisy//Middlewares/Third_Party/FatFs/src/ff.c **** 	} while (seq);
1825:../../libDaisy//Middlewares/Third_Party/FatFs/src/ff.c **** 	ns[i] = '~';
1826:../../libDaisy//Middlewares/Third_Party/FatFs/src/ff.c **** 
1827:../../libDaisy//Middlewares/Third_Party/FatFs/src/ff.c **** 	/* Append the number */
1828:../../libDaisy//Middlewares/Third_Party/FatFs/src/ff.c **** 	for (j = 0; j < i && dst[j] != ' '; j++) {
1829:../../libDaisy//Middlewares/Third_Party/FatFs/src/ff.c **** 		if (IsDBCS1(dst[j])) {
1830:../../libDaisy//Middlewares/Third_Party/FatFs/src/ff.c **** 			if (j == i - 1) break;
1831:../../libDaisy//Middlewares/Third_Party/FatFs/src/ff.c **** 			j++;
1832:../../libDaisy//Middlewares/Third_Party/FatFs/src/ff.c **** 		}
1833:../../libDaisy//Middlewares/Third_Party/FatFs/src/ff.c **** 	}
1834:../../libDaisy//Middlewares/Third_Party/FatFs/src/ff.c **** 	do {
1835:../../libDaisy//Middlewares/Third_Party/FatFs/src/ff.c **** 		dst[j++] = (i < 8) ? ns[i++] : ' ';
1836:../../libDaisy//Middlewares/Third_Party/FatFs/src/ff.c **** 	} while (j < 8);
1837:../../libDaisy//Middlewares/Third_Party/FatFs/src/ff.c **** }
1838:../../libDaisy//Middlewares/Third_Party/FatFs/src/ff.c **** #endif	/* _USE_LFN != 0 && !_FS_READONLY */
1839:../../libDaisy//Middlewares/Third_Party/FatFs/src/ff.c **** 
1840:../../libDaisy//Middlewares/Third_Party/FatFs/src/ff.c **** 
1841:../../libDaisy//Middlewares/Third_Party/FatFs/src/ff.c **** 
ARM GAS  C:\Users\danig\AppData\Local\Temp\ccGhRbic.s 			page 39


1842:../../libDaisy//Middlewares/Third_Party/FatFs/src/ff.c **** #if _USE_LFN != 0
1843:../../libDaisy//Middlewares/Third_Party/FatFs/src/ff.c **** /*-----------------------------------------------------------------------*/
1844:../../libDaisy//Middlewares/Third_Party/FatFs/src/ff.c **** /* FAT-LFN: Calculate checksum of an SFN entry                           */
1845:../../libDaisy//Middlewares/Third_Party/FatFs/src/ff.c **** /*-----------------------------------------------------------------------*/
1846:../../libDaisy//Middlewares/Third_Party/FatFs/src/ff.c **** 
1847:../../libDaisy//Middlewares/Third_Party/FatFs/src/ff.c **** static
1848:../../libDaisy//Middlewares/Third_Party/FatFs/src/ff.c **** BYTE sum_sfn (
1849:../../libDaisy//Middlewares/Third_Party/FatFs/src/ff.c **** 	const BYTE* dir		/* Pointer to the SFN entry */
1850:../../libDaisy//Middlewares/Third_Party/FatFs/src/ff.c **** )
1851:../../libDaisy//Middlewares/Third_Party/FatFs/src/ff.c **** {
 316              		.loc 1 1851 1 is_stmt 1 view -0
 317              		.cfi_startproc
 318              		@ args = 0, pretend = 0, frame = 0
 319              		@ frame_needed = 0, uses_anonymous_args = 0
 320              		@ link register save eliminated.
1852:../../libDaisy//Middlewares/Third_Party/FatFs/src/ff.c **** 	BYTE sum = 0;
 321              		.loc 1 1852 2 view .LVU98
1853:../../libDaisy//Middlewares/Third_Party/FatFs/src/ff.c **** 	UINT n = 11;
 322              		.loc 1 1853 2 view .LVU99
 323              		.loc 1 1853 2 is_stmt 0 view .LVU100
 324 0000 00F10B01 		add	r1, r0, #11
1852:../../libDaisy//Middlewares/Third_Party/FatFs/src/ff.c **** 	BYTE sum = 0;
 325              		.loc 1 1852 7 view .LVU101
 326 0004 0022     		movs	r2, #0
 327              	.LVL30:
 328              	.L19:
1854:../../libDaisy//Middlewares/Third_Party/FatFs/src/ff.c **** 
1855:../../libDaisy//Middlewares/Third_Party/FatFs/src/ff.c **** 	do {
 329              		.loc 1 1855 2 is_stmt 1 discriminator 1 view .LVU102
1856:../../libDaisy//Middlewares/Third_Party/FatFs/src/ff.c **** 		sum = (sum >> 1) + (sum << 7) + *dir++;
 330              		.loc 1 1856 3 discriminator 1 view .LVU103
 331              		.loc 1 1856 20 is_stmt 0 discriminator 1 view .LVU104
 332 0006 D301     		lsls	r3, r2, #7
 333 0008 43EA5203 		orr	r3, r3, r2, lsr #1
 334              		.loc 1 1856 7 discriminator 1 view .LVU105
 335 000c 10F8012B 		ldrb	r2, [r0], #1	@ zero_extendqisi2
 336              	.LVL31:
 337              		.loc 1 1856 7 discriminator 1 view .LVU106
 338 0010 52FA83F3 		uxtab	r3, r2, r3
1857:../../libDaisy//Middlewares/Third_Party/FatFs/src/ff.c **** 	} while (--n);
 339              		.loc 1 1857 2 discriminator 1 view .LVU107
 340 0014 8842     		cmp	r0, r1
1856:../../libDaisy//Middlewares/Third_Party/FatFs/src/ff.c **** 		sum = (sum >> 1) + (sum << 7) + *dir++;
 341              		.loc 1 1856 7 discriminator 1 view .LVU108
 342 0016 DAB2     		uxtb	r2, r3
 343              	.LVL32:
 344              		.loc 1 1857 10 is_stmt 1 discriminator 1 view .LVU109
 345              		.loc 1 1857 2 is_stmt 0 discriminator 1 view .LVU110
 346 0018 F5D1     		bne	.L19
1858:../../libDaisy//Middlewares/Third_Party/FatFs/src/ff.c **** 	return sum;
 347              		.loc 1 1858 2 is_stmt 1 view .LVU111
1859:../../libDaisy//Middlewares/Third_Party/FatFs/src/ff.c **** }
 348              		.loc 1 1859 1 is_stmt 0 view .LVU112
 349 001a 1046     		mov	r0, r2
 350              	.LVL33:
 351              		.loc 1 1859 1 view .LVU113
 352 001c 7047     		bx	lr
ARM GAS  C:\Users\danig\AppData\Local\Temp\ccGhRbic.s 			page 40


 353              		.cfi_endproc
 354              	.LFE363:
 356              		.section	.text.get_ldnumber,"ax",%progbits
 357              		.align	1
 358              		.syntax unified
 359              		.thumb
 360              		.thumb_func
 361              		.fpu fpv5-d16
 363              	get_ldnumber:
 364              	.LVL34:
 365              	.LFB371:
1860:../../libDaisy//Middlewares/Third_Party/FatFs/src/ff.c **** 
1861:../../libDaisy//Middlewares/Third_Party/FatFs/src/ff.c **** #endif	/* _USE_LFN != 0 */
1862:../../libDaisy//Middlewares/Third_Party/FatFs/src/ff.c **** 
1863:../../libDaisy//Middlewares/Third_Party/FatFs/src/ff.c **** 
1864:../../libDaisy//Middlewares/Third_Party/FatFs/src/ff.c **** 
1865:../../libDaisy//Middlewares/Third_Party/FatFs/src/ff.c **** #if _FS_EXFAT
1866:../../libDaisy//Middlewares/Third_Party/FatFs/src/ff.c **** /*-----------------------------------------------------------------------*/
1867:../../libDaisy//Middlewares/Third_Party/FatFs/src/ff.c **** /* exFAT: Checksum                                                       */
1868:../../libDaisy//Middlewares/Third_Party/FatFs/src/ff.c **** /*-----------------------------------------------------------------------*/
1869:../../libDaisy//Middlewares/Third_Party/FatFs/src/ff.c **** 
1870:../../libDaisy//Middlewares/Third_Party/FatFs/src/ff.c **** static
1871:../../libDaisy//Middlewares/Third_Party/FatFs/src/ff.c **** WORD xdir_sum (			/* Get checksum of the directoly block */
1872:../../libDaisy//Middlewares/Third_Party/FatFs/src/ff.c **** 	const BYTE* dir		/* Directory entry block to be calculated */
1873:../../libDaisy//Middlewares/Third_Party/FatFs/src/ff.c **** )
1874:../../libDaisy//Middlewares/Third_Party/FatFs/src/ff.c **** {
1875:../../libDaisy//Middlewares/Third_Party/FatFs/src/ff.c **** 	UINT i, szblk;
1876:../../libDaisy//Middlewares/Third_Party/FatFs/src/ff.c **** 	WORD sum;
1877:../../libDaisy//Middlewares/Third_Party/FatFs/src/ff.c **** 
1878:../../libDaisy//Middlewares/Third_Party/FatFs/src/ff.c **** 
1879:../../libDaisy//Middlewares/Third_Party/FatFs/src/ff.c **** 	szblk = (dir[XDIR_NumSec] + 1) * SZDIRE;
1880:../../libDaisy//Middlewares/Third_Party/FatFs/src/ff.c **** 	for (i = sum = 0; i < szblk; i++) {
1881:../../libDaisy//Middlewares/Third_Party/FatFs/src/ff.c **** 		if (i == XDIR_SetSum) {	/* Skip sum field */
1882:../../libDaisy//Middlewares/Third_Party/FatFs/src/ff.c **** 			i++;
1883:../../libDaisy//Middlewares/Third_Party/FatFs/src/ff.c **** 		} else {
1884:../../libDaisy//Middlewares/Third_Party/FatFs/src/ff.c **** 			sum = ((sum & 1) ? 0x8000 : 0) + (sum >> 1) + dir[i];
1885:../../libDaisy//Middlewares/Third_Party/FatFs/src/ff.c **** 		}
1886:../../libDaisy//Middlewares/Third_Party/FatFs/src/ff.c **** 	}
1887:../../libDaisy//Middlewares/Third_Party/FatFs/src/ff.c **** 	return sum;
1888:../../libDaisy//Middlewares/Third_Party/FatFs/src/ff.c **** }
1889:../../libDaisy//Middlewares/Third_Party/FatFs/src/ff.c **** 
1890:../../libDaisy//Middlewares/Third_Party/FatFs/src/ff.c **** 
1891:../../libDaisy//Middlewares/Third_Party/FatFs/src/ff.c **** 
1892:../../libDaisy//Middlewares/Third_Party/FatFs/src/ff.c **** static
1893:../../libDaisy//Middlewares/Third_Party/FatFs/src/ff.c **** WORD xname_sum (		/* Get check sum (to be used as hash) of the name */
1894:../../libDaisy//Middlewares/Third_Party/FatFs/src/ff.c **** 	const WCHAR* name	/* File name to be calculated */
1895:../../libDaisy//Middlewares/Third_Party/FatFs/src/ff.c **** )
1896:../../libDaisy//Middlewares/Third_Party/FatFs/src/ff.c **** {
1897:../../libDaisy//Middlewares/Third_Party/FatFs/src/ff.c **** 	WCHAR chr;
1898:../../libDaisy//Middlewares/Third_Party/FatFs/src/ff.c **** 	WORD sum = 0;
1899:../../libDaisy//Middlewares/Third_Party/FatFs/src/ff.c **** 
1900:../../libDaisy//Middlewares/Third_Party/FatFs/src/ff.c **** 
1901:../../libDaisy//Middlewares/Third_Party/FatFs/src/ff.c **** 	while ((chr = *name++) != 0) {
1902:../../libDaisy//Middlewares/Third_Party/FatFs/src/ff.c **** 		chr = ff_wtoupper(chr);		/* File name needs to be ignored case */
1903:../../libDaisy//Middlewares/Third_Party/FatFs/src/ff.c **** 		sum = ((sum & 1) ? 0x8000 : 0) + (sum >> 1) + (chr & 0xFF);
1904:../../libDaisy//Middlewares/Third_Party/FatFs/src/ff.c **** 		sum = ((sum & 1) ? 0x8000 : 0) + (sum >> 1) + (chr >> 8);
1905:../../libDaisy//Middlewares/Third_Party/FatFs/src/ff.c **** 	}
ARM GAS  C:\Users\danig\AppData\Local\Temp\ccGhRbic.s 			page 41


1906:../../libDaisy//Middlewares/Third_Party/FatFs/src/ff.c **** 	return sum;
1907:../../libDaisy//Middlewares/Third_Party/FatFs/src/ff.c **** }
1908:../../libDaisy//Middlewares/Third_Party/FatFs/src/ff.c **** 
1909:../../libDaisy//Middlewares/Third_Party/FatFs/src/ff.c **** 
1910:../../libDaisy//Middlewares/Third_Party/FatFs/src/ff.c **** #if !_FS_READONLY && _USE_MKFS
1911:../../libDaisy//Middlewares/Third_Party/FatFs/src/ff.c **** static
1912:../../libDaisy//Middlewares/Third_Party/FatFs/src/ff.c **** DWORD xsum32 (
1913:../../libDaisy//Middlewares/Third_Party/FatFs/src/ff.c **** 	BYTE  dat,	/* Data to be sumed */
1914:../../libDaisy//Middlewares/Third_Party/FatFs/src/ff.c **** 	DWORD sum	/* Previous value */
1915:../../libDaisy//Middlewares/Third_Party/FatFs/src/ff.c **** )
1916:../../libDaisy//Middlewares/Third_Party/FatFs/src/ff.c **** {
1917:../../libDaisy//Middlewares/Third_Party/FatFs/src/ff.c **** 	sum = ((sum & 1) ? 0x80000000 : 0) + (sum >> 1) + dat;
1918:../../libDaisy//Middlewares/Third_Party/FatFs/src/ff.c **** 	return sum;
1919:../../libDaisy//Middlewares/Third_Party/FatFs/src/ff.c **** }
1920:../../libDaisy//Middlewares/Third_Party/FatFs/src/ff.c **** #endif
1921:../../libDaisy//Middlewares/Third_Party/FatFs/src/ff.c **** 
1922:../../libDaisy//Middlewares/Third_Party/FatFs/src/ff.c **** 
1923:../../libDaisy//Middlewares/Third_Party/FatFs/src/ff.c **** #if _FS_MINIMIZE <= 1 || _FS_RPATH >= 2
1924:../../libDaisy//Middlewares/Third_Party/FatFs/src/ff.c **** /*------------------------------------------------------*/
1925:../../libDaisy//Middlewares/Third_Party/FatFs/src/ff.c **** /* exFAT: Get object information from a directory block */
1926:../../libDaisy//Middlewares/Third_Party/FatFs/src/ff.c **** /*------------------------------------------------------*/
1927:../../libDaisy//Middlewares/Third_Party/FatFs/src/ff.c **** 
1928:../../libDaisy//Middlewares/Third_Party/FatFs/src/ff.c **** static
1929:../../libDaisy//Middlewares/Third_Party/FatFs/src/ff.c **** void get_xdir_info (
1930:../../libDaisy//Middlewares/Third_Party/FatFs/src/ff.c **** 	BYTE* dirb,			/* Pointer to the direcotry entry block 85+C0+C1s */
1931:../../libDaisy//Middlewares/Third_Party/FatFs/src/ff.c **** 	FILINFO* fno		/* Buffer to store the extracted file information */
1932:../../libDaisy//Middlewares/Third_Party/FatFs/src/ff.c **** )
1933:../../libDaisy//Middlewares/Third_Party/FatFs/src/ff.c **** {
1934:../../libDaisy//Middlewares/Third_Party/FatFs/src/ff.c **** 	UINT di, si;
1935:../../libDaisy//Middlewares/Third_Party/FatFs/src/ff.c **** 	WCHAR w;
1936:../../libDaisy//Middlewares/Third_Party/FatFs/src/ff.c **** #if !_LFN_UNICODE
1937:../../libDaisy//Middlewares/Third_Party/FatFs/src/ff.c **** 	UINT nc;
1938:../../libDaisy//Middlewares/Third_Party/FatFs/src/ff.c **** #endif
1939:../../libDaisy//Middlewares/Third_Party/FatFs/src/ff.c **** 
1940:../../libDaisy//Middlewares/Third_Party/FatFs/src/ff.c **** 	/* Get file name */
1941:../../libDaisy//Middlewares/Third_Party/FatFs/src/ff.c **** 	di = 0;
1942:../../libDaisy//Middlewares/Third_Party/FatFs/src/ff.c **** #if _LFN_UNICODE
1943:../../libDaisy//Middlewares/Third_Party/FatFs/src/ff.c **** 	for (si = SZDIRE * 2; di < dirb[XDIR_NumName]; si += 2, di++) {
1944:../../libDaisy//Middlewares/Third_Party/FatFs/src/ff.c **** 		if ((si % SZDIRE) == 0) si += 2;		/* Skip entry type field */
1945:../../libDaisy//Middlewares/Third_Party/FatFs/src/ff.c **** 		w = ld_word(dirb + si);					/* Get a character */
1946:../../libDaisy//Middlewares/Third_Party/FatFs/src/ff.c **** 		if (di >= _MAX_LFN) { di = 0; break; }	/* Buffer overflow --> inaccessible object name */
1947:../../libDaisy//Middlewares/Third_Party/FatFs/src/ff.c **** 		fno->fname[di] = w;						/* Store it */
1948:../../libDaisy//Middlewares/Third_Party/FatFs/src/ff.c **** 	}
1949:../../libDaisy//Middlewares/Third_Party/FatFs/src/ff.c **** #else
1950:../../libDaisy//Middlewares/Third_Party/FatFs/src/ff.c **** 	for (si = SZDIRE * 2, nc = 0; nc < dirb[XDIR_NumName]; si += 2, nc++) {
1951:../../libDaisy//Middlewares/Third_Party/FatFs/src/ff.c **** 		if ((si % SZDIRE) == 0) si += 2;		/* Skip entry type field */
1952:../../libDaisy//Middlewares/Third_Party/FatFs/src/ff.c **** 		w = ff_convert(ld_word(dirb + si), 0);	/* Get a character and Unicode -> OEM */
1953:../../libDaisy//Middlewares/Third_Party/FatFs/src/ff.c **** 		if (_DF1S && w >= 0x100) {				/* Is it a double byte char? (always false at SBCS cfg) */
1954:../../libDaisy//Middlewares/Third_Party/FatFs/src/ff.c **** 			fno->fname[di++] = (char)(w >> 8);	/* Put 1st byte of the DBC */
1955:../../libDaisy//Middlewares/Third_Party/FatFs/src/ff.c **** 		}
1956:../../libDaisy//Middlewares/Third_Party/FatFs/src/ff.c **** 		if (w == 0 || di >= _MAX_LFN) { di = 0; break; }	/* Invalid char or buffer overflow --> inaccessi
1957:../../libDaisy//Middlewares/Third_Party/FatFs/src/ff.c **** 		fno->fname[di++] = (char)w;
1958:../../libDaisy//Middlewares/Third_Party/FatFs/src/ff.c **** 	}
1959:../../libDaisy//Middlewares/Third_Party/FatFs/src/ff.c **** #endif
1960:../../libDaisy//Middlewares/Third_Party/FatFs/src/ff.c **** 	if (di == 0) fno->fname[di++] = '?';	/* Inaccessible object name? */
1961:../../libDaisy//Middlewares/Third_Party/FatFs/src/ff.c **** 	fno->fname[di] = 0;						/* Terminate file name */
1962:../../libDaisy//Middlewares/Third_Party/FatFs/src/ff.c **** 
ARM GAS  C:\Users\danig\AppData\Local\Temp\ccGhRbic.s 			page 42


1963:../../libDaisy//Middlewares/Third_Party/FatFs/src/ff.c **** 	fno->altname[0] = 0;							/* No SFN */
1964:../../libDaisy//Middlewares/Third_Party/FatFs/src/ff.c **** 	fno->fattrib = dirb[XDIR_Attr];					/* Attribute */
1965:../../libDaisy//Middlewares/Third_Party/FatFs/src/ff.c **** 	fno->fsize = (fno->fattrib & AM_DIR) ? 0 : ld_qword(dirb + XDIR_FileSize);	/* Size */
1966:../../libDaisy//Middlewares/Third_Party/FatFs/src/ff.c **** 	fno->ftime = ld_word(dirb + XDIR_ModTime + 0);	/* Time */
1967:../../libDaisy//Middlewares/Third_Party/FatFs/src/ff.c **** 	fno->fdate = ld_word(dirb + XDIR_ModTime + 2);	/* Date */
1968:../../libDaisy//Middlewares/Third_Party/FatFs/src/ff.c **** }
1969:../../libDaisy//Middlewares/Third_Party/FatFs/src/ff.c **** 
1970:../../libDaisy//Middlewares/Third_Party/FatFs/src/ff.c **** #endif	/* _FS_MINIMIZE <= 1 || _FS_RPATH >= 2 */
1971:../../libDaisy//Middlewares/Third_Party/FatFs/src/ff.c **** 
1972:../../libDaisy//Middlewares/Third_Party/FatFs/src/ff.c **** 
1973:../../libDaisy//Middlewares/Third_Party/FatFs/src/ff.c **** /*-----------------------------------*/
1974:../../libDaisy//Middlewares/Third_Party/FatFs/src/ff.c **** /* exFAT: Get a directry entry block */
1975:../../libDaisy//Middlewares/Third_Party/FatFs/src/ff.c **** /*-----------------------------------*/
1976:../../libDaisy//Middlewares/Third_Party/FatFs/src/ff.c **** 
1977:../../libDaisy//Middlewares/Third_Party/FatFs/src/ff.c **** static
1978:../../libDaisy//Middlewares/Third_Party/FatFs/src/ff.c **** FRESULT load_xdir (	/* FR_INT_ERR: invalid entry block */
1979:../../libDaisy//Middlewares/Third_Party/FatFs/src/ff.c **** 	DIR* dp			/* Pointer to the reading direcotry object pointing the 85 entry */
1980:../../libDaisy//Middlewares/Third_Party/FatFs/src/ff.c **** )
1981:../../libDaisy//Middlewares/Third_Party/FatFs/src/ff.c **** {
1982:../../libDaisy//Middlewares/Third_Party/FatFs/src/ff.c **** 	FRESULT res;
1983:../../libDaisy//Middlewares/Third_Party/FatFs/src/ff.c **** 	UINT i, sz_ent;
1984:../../libDaisy//Middlewares/Third_Party/FatFs/src/ff.c **** 	BYTE* dirb = dp->obj.fs->dirbuf;	/* Pointer to the on-memory direcotry entry block 85+C0+C1s */
1985:../../libDaisy//Middlewares/Third_Party/FatFs/src/ff.c **** 
1986:../../libDaisy//Middlewares/Third_Party/FatFs/src/ff.c **** 
1987:../../libDaisy//Middlewares/Third_Party/FatFs/src/ff.c **** 	/* Load 85 entry */
1988:../../libDaisy//Middlewares/Third_Party/FatFs/src/ff.c **** 	res = move_window(dp->obj.fs, dp->sect);
1989:../../libDaisy//Middlewares/Third_Party/FatFs/src/ff.c **** 	if (res != FR_OK) return res;
1990:../../libDaisy//Middlewares/Third_Party/FatFs/src/ff.c **** 	if (dp->dir[XDIR_Type] != 0x85) return FR_INT_ERR;
1991:../../libDaisy//Middlewares/Third_Party/FatFs/src/ff.c **** 	mem_cpy(dirb + 0, dp->dir, SZDIRE);
1992:../../libDaisy//Middlewares/Third_Party/FatFs/src/ff.c **** 	sz_ent = (dirb[XDIR_NumSec] + 1) * SZDIRE;
1993:../../libDaisy//Middlewares/Third_Party/FatFs/src/ff.c **** 	if (sz_ent < 3 * SZDIRE || sz_ent > 19 * SZDIRE) return FR_INT_ERR;
1994:../../libDaisy//Middlewares/Third_Party/FatFs/src/ff.c **** 
1995:../../libDaisy//Middlewares/Third_Party/FatFs/src/ff.c **** 	/* Load C0 entry */
1996:../../libDaisy//Middlewares/Third_Party/FatFs/src/ff.c **** 	res = dir_next(dp, 0);
1997:../../libDaisy//Middlewares/Third_Party/FatFs/src/ff.c **** 	if (res != FR_OK) return res;
1998:../../libDaisy//Middlewares/Third_Party/FatFs/src/ff.c **** 	res = move_window(dp->obj.fs, dp->sect);
1999:../../libDaisy//Middlewares/Third_Party/FatFs/src/ff.c **** 	if (res != FR_OK) return res;
2000:../../libDaisy//Middlewares/Third_Party/FatFs/src/ff.c **** 	if (dp->dir[XDIR_Type] != 0xC0) return FR_INT_ERR;
2001:../../libDaisy//Middlewares/Third_Party/FatFs/src/ff.c **** 	mem_cpy(dirb + SZDIRE, dp->dir, SZDIRE);
2002:../../libDaisy//Middlewares/Third_Party/FatFs/src/ff.c **** 	if (MAXDIRB(dirb[XDIR_NumName]) > sz_ent) return FR_INT_ERR;
2003:../../libDaisy//Middlewares/Third_Party/FatFs/src/ff.c **** 
2004:../../libDaisy//Middlewares/Third_Party/FatFs/src/ff.c **** 	/* Load C1 entries */
2005:../../libDaisy//Middlewares/Third_Party/FatFs/src/ff.c **** 	i = SZDIRE * 2;	/* C1 offset */
2006:../../libDaisy//Middlewares/Third_Party/FatFs/src/ff.c **** 	do {
2007:../../libDaisy//Middlewares/Third_Party/FatFs/src/ff.c **** 		res = dir_next(dp, 0);
2008:../../libDaisy//Middlewares/Third_Party/FatFs/src/ff.c **** 		if (res != FR_OK) return res;
2009:../../libDaisy//Middlewares/Third_Party/FatFs/src/ff.c **** 		res = move_window(dp->obj.fs, dp->sect);
2010:../../libDaisy//Middlewares/Third_Party/FatFs/src/ff.c **** 		if (res != FR_OK) return res;
2011:../../libDaisy//Middlewares/Third_Party/FatFs/src/ff.c **** 		if (dp->dir[XDIR_Type] != 0xC1) return FR_INT_ERR;
2012:../../libDaisy//Middlewares/Third_Party/FatFs/src/ff.c **** 		if (i < MAXDIRB(_MAX_LFN)) mem_cpy(dirb + i, dp->dir, SZDIRE);
2013:../../libDaisy//Middlewares/Third_Party/FatFs/src/ff.c **** 	} while ((i += SZDIRE) < sz_ent);
2014:../../libDaisy//Middlewares/Third_Party/FatFs/src/ff.c **** 
2015:../../libDaisy//Middlewares/Third_Party/FatFs/src/ff.c **** 	/* Sanity check (do it when accessible object name) */
2016:../../libDaisy//Middlewares/Third_Party/FatFs/src/ff.c **** 	if (i <= MAXDIRB(_MAX_LFN)) {
2017:../../libDaisy//Middlewares/Third_Party/FatFs/src/ff.c **** 		if (xdir_sum(dirb) != ld_word(dirb + XDIR_SetSum)) return FR_INT_ERR;
2018:../../libDaisy//Middlewares/Third_Party/FatFs/src/ff.c **** 	}
2019:../../libDaisy//Middlewares/Third_Party/FatFs/src/ff.c **** 	return FR_OK;
ARM GAS  C:\Users\danig\AppData\Local\Temp\ccGhRbic.s 			page 43


2020:../../libDaisy//Middlewares/Third_Party/FatFs/src/ff.c **** }
2021:../../libDaisy//Middlewares/Third_Party/FatFs/src/ff.c **** 
2022:../../libDaisy//Middlewares/Third_Party/FatFs/src/ff.c **** 
2023:../../libDaisy//Middlewares/Third_Party/FatFs/src/ff.c **** #if !_FS_READONLY || _FS_RPATH != 0
2024:../../libDaisy//Middlewares/Third_Party/FatFs/src/ff.c **** /*------------------------------------------------*/
2025:../../libDaisy//Middlewares/Third_Party/FatFs/src/ff.c **** /* exFAT: Load the object's directory entry block */
2026:../../libDaisy//Middlewares/Third_Party/FatFs/src/ff.c **** /*------------------------------------------------*/
2027:../../libDaisy//Middlewares/Third_Party/FatFs/src/ff.c **** static
2028:../../libDaisy//Middlewares/Third_Party/FatFs/src/ff.c **** FRESULT load_obj_dir (
2029:../../libDaisy//Middlewares/Third_Party/FatFs/src/ff.c **** 	DIR* dp,			/* Blank directory object to be used to access containing direcotry */
2030:../../libDaisy//Middlewares/Third_Party/FatFs/src/ff.c **** 	const _FDID* obj	/* Object with its containing directory information */
2031:../../libDaisy//Middlewares/Third_Party/FatFs/src/ff.c **** )
2032:../../libDaisy//Middlewares/Third_Party/FatFs/src/ff.c **** {
2033:../../libDaisy//Middlewares/Third_Party/FatFs/src/ff.c **** 	FRESULT res;
2034:../../libDaisy//Middlewares/Third_Party/FatFs/src/ff.c **** 
2035:../../libDaisy//Middlewares/Third_Party/FatFs/src/ff.c **** 	/* Open object containing directory */
2036:../../libDaisy//Middlewares/Third_Party/FatFs/src/ff.c **** 	dp->obj.fs = obj->fs;
2037:../../libDaisy//Middlewares/Third_Party/FatFs/src/ff.c **** 	dp->obj.sclust = obj->c_scl;
2038:../../libDaisy//Middlewares/Third_Party/FatFs/src/ff.c **** 	dp->obj.stat = (BYTE)obj->c_size;
2039:../../libDaisy//Middlewares/Third_Party/FatFs/src/ff.c **** 	dp->obj.objsize = obj->c_size & 0xFFFFFF00;
2040:../../libDaisy//Middlewares/Third_Party/FatFs/src/ff.c **** 	dp->blk_ofs = obj->c_ofs;
2041:../../libDaisy//Middlewares/Third_Party/FatFs/src/ff.c **** 
2042:../../libDaisy//Middlewares/Third_Party/FatFs/src/ff.c **** 	res = dir_sdi(dp, dp->blk_ofs);	/* Goto object's entry block */
2043:../../libDaisy//Middlewares/Third_Party/FatFs/src/ff.c **** 	if (res == FR_OK) {
2044:../../libDaisy//Middlewares/Third_Party/FatFs/src/ff.c **** 		res = load_xdir(dp);		/* Load the object's entry block */
2045:../../libDaisy//Middlewares/Third_Party/FatFs/src/ff.c **** 	}
2046:../../libDaisy//Middlewares/Third_Party/FatFs/src/ff.c **** 	return res;
2047:../../libDaisy//Middlewares/Third_Party/FatFs/src/ff.c **** }
2048:../../libDaisy//Middlewares/Third_Party/FatFs/src/ff.c **** #endif
2049:../../libDaisy//Middlewares/Third_Party/FatFs/src/ff.c **** 
2050:../../libDaisy//Middlewares/Third_Party/FatFs/src/ff.c **** 
2051:../../libDaisy//Middlewares/Third_Party/FatFs/src/ff.c **** #if !_FS_READONLY
2052:../../libDaisy//Middlewares/Third_Party/FatFs/src/ff.c **** /*-----------------------------------------------*/
2053:../../libDaisy//Middlewares/Third_Party/FatFs/src/ff.c **** /* exFAT: Store the directory block to the media */
2054:../../libDaisy//Middlewares/Third_Party/FatFs/src/ff.c **** /*-----------------------------------------------*/
2055:../../libDaisy//Middlewares/Third_Party/FatFs/src/ff.c **** static
2056:../../libDaisy//Middlewares/Third_Party/FatFs/src/ff.c **** FRESULT store_xdir (
2057:../../libDaisy//Middlewares/Third_Party/FatFs/src/ff.c **** 	DIR* dp				/* Pointer to the direcotry object */
2058:../../libDaisy//Middlewares/Third_Party/FatFs/src/ff.c **** )
2059:../../libDaisy//Middlewares/Third_Party/FatFs/src/ff.c **** {
2060:../../libDaisy//Middlewares/Third_Party/FatFs/src/ff.c **** 	FRESULT res;
2061:../../libDaisy//Middlewares/Third_Party/FatFs/src/ff.c **** 	UINT nent;
2062:../../libDaisy//Middlewares/Third_Party/FatFs/src/ff.c **** 	BYTE* dirb = dp->obj.fs->dirbuf;	/* Pointer to the direcotry entry block 85+C0+C1s */
2063:../../libDaisy//Middlewares/Third_Party/FatFs/src/ff.c **** 
2064:../../libDaisy//Middlewares/Third_Party/FatFs/src/ff.c **** 	/* Create set sum */
2065:../../libDaisy//Middlewares/Third_Party/FatFs/src/ff.c **** 	st_word(dirb + XDIR_SetSum, xdir_sum(dirb));
2066:../../libDaisy//Middlewares/Third_Party/FatFs/src/ff.c **** 	nent = dirb[XDIR_NumSec] + 1;
2067:../../libDaisy//Middlewares/Third_Party/FatFs/src/ff.c **** 
2068:../../libDaisy//Middlewares/Third_Party/FatFs/src/ff.c **** 	/* Store the set of directory to the volume */
2069:../../libDaisy//Middlewares/Third_Party/FatFs/src/ff.c **** 	res = dir_sdi(dp, dp->blk_ofs);
2070:../../libDaisy//Middlewares/Third_Party/FatFs/src/ff.c **** 	while (res == FR_OK) {
2071:../../libDaisy//Middlewares/Third_Party/FatFs/src/ff.c **** 		res = move_window(dp->obj.fs, dp->sect);
2072:../../libDaisy//Middlewares/Third_Party/FatFs/src/ff.c **** 		if (res != FR_OK) break;
2073:../../libDaisy//Middlewares/Third_Party/FatFs/src/ff.c **** 		mem_cpy(dp->dir, dirb, SZDIRE);
2074:../../libDaisy//Middlewares/Third_Party/FatFs/src/ff.c **** 		dp->obj.fs->wflag = 1;
2075:../../libDaisy//Middlewares/Third_Party/FatFs/src/ff.c **** 		if (--nent == 0) break;
2076:../../libDaisy//Middlewares/Third_Party/FatFs/src/ff.c **** 		dirb += SZDIRE;
ARM GAS  C:\Users\danig\AppData\Local\Temp\ccGhRbic.s 			page 44


2077:../../libDaisy//Middlewares/Third_Party/FatFs/src/ff.c **** 		res = dir_next(dp, 0);
2078:../../libDaisy//Middlewares/Third_Party/FatFs/src/ff.c **** 	}
2079:../../libDaisy//Middlewares/Third_Party/FatFs/src/ff.c **** 	return (res == FR_OK || res == FR_DISK_ERR) ? res : FR_INT_ERR;
2080:../../libDaisy//Middlewares/Third_Party/FatFs/src/ff.c **** }
2081:../../libDaisy//Middlewares/Third_Party/FatFs/src/ff.c **** 
2082:../../libDaisy//Middlewares/Third_Party/FatFs/src/ff.c **** 
2083:../../libDaisy//Middlewares/Third_Party/FatFs/src/ff.c **** 
2084:../../libDaisy//Middlewares/Third_Party/FatFs/src/ff.c **** /*-------------------------------------------*/
2085:../../libDaisy//Middlewares/Third_Party/FatFs/src/ff.c **** /* exFAT: Create a new directory enrty block */
2086:../../libDaisy//Middlewares/Third_Party/FatFs/src/ff.c **** /*-------------------------------------------*/
2087:../../libDaisy//Middlewares/Third_Party/FatFs/src/ff.c **** 
2088:../../libDaisy//Middlewares/Third_Party/FatFs/src/ff.c **** static
2089:../../libDaisy//Middlewares/Third_Party/FatFs/src/ff.c **** void create_xdir (
2090:../../libDaisy//Middlewares/Third_Party/FatFs/src/ff.c **** 	BYTE* dirb,			/* Pointer to the direcotry entry block buffer */
2091:../../libDaisy//Middlewares/Third_Party/FatFs/src/ff.c **** 	const WCHAR* lfn	/* Pointer to the nul terminated file name */
2092:../../libDaisy//Middlewares/Third_Party/FatFs/src/ff.c **** )
2093:../../libDaisy//Middlewares/Third_Party/FatFs/src/ff.c **** {
2094:../../libDaisy//Middlewares/Third_Party/FatFs/src/ff.c **** 	UINT i;
2095:../../libDaisy//Middlewares/Third_Party/FatFs/src/ff.c **** 	BYTE nb, nc;
2096:../../libDaisy//Middlewares/Third_Party/FatFs/src/ff.c **** 	WCHAR chr;
2097:../../libDaisy//Middlewares/Third_Party/FatFs/src/ff.c **** 
2098:../../libDaisy//Middlewares/Third_Party/FatFs/src/ff.c **** 
2099:../../libDaisy//Middlewares/Third_Party/FatFs/src/ff.c **** 	/* Create 85+C0 entry */
2100:../../libDaisy//Middlewares/Third_Party/FatFs/src/ff.c **** 	mem_set(dirb, 0, 2 * SZDIRE);
2101:../../libDaisy//Middlewares/Third_Party/FatFs/src/ff.c **** 	dirb[XDIR_Type] = 0x85;
2102:../../libDaisy//Middlewares/Third_Party/FatFs/src/ff.c **** 	dirb[XDIR_Type + SZDIRE] = 0xC0;
2103:../../libDaisy//Middlewares/Third_Party/FatFs/src/ff.c **** 
2104:../../libDaisy//Middlewares/Third_Party/FatFs/src/ff.c **** 	/* Create C1 entries */
2105:../../libDaisy//Middlewares/Third_Party/FatFs/src/ff.c **** 	nc = 0; nb = 1; chr = 1; i = SZDIRE * 2;
2106:../../libDaisy//Middlewares/Third_Party/FatFs/src/ff.c **** 	do {
2107:../../libDaisy//Middlewares/Third_Party/FatFs/src/ff.c **** 		dirb[i++] = 0xC1; dirb[i++] = 0;	/* Entry type C1 */
2108:../../libDaisy//Middlewares/Third_Party/FatFs/src/ff.c **** 		do {	/* Fill name field */
2109:../../libDaisy//Middlewares/Third_Party/FatFs/src/ff.c **** 			if (chr && (chr = lfn[nc]) != 0) nc++;	/* Get a character if exist */
2110:../../libDaisy//Middlewares/Third_Party/FatFs/src/ff.c **** 			st_word(dirb + i, chr); 		/* Store it */
2111:../../libDaisy//Middlewares/Third_Party/FatFs/src/ff.c **** 		} while ((i += 2) % SZDIRE != 0);
2112:../../libDaisy//Middlewares/Third_Party/FatFs/src/ff.c **** 		nb++;
2113:../../libDaisy//Middlewares/Third_Party/FatFs/src/ff.c **** 	} while (lfn[nc]);	/* Fill next entry if any char follows */
2114:../../libDaisy//Middlewares/Third_Party/FatFs/src/ff.c **** 
2115:../../libDaisy//Middlewares/Third_Party/FatFs/src/ff.c **** 	dirb[XDIR_NumName] = nc;	/* Set name length */
2116:../../libDaisy//Middlewares/Third_Party/FatFs/src/ff.c **** 	dirb[XDIR_NumSec] = nb;		/* Set block length */
2117:../../libDaisy//Middlewares/Third_Party/FatFs/src/ff.c **** 	st_word(dirb + XDIR_NameHash, xname_sum(lfn));	/* Set name hash */
2118:../../libDaisy//Middlewares/Third_Party/FatFs/src/ff.c **** }
2119:../../libDaisy//Middlewares/Third_Party/FatFs/src/ff.c **** 
2120:../../libDaisy//Middlewares/Third_Party/FatFs/src/ff.c **** #endif	/* !_FS_READONLY */
2121:../../libDaisy//Middlewares/Third_Party/FatFs/src/ff.c **** #endif	/* _FS_EXFAT */
2122:../../libDaisy//Middlewares/Third_Party/FatFs/src/ff.c **** 
2123:../../libDaisy//Middlewares/Third_Party/FatFs/src/ff.c **** 
2124:../../libDaisy//Middlewares/Third_Party/FatFs/src/ff.c **** 
2125:../../libDaisy//Middlewares/Third_Party/FatFs/src/ff.c **** #if _FS_MINIMIZE <= 1 || _FS_RPATH >= 2 || _USE_LABEL || _FS_EXFAT
2126:../../libDaisy//Middlewares/Third_Party/FatFs/src/ff.c **** /*-----------------------------------------------------------------------*/
2127:../../libDaisy//Middlewares/Third_Party/FatFs/src/ff.c **** /* Read an object from the directory                                     */
2128:../../libDaisy//Middlewares/Third_Party/FatFs/src/ff.c **** /*-----------------------------------------------------------------------*/
2129:../../libDaisy//Middlewares/Third_Party/FatFs/src/ff.c **** 
2130:../../libDaisy//Middlewares/Third_Party/FatFs/src/ff.c **** static
2131:../../libDaisy//Middlewares/Third_Party/FatFs/src/ff.c **** FRESULT dir_read (
2132:../../libDaisy//Middlewares/Third_Party/FatFs/src/ff.c **** 	DIR* dp,		/* Pointer to the directory object */
2133:../../libDaisy//Middlewares/Third_Party/FatFs/src/ff.c **** 	int vol			/* Filtered by 0:file/directory or 1:volume label */
ARM GAS  C:\Users\danig\AppData\Local\Temp\ccGhRbic.s 			page 45


2134:../../libDaisy//Middlewares/Third_Party/FatFs/src/ff.c **** )
2135:../../libDaisy//Middlewares/Third_Party/FatFs/src/ff.c **** {
2136:../../libDaisy//Middlewares/Third_Party/FatFs/src/ff.c **** 	FRESULT res = FR_NO_FILE;
2137:../../libDaisy//Middlewares/Third_Party/FatFs/src/ff.c **** 	FATFS *fs = dp->obj.fs;
2138:../../libDaisy//Middlewares/Third_Party/FatFs/src/ff.c **** 	BYTE a, c;
2139:../../libDaisy//Middlewares/Third_Party/FatFs/src/ff.c **** #if _USE_LFN != 0
2140:../../libDaisy//Middlewares/Third_Party/FatFs/src/ff.c **** 	BYTE ord = 0xFF, sum = 0xFF;
2141:../../libDaisy//Middlewares/Third_Party/FatFs/src/ff.c **** #endif
2142:../../libDaisy//Middlewares/Third_Party/FatFs/src/ff.c **** 
2143:../../libDaisy//Middlewares/Third_Party/FatFs/src/ff.c **** 	while (dp->sect) {
2144:../../libDaisy//Middlewares/Third_Party/FatFs/src/ff.c **** 		res = move_window(fs, dp->sect);
2145:../../libDaisy//Middlewares/Third_Party/FatFs/src/ff.c **** 		if (res != FR_OK) break;
2146:../../libDaisy//Middlewares/Third_Party/FatFs/src/ff.c **** 		c = dp->dir[DIR_Name];	/* Test for the entry type */
2147:../../libDaisy//Middlewares/Third_Party/FatFs/src/ff.c **** 		if (c == 0) {
2148:../../libDaisy//Middlewares/Third_Party/FatFs/src/ff.c **** 			res = FR_NO_FILE; break; /* Reached to end of the directory */
2149:../../libDaisy//Middlewares/Third_Party/FatFs/src/ff.c **** 		}
2150:../../libDaisy//Middlewares/Third_Party/FatFs/src/ff.c **** #if _FS_EXFAT
2151:../../libDaisy//Middlewares/Third_Party/FatFs/src/ff.c **** 		if (fs->fs_type == FS_EXFAT) {	/* On the exFAT volume */
2152:../../libDaisy//Middlewares/Third_Party/FatFs/src/ff.c **** 			if (_USE_LABEL && vol) {
2153:../../libDaisy//Middlewares/Third_Party/FatFs/src/ff.c **** 				if (c == 0x83) break;	/* Volume label entry? */
2154:../../libDaisy//Middlewares/Third_Party/FatFs/src/ff.c **** 			} else {
2155:../../libDaisy//Middlewares/Third_Party/FatFs/src/ff.c **** 				if (c == 0x85) {		/* Start of the file entry block? */
2156:../../libDaisy//Middlewares/Third_Party/FatFs/src/ff.c **** 					dp->blk_ofs = dp->dptr;	/* Get location of the block */
2157:../../libDaisy//Middlewares/Third_Party/FatFs/src/ff.c **** 					res = load_xdir(dp);	/* Load the entry block */
2158:../../libDaisy//Middlewares/Third_Party/FatFs/src/ff.c **** 					if (res == FR_OK) {
2159:../../libDaisy//Middlewares/Third_Party/FatFs/src/ff.c **** 						dp->obj.attr = fs->dirbuf[XDIR_Attr] & AM_MASK;	/* Get attribute */
2160:../../libDaisy//Middlewares/Third_Party/FatFs/src/ff.c **** 					}
2161:../../libDaisy//Middlewares/Third_Party/FatFs/src/ff.c **** 					break;
2162:../../libDaisy//Middlewares/Third_Party/FatFs/src/ff.c **** 				}
2163:../../libDaisy//Middlewares/Third_Party/FatFs/src/ff.c **** 			}
2164:../../libDaisy//Middlewares/Third_Party/FatFs/src/ff.c **** 		} else
2165:../../libDaisy//Middlewares/Third_Party/FatFs/src/ff.c **** #endif
2166:../../libDaisy//Middlewares/Third_Party/FatFs/src/ff.c **** 		{	/* On the FAT12/16/32 volume */
2167:../../libDaisy//Middlewares/Third_Party/FatFs/src/ff.c **** 			dp->obj.attr = a = dp->dir[DIR_Attr] & AM_MASK;	/* Get attribute */
2168:../../libDaisy//Middlewares/Third_Party/FatFs/src/ff.c **** #if _USE_LFN != 0	/* LFN configuration */
2169:../../libDaisy//Middlewares/Third_Party/FatFs/src/ff.c **** 			if (c == DDEM || c == '.' || (int)((a & ~AM_ARC) == AM_VOL) != vol) {	/* An entry without valid 
2170:../../libDaisy//Middlewares/Third_Party/FatFs/src/ff.c **** 				ord = 0xFF;
2171:../../libDaisy//Middlewares/Third_Party/FatFs/src/ff.c **** 			} else {
2172:../../libDaisy//Middlewares/Third_Party/FatFs/src/ff.c **** 				if (a == AM_LFN) {			/* An LFN entry is found */
2173:../../libDaisy//Middlewares/Third_Party/FatFs/src/ff.c **** 					if (c & LLEF) {			/* Is it start of an LFN sequence? */
2174:../../libDaisy//Middlewares/Third_Party/FatFs/src/ff.c **** 						sum = dp->dir[LDIR_Chksum];
2175:../../libDaisy//Middlewares/Third_Party/FatFs/src/ff.c **** 						c &= (BYTE)~LLEF; ord = c;
2176:../../libDaisy//Middlewares/Third_Party/FatFs/src/ff.c **** 						dp->blk_ofs = dp->dptr;
2177:../../libDaisy//Middlewares/Third_Party/FatFs/src/ff.c **** 					}
2178:../../libDaisy//Middlewares/Third_Party/FatFs/src/ff.c **** 					/* Check LFN validity and capture it */
2179:../../libDaisy//Middlewares/Third_Party/FatFs/src/ff.c **** 					ord = (c == ord && sum == dp->dir[LDIR_Chksum] && pick_lfn(fs->lfnbuf, dp->dir)) ? ord - 1 : 0
2180:../../libDaisy//Middlewares/Third_Party/FatFs/src/ff.c **** 				} else {					/* An SFN entry is found */
2181:../../libDaisy//Middlewares/Third_Party/FatFs/src/ff.c **** 					if (ord || sum != sum_sfn(dp->dir)) {	/* Is there a valid LFN? */
2182:../../libDaisy//Middlewares/Third_Party/FatFs/src/ff.c **** 						dp->blk_ofs = 0xFFFFFFFF;			/* It has no LFN. */
2183:../../libDaisy//Middlewares/Third_Party/FatFs/src/ff.c **** 					}
2184:../../libDaisy//Middlewares/Third_Party/FatFs/src/ff.c **** 					break;
2185:../../libDaisy//Middlewares/Third_Party/FatFs/src/ff.c **** 				}
2186:../../libDaisy//Middlewares/Third_Party/FatFs/src/ff.c **** 			}
2187:../../libDaisy//Middlewares/Third_Party/FatFs/src/ff.c **** #else		/* Non LFN configuration */
2188:../../libDaisy//Middlewares/Third_Party/FatFs/src/ff.c **** 			if (c != DDEM && c != '.' && a != AM_LFN && (int)((a & ~AM_ARC) == AM_VOL) == vol) {	/* Is it a 
2189:../../libDaisy//Middlewares/Third_Party/FatFs/src/ff.c **** 				break;
2190:../../libDaisy//Middlewares/Third_Party/FatFs/src/ff.c **** 			}
ARM GAS  C:\Users\danig\AppData\Local\Temp\ccGhRbic.s 			page 46


2191:../../libDaisy//Middlewares/Third_Party/FatFs/src/ff.c **** #endif
2192:../../libDaisy//Middlewares/Third_Party/FatFs/src/ff.c **** 		}
2193:../../libDaisy//Middlewares/Third_Party/FatFs/src/ff.c **** 		res = dir_next(dp, 0);		/* Next entry */
2194:../../libDaisy//Middlewares/Third_Party/FatFs/src/ff.c **** 		if (res != FR_OK) break;
2195:../../libDaisy//Middlewares/Third_Party/FatFs/src/ff.c **** 	}
2196:../../libDaisy//Middlewares/Third_Party/FatFs/src/ff.c **** 
2197:../../libDaisy//Middlewares/Third_Party/FatFs/src/ff.c **** 	if (res != FR_OK) dp->sect = 0;		/* Terminate the read operation on error or EOT */
2198:../../libDaisy//Middlewares/Third_Party/FatFs/src/ff.c **** 	return res;
2199:../../libDaisy//Middlewares/Third_Party/FatFs/src/ff.c **** }
2200:../../libDaisy//Middlewares/Third_Party/FatFs/src/ff.c **** 
2201:../../libDaisy//Middlewares/Third_Party/FatFs/src/ff.c **** #endif	/* _FS_MINIMIZE <= 1 || _USE_LABEL || _FS_RPATH >= 2 */
2202:../../libDaisy//Middlewares/Third_Party/FatFs/src/ff.c **** 
2203:../../libDaisy//Middlewares/Third_Party/FatFs/src/ff.c **** 
2204:../../libDaisy//Middlewares/Third_Party/FatFs/src/ff.c **** 
2205:../../libDaisy//Middlewares/Third_Party/FatFs/src/ff.c **** /*-----------------------------------------------------------------------*/
2206:../../libDaisy//Middlewares/Third_Party/FatFs/src/ff.c **** /* Directory handling - Find an object in the directory                  */
2207:../../libDaisy//Middlewares/Third_Party/FatFs/src/ff.c **** /*-----------------------------------------------------------------------*/
2208:../../libDaisy//Middlewares/Third_Party/FatFs/src/ff.c **** 
2209:../../libDaisy//Middlewares/Third_Party/FatFs/src/ff.c **** static
2210:../../libDaisy//Middlewares/Third_Party/FatFs/src/ff.c **** FRESULT dir_find (	/* FR_OK(0):succeeded, !=0:error */
2211:../../libDaisy//Middlewares/Third_Party/FatFs/src/ff.c **** 	DIR* dp			/* Pointer to the directory object with the file name */
2212:../../libDaisy//Middlewares/Third_Party/FatFs/src/ff.c **** )
2213:../../libDaisy//Middlewares/Third_Party/FatFs/src/ff.c **** {
2214:../../libDaisy//Middlewares/Third_Party/FatFs/src/ff.c **** 	FRESULT res;
2215:../../libDaisy//Middlewares/Third_Party/FatFs/src/ff.c **** 	FATFS *fs = dp->obj.fs;
2216:../../libDaisy//Middlewares/Third_Party/FatFs/src/ff.c **** 	BYTE c;
2217:../../libDaisy//Middlewares/Third_Party/FatFs/src/ff.c **** #if _USE_LFN != 0
2218:../../libDaisy//Middlewares/Third_Party/FatFs/src/ff.c **** 	BYTE a, ord, sum;
2219:../../libDaisy//Middlewares/Third_Party/FatFs/src/ff.c **** #endif
2220:../../libDaisy//Middlewares/Third_Party/FatFs/src/ff.c **** 
2221:../../libDaisy//Middlewares/Third_Party/FatFs/src/ff.c **** 	res = dir_sdi(dp, 0);			/* Rewind directory object */
2222:../../libDaisy//Middlewares/Third_Party/FatFs/src/ff.c **** 	if (res != FR_OK) return res;
2223:../../libDaisy//Middlewares/Third_Party/FatFs/src/ff.c **** #if _FS_EXFAT
2224:../../libDaisy//Middlewares/Third_Party/FatFs/src/ff.c **** 	if (fs->fs_type == FS_EXFAT) {	/* On the exFAT volume */
2225:../../libDaisy//Middlewares/Third_Party/FatFs/src/ff.c **** 		BYTE nc;
2226:../../libDaisy//Middlewares/Third_Party/FatFs/src/ff.c **** 		UINT di, ni;
2227:../../libDaisy//Middlewares/Third_Party/FatFs/src/ff.c **** 		WORD hash = xname_sum(fs->lfnbuf);		/* Hash value of the name to find */
2228:../../libDaisy//Middlewares/Third_Party/FatFs/src/ff.c **** 
2229:../../libDaisy//Middlewares/Third_Party/FatFs/src/ff.c **** 		while ((res = dir_read(dp, 0)) == FR_OK) {	/* Read an item */
2230:../../libDaisy//Middlewares/Third_Party/FatFs/src/ff.c **** #if _MAX_LFN < 255
2231:../../libDaisy//Middlewares/Third_Party/FatFs/src/ff.c **** 			if (fs->dirbuf[XDIR_NumName] > _MAX_LFN) continue;			/* Skip comparison if inaccessible object n
2232:../../libDaisy//Middlewares/Third_Party/FatFs/src/ff.c **** #endif
2233:../../libDaisy//Middlewares/Third_Party/FatFs/src/ff.c **** 			if (ld_word(fs->dirbuf + XDIR_NameHash) != hash) continue;	/* Skip comparison if hash mismatched
2234:../../libDaisy//Middlewares/Third_Party/FatFs/src/ff.c **** 			for (nc = fs->dirbuf[XDIR_NumName], di = SZDIRE * 2, ni = 0; nc; nc--, di += 2, ni++) {	/* Compa
2235:../../libDaisy//Middlewares/Third_Party/FatFs/src/ff.c **** 				if ((di % SZDIRE) == 0) di += 2;
2236:../../libDaisy//Middlewares/Third_Party/FatFs/src/ff.c **** 				if (ff_wtoupper(ld_word(fs->dirbuf + di)) != ff_wtoupper(fs->lfnbuf[ni])) break;
2237:../../libDaisy//Middlewares/Third_Party/FatFs/src/ff.c **** 			}
2238:../../libDaisy//Middlewares/Third_Party/FatFs/src/ff.c **** 			if (nc == 0 && !fs->lfnbuf[ni]) break;	/* Name matched? */
2239:../../libDaisy//Middlewares/Third_Party/FatFs/src/ff.c **** 		}
2240:../../libDaisy//Middlewares/Third_Party/FatFs/src/ff.c **** 		return res;
2241:../../libDaisy//Middlewares/Third_Party/FatFs/src/ff.c **** 	}
2242:../../libDaisy//Middlewares/Third_Party/FatFs/src/ff.c **** #endif
2243:../../libDaisy//Middlewares/Third_Party/FatFs/src/ff.c **** 	/* On the FAT12/16/32 volume */
2244:../../libDaisy//Middlewares/Third_Party/FatFs/src/ff.c **** #if _USE_LFN != 0
2245:../../libDaisy//Middlewares/Third_Party/FatFs/src/ff.c **** 	ord = sum = 0xFF; dp->blk_ofs = 0xFFFFFFFF;	/* Reset LFN sequence */
2246:../../libDaisy//Middlewares/Third_Party/FatFs/src/ff.c **** #endif
2247:../../libDaisy//Middlewares/Third_Party/FatFs/src/ff.c **** 	do {
ARM GAS  C:\Users\danig\AppData\Local\Temp\ccGhRbic.s 			page 47


2248:../../libDaisy//Middlewares/Third_Party/FatFs/src/ff.c **** 		res = move_window(fs, dp->sect);
2249:../../libDaisy//Middlewares/Third_Party/FatFs/src/ff.c **** 		if (res != FR_OK) break;
2250:../../libDaisy//Middlewares/Third_Party/FatFs/src/ff.c **** 		c = dp->dir[DIR_Name];
2251:../../libDaisy//Middlewares/Third_Party/FatFs/src/ff.c **** 		if (c == 0) { res = FR_NO_FILE; break; }	/* Reached to end of table */
2252:../../libDaisy//Middlewares/Third_Party/FatFs/src/ff.c **** #if _USE_LFN != 0	/* LFN configuration */
2253:../../libDaisy//Middlewares/Third_Party/FatFs/src/ff.c **** 		dp->obj.attr = a = dp->dir[DIR_Attr] & AM_MASK;
2254:../../libDaisy//Middlewares/Third_Party/FatFs/src/ff.c **** 		if (c == DDEM || ((a & AM_VOL) && a != AM_LFN)) {	/* An entry without valid data */
2255:../../libDaisy//Middlewares/Third_Party/FatFs/src/ff.c **** 			ord = 0xFF; dp->blk_ofs = 0xFFFFFFFF;	/* Reset LFN sequence */
2256:../../libDaisy//Middlewares/Third_Party/FatFs/src/ff.c **** 		} else {
2257:../../libDaisy//Middlewares/Third_Party/FatFs/src/ff.c **** 			if (a == AM_LFN) {			/* An LFN entry is found */
2258:../../libDaisy//Middlewares/Third_Party/FatFs/src/ff.c **** 				if (!(dp->fn[NSFLAG] & NS_NOLFN)) {
2259:../../libDaisy//Middlewares/Third_Party/FatFs/src/ff.c **** 					if (c & LLEF) {		/* Is it start of LFN sequence? */
2260:../../libDaisy//Middlewares/Third_Party/FatFs/src/ff.c **** 						sum = dp->dir[LDIR_Chksum];
2261:../../libDaisy//Middlewares/Third_Party/FatFs/src/ff.c **** 						c &= (BYTE)~LLEF; ord = c;	/* LFN start order */
2262:../../libDaisy//Middlewares/Third_Party/FatFs/src/ff.c **** 						dp->blk_ofs = dp->dptr;	/* Start offset of LFN */
2263:../../libDaisy//Middlewares/Third_Party/FatFs/src/ff.c **** 					}
2264:../../libDaisy//Middlewares/Third_Party/FatFs/src/ff.c **** 					/* Check validity of the LFN entry and compare it with given name */
2265:../../libDaisy//Middlewares/Third_Party/FatFs/src/ff.c **** 					ord = (c == ord && sum == dp->dir[LDIR_Chksum] && cmp_lfn(fs->lfnbuf, dp->dir)) ? ord - 1 : 0x
2266:../../libDaisy//Middlewares/Third_Party/FatFs/src/ff.c **** 				}
2267:../../libDaisy//Middlewares/Third_Party/FatFs/src/ff.c **** 			} else {					/* An SFN entry is found */
2268:../../libDaisy//Middlewares/Third_Party/FatFs/src/ff.c **** 				if (!ord && sum == sum_sfn(dp->dir)) break;	/* LFN matched? */
2269:../../libDaisy//Middlewares/Third_Party/FatFs/src/ff.c **** 				if (!(dp->fn[NSFLAG] & NS_LOSS) && !mem_cmp(dp->dir, dp->fn, 11)) break;	/* SFN matched? */
2270:../../libDaisy//Middlewares/Third_Party/FatFs/src/ff.c **** 				ord = 0xFF; dp->blk_ofs = 0xFFFFFFFF;	/* Reset LFN sequence */
2271:../../libDaisy//Middlewares/Third_Party/FatFs/src/ff.c **** 			}
2272:../../libDaisy//Middlewares/Third_Party/FatFs/src/ff.c **** 		}
2273:../../libDaisy//Middlewares/Third_Party/FatFs/src/ff.c **** #else		/* Non LFN configuration */
2274:../../libDaisy//Middlewares/Third_Party/FatFs/src/ff.c **** 		dp->obj.attr = dp->dir[DIR_Attr] & AM_MASK;
2275:../../libDaisy//Middlewares/Third_Party/FatFs/src/ff.c **** 		if (!(dp->dir[DIR_Attr] & AM_VOL) && !mem_cmp(dp->dir, dp->fn, 11)) break;	/* Is it a valid entry
2276:../../libDaisy//Middlewares/Third_Party/FatFs/src/ff.c **** #endif
2277:../../libDaisy//Middlewares/Third_Party/FatFs/src/ff.c **** 		res = dir_next(dp, 0);	/* Next entry */
2278:../../libDaisy//Middlewares/Third_Party/FatFs/src/ff.c **** 	} while (res == FR_OK);
2279:../../libDaisy//Middlewares/Third_Party/FatFs/src/ff.c **** 
2280:../../libDaisy//Middlewares/Third_Party/FatFs/src/ff.c **** 	return res;
2281:../../libDaisy//Middlewares/Third_Party/FatFs/src/ff.c **** }
2282:../../libDaisy//Middlewares/Third_Party/FatFs/src/ff.c **** 
2283:../../libDaisy//Middlewares/Third_Party/FatFs/src/ff.c **** 
2284:../../libDaisy//Middlewares/Third_Party/FatFs/src/ff.c **** 
2285:../../libDaisy//Middlewares/Third_Party/FatFs/src/ff.c **** 
2286:../../libDaisy//Middlewares/Third_Party/FatFs/src/ff.c **** #if !_FS_READONLY
2287:../../libDaisy//Middlewares/Third_Party/FatFs/src/ff.c **** /*-----------------------------------------------------------------------*/
2288:../../libDaisy//Middlewares/Third_Party/FatFs/src/ff.c **** /* Register an object to the directory                                   */
2289:../../libDaisy//Middlewares/Third_Party/FatFs/src/ff.c **** /*-----------------------------------------------------------------------*/
2290:../../libDaisy//Middlewares/Third_Party/FatFs/src/ff.c **** 
2291:../../libDaisy//Middlewares/Third_Party/FatFs/src/ff.c **** static
2292:../../libDaisy//Middlewares/Third_Party/FatFs/src/ff.c **** FRESULT dir_register (	/* FR_OK:succeeded, FR_DENIED:no free entry or too many SFN collision, FR_DI
2293:../../libDaisy//Middlewares/Third_Party/FatFs/src/ff.c **** 	DIR* dp				/* Target directory with object name to be created */
2294:../../libDaisy//Middlewares/Third_Party/FatFs/src/ff.c **** )
2295:../../libDaisy//Middlewares/Third_Party/FatFs/src/ff.c **** {
2296:../../libDaisy//Middlewares/Third_Party/FatFs/src/ff.c **** 	FRESULT res;
2297:../../libDaisy//Middlewares/Third_Party/FatFs/src/ff.c **** 	FATFS *fs = dp->obj.fs;
2298:../../libDaisy//Middlewares/Third_Party/FatFs/src/ff.c **** #if _USE_LFN != 0	/* LFN configuration */
2299:../../libDaisy//Middlewares/Third_Party/FatFs/src/ff.c **** 	UINT n, nlen, nent;
2300:../../libDaisy//Middlewares/Third_Party/FatFs/src/ff.c **** 	BYTE sn[12], sum;
2301:../../libDaisy//Middlewares/Third_Party/FatFs/src/ff.c **** 
2302:../../libDaisy//Middlewares/Third_Party/FatFs/src/ff.c **** 
2303:../../libDaisy//Middlewares/Third_Party/FatFs/src/ff.c **** 	if (dp->fn[NSFLAG] & (NS_DOT | NS_NONAME)) return FR_INVALID_NAME;	/* Check name validity */
2304:../../libDaisy//Middlewares/Third_Party/FatFs/src/ff.c **** 	for (nlen = 0; fs->lfnbuf[nlen]; nlen++) ;	/* Get lfn length */
ARM GAS  C:\Users\danig\AppData\Local\Temp\ccGhRbic.s 			page 48


2305:../../libDaisy//Middlewares/Third_Party/FatFs/src/ff.c **** 
2306:../../libDaisy//Middlewares/Third_Party/FatFs/src/ff.c **** #if _FS_EXFAT
2307:../../libDaisy//Middlewares/Third_Party/FatFs/src/ff.c **** 	if (fs->fs_type == FS_EXFAT) {	/* On the exFAT volume */
2308:../../libDaisy//Middlewares/Third_Party/FatFs/src/ff.c **** 		DIR dj;
2309:../../libDaisy//Middlewares/Third_Party/FatFs/src/ff.c **** 
2310:../../libDaisy//Middlewares/Third_Party/FatFs/src/ff.c **** 		nent = (nlen + 14) / 15 + 2;	/* Number of entries to allocate (85+C0+C1s) */
2311:../../libDaisy//Middlewares/Third_Party/FatFs/src/ff.c **** 		res = dir_alloc(dp, nent);		/* Allocate entries */
2312:../../libDaisy//Middlewares/Third_Party/FatFs/src/ff.c **** 		if (res != FR_OK) return res;
2313:../../libDaisy//Middlewares/Third_Party/FatFs/src/ff.c **** 		dp->blk_ofs = dp->dptr - SZDIRE * (nent - 1);	/* Set the allocated entry block offset */
2314:../../libDaisy//Middlewares/Third_Party/FatFs/src/ff.c **** 
2315:../../libDaisy//Middlewares/Third_Party/FatFs/src/ff.c **** 		if (dp->obj.sclust != 0 && (dp->obj.stat & 4)) {	/* Has the sub-directory been stretched? */
2316:../../libDaisy//Middlewares/Third_Party/FatFs/src/ff.c **** 			dp->obj.objsize += (DWORD)fs->csize * SS(fs);	/* Increase the directory size by cluster size */
2317:../../libDaisy//Middlewares/Third_Party/FatFs/src/ff.c **** 			res = fill_first_frag(&dp->obj);				/* Fill first fragment on the FAT if needed */
2318:../../libDaisy//Middlewares/Third_Party/FatFs/src/ff.c **** 			if (res != FR_OK) return res;
