ARM GAS  C:\Users\danig\AppData\Local\Temp\ccN1qAGP.s 			page 1


   1              		.cpu cortex-m7
   2              		.eabi_attribute 28, 1
   3              		.eabi_attribute 20, 1
   4              		.eabi_attribute 21, 1
   5              		.eabi_attribute 23, 3
   6              		.eabi_attribute 24, 1
   7              		.eabi_attribute 25, 1
   8              		.eabi_attribute 26, 1
   9              		.eabi_attribute 30, 4
  10              		.eabi_attribute 34, 1
  11              		.eabi_attribute 18, 4
  12              		.file	"Main.cpp"
  13              		.text
  14              	.Ltext0:
  15              		.cfi_sections	.debug_frame
  16              		.section	.text._ZN5daisy6SwitchD2Ev,"axG",%progbits,_ZN5daisy6SwitchD5Ev,comdat
  17              		.align	1
  18              		.weak	_ZN5daisy6SwitchD2Ev
  19              		.arch armv7e-m
  20              		.syntax unified
  21              		.thumb
  22              		.thumb_func
  23              		.fpu fpv5-d16
  25              	_ZN5daisy6SwitchD2Ev:
  26              	.LVL0:
  27              	.LFB1687:
  28              		.file 1 "../../libDaisy//src/hid/switch.h"
   1:../../libDaisy//src/hid/switch.h **** #pragma once
   2:../../libDaisy//src/hid/switch.h **** #ifndef DSY_SWITCH_H
   3:../../libDaisy//src/hid/switch.h **** #define DSY_SWITCH_H
   4:../../libDaisy//src/hid/switch.h **** #include "daisy_core.h"
   5:../../libDaisy//src/hid/switch.h **** #include "per/gpio.h"
   6:../../libDaisy//src/hid/switch.h **** #include "sys/system.h"
   7:../../libDaisy//src/hid/switch.h **** 
   8:../../libDaisy//src/hid/switch.h **** namespace daisy
   9:../../libDaisy//src/hid/switch.h **** {
  10:../../libDaisy//src/hid/switch.h **** /** 
  11:../../libDaisy//src/hid/switch.h ****     Generic Class for handling momentary/latching switches \n 
  12:../../libDaisy//src/hid/switch.h ****     Inspired/influenced by Mutable Instruments (pichenettes) Switch classes
  13:../../libDaisy//src/hid/switch.h ****     @author Stephen Hensley
  14:../../libDaisy//src/hid/switch.h ****     @date December 2019
  15:../../libDaisy//src/hid/switch.h ****     @ingroup controls
  16:../../libDaisy//src/hid/switch.h **** */
  17:../../libDaisy//src/hid/switch.h **** class Switch
  18:../../libDaisy//src/hid/switch.h **** {
  19:../../libDaisy//src/hid/switch.h ****   public:
  20:../../libDaisy//src/hid/switch.h ****     /** Specifies the expected behavior of the switch */
  21:../../libDaisy//src/hid/switch.h ****     enum Type
  22:../../libDaisy//src/hid/switch.h ****     {
  23:../../libDaisy//src/hid/switch.h ****         TYPE_TOGGLE,    /**< & */
  24:../../libDaisy//src/hid/switch.h ****         TYPE_MOMENTARY, /**< & */
  25:../../libDaisy//src/hid/switch.h ****     };
  26:../../libDaisy//src/hid/switch.h ****     /** Specifies whether the pressed is HIGH or LOW. */
  27:../../libDaisy//src/hid/switch.h ****     enum Polarity
  28:../../libDaisy//src/hid/switch.h ****     {
  29:../../libDaisy//src/hid/switch.h ****         POLARITY_NORMAL,   /**< & */
  30:../../libDaisy//src/hid/switch.h ****         POLARITY_INVERTED, /**< & */
ARM GAS  C:\Users\danig\AppData\Local\Temp\ccN1qAGP.s 			page 2


  31:../../libDaisy//src/hid/switch.h ****     };
  32:../../libDaisy//src/hid/switch.h **** 
  33:../../libDaisy//src/hid/switch.h ****     Switch() {}
  34:../../libDaisy//src/hid/switch.h ****     ~Switch() {}
  29              		.loc 1 34 5 view -0
  30              		.cfi_startproc
  31              		@ args = 0, pretend = 0, frame = 0
  32              		@ frame_needed = 0, uses_anonymous_args = 0
  33              		@ link register save eliminated.
  34              		.loc 1 34 16 is_stmt 0 view .LVU1
  35 0000 7047     		bx	lr
  36              		.cfi_endproc
  37              	.LFE1687:
  39              		.weak	_ZN5daisy6SwitchD1Ev
  40              		.thumb_set _ZN5daisy6SwitchD1Ev,_ZN5daisy6SwitchD2Ev
  41              		.section	.text._ZN5daisy7EncoderD2Ev,"axG",%progbits,_ZN5daisy7EncoderD5Ev,comdat
  42              		.align	1
  43              		.weak	_ZN5daisy7EncoderD2Ev
  44              		.syntax unified
  45              		.thumb
  46              		.thumb_func
  47              		.fpu fpv5-d16
  49              	_ZN5daisy7EncoderD2Ev:
  50              	.LVL1:
  51              	.LFB1699:
  52              		.file 2 "../../libDaisy//src/hid/encoder.h"
   1:../../libDaisy//src/hid/encoder.h **** #pragma once
   2:../../libDaisy//src/hid/encoder.h **** #ifndef DSY_ENCODER_H
   3:../../libDaisy//src/hid/encoder.h **** #define DSY_ENCODER_H
   4:../../libDaisy//src/hid/encoder.h **** #include "daisy_core.h"
   5:../../libDaisy//src/hid/encoder.h **** #include "per/gpio.h"
   6:../../libDaisy//src/hid/encoder.h **** #include "hid/switch.h"
   7:../../libDaisy//src/hid/encoder.h **** 
   8:../../libDaisy//src/hid/encoder.h **** namespace daisy
   9:../../libDaisy//src/hid/encoder.h **** {
  10:../../libDaisy//src/hid/encoder.h **** /** 
  11:../../libDaisy//src/hid/encoder.h ****     @brief Generic Class for handling Quadrature Encoders \n 
  12:../../libDaisy//src/hid/encoder.h ****     Inspired/influenced by Mutable Instruments (pichenettes) Encoder classes
  13:../../libDaisy//src/hid/encoder.h ****     @author Stephen Hensley
  14:../../libDaisy//src/hid/encoder.h ****     @date December 2019
  15:../../libDaisy//src/hid/encoder.h ****     @ingroup controls
  16:../../libDaisy//src/hid/encoder.h **** */
  17:../../libDaisy//src/hid/encoder.h **** class Encoder
  18:../../libDaisy//src/hid/encoder.h **** {
  19:../../libDaisy//src/hid/encoder.h ****   public:
  20:../../libDaisy//src/hid/encoder.h ****     Encoder() {}
  21:../../libDaisy//src/hid/encoder.h ****     ~Encoder() {}
  53              		.loc 2 21 5 is_stmt 1 view -0
  54              		.cfi_startproc
  55              		@ args = 0, pretend = 0, frame = 0
  56              		@ frame_needed = 0, uses_anonymous_args = 0
  57              		@ link register save eliminated.
  58              	.LBB485:
  59              	.LBI485:
  60              		.loc 1 34 5 view .LVU3
  61              		.loc 1 34 5 is_stmt 0 view .LVU4
  62              	.LBE485:
ARM GAS  C:\Users\danig\AppData\Local\Temp\ccN1qAGP.s 			page 3


  63              		.loc 2 21 17 view .LVU5
  64 0000 7047     		bx	lr
  65              		.cfi_endproc
  66              	.LFE1699:
  68              		.weak	_ZN5daisy7EncoderD1Ev
  69              		.thumb_set _ZN5daisy7EncoderD1Ev,_ZN5daisy7EncoderD2Ev
  70              		.section	.text._ZN5daisy9DaisySeedD2Ev,"axG",%progbits,_ZN5daisy9DaisySeedD5Ev,comdat
  71              		.align	1
  72              		.weak	_ZN5daisy9DaisySeedD2Ev
  73              		.syntax unified
  74              		.thumb
  75              		.thumb_func
  76              		.fpu fpv5-d16
  78              	_ZN5daisy9DaisySeedD2Ev:
  79              	.LVL2:
  80              	.LFB2729:
  81              		.file 3 "../../libDaisy//src/daisy_seed.h"
   1:../../libDaisy//src/daisy_seed.h **** #pragma once
   2:../../libDaisy//src/daisy_seed.h **** #ifndef DSY_SEED_H
   3:../../libDaisy//src/daisy_seed.h **** #define DSY_SEED_H
   4:../../libDaisy//src/daisy_seed.h **** 
   5:../../libDaisy//src/daisy_seed.h **** #include "daisy.h"
   6:../../libDaisy//src/daisy_seed.h **** 
   7:../../libDaisy//src/daisy_seed.h **** //Uncomment this out if you're still using the rev2 hardware
   8:../../libDaisy//src/daisy_seed.h **** //#define SEED_REV2
   9:../../libDaisy//src/daisy_seed.h **** 
  10:../../libDaisy//src/daisy_seed.h **** namespace daisy
  11:../../libDaisy//src/daisy_seed.h **** {
  12:../../libDaisy//src/daisy_seed.h **** /**
  13:../../libDaisy//src/daisy_seed.h ****    @brief This is the higher-level interface for the Daisy board. \n 
  14:../../libDaisy//src/daisy_seed.h ****     All basic peripheral configuration/initialization is setup here. \n
  15:../../libDaisy//src/daisy_seed.h **** 
  16:../../libDaisy//src/daisy_seed.h ****    @ingroup boards
  17:../../libDaisy//src/daisy_seed.h **** */
  18:../../libDaisy//src/daisy_seed.h **** class DaisySeed
  19:../../libDaisy//src/daisy_seed.h **** {
  20:../../libDaisy//src/daisy_seed.h ****   public:
  21:../../libDaisy//src/daisy_seed.h ****     DaisySeed() {}
  22:../../libDaisy//src/daisy_seed.h ****     ~DaisySeed() {}
  82              		.loc 3 22 5 is_stmt 1 view -0
  83              		.cfi_startproc
  84              		@ args = 0, pretend = 0, frame = 0
  85              		@ frame_needed = 0, uses_anonymous_args = 0
  86              		@ link register save eliminated.
  87              	.LBB486:
  88              	.LBI486:
  89              		.file 4 "../../libDaisy//src/dev/codec_ak4556.h"
   1:../../libDaisy//src/dev/codec_ak4556.h **** #pragma once
   2:../../libDaisy//src/dev/codec_ak4556.h **** #ifndef DSY_CODEC_AK4556_H
   3:../../libDaisy//src/dev/codec_ak4556.h **** #define DSY_CODEC_AK4556_H
   4:../../libDaisy//src/dev/codec_ak4556.h **** 
   5:../../libDaisy//src/dev/codec_ak4556.h **** #include "daisy_core.h"
   6:../../libDaisy//src/dev/codec_ak4556.h **** #include "per/gpio.h"
   7:../../libDaisy//src/dev/codec_ak4556.h **** 
   8:../../libDaisy//src/dev/codec_ak4556.h **** namespace daisy
   9:../../libDaisy//src/dev/codec_ak4556.h **** {
  10:../../libDaisy//src/dev/codec_ak4556.h **** /** @brief Ak4556 Codec support 
ARM GAS  C:\Users\danig\AppData\Local\Temp\ccN1qAGP.s 			page 4


  11:../../libDaisy//src/dev/codec_ak4556.h ****  ** @author shensley
  12:../../libDaisy//src/dev/codec_ak4556.h ****  ** @addtogroup codec
  13:../../libDaisy//src/dev/codec_ak4556.h ****  ** 
  14:../../libDaisy//src/dev/codec_ak4556.h ****  ** I don't see any real reason to have this be more than a function, but in case we want
  15:../../libDaisy//src/dev/codec_ak4556.h ****  ** to add other functions down the road I wrapped the function in a class.
  16:../../libDaisy//src/dev/codec_ak4556.h ****  ***/
  17:../../libDaisy//src/dev/codec_ak4556.h **** class Ak4556
  18:../../libDaisy//src/dev/codec_ak4556.h **** {
  19:../../libDaisy//src/dev/codec_ak4556.h ****   public:
  20:../../libDaisy//src/dev/codec_ak4556.h ****     Ak4556() {}
  21:../../libDaisy//src/dev/codec_ak4556.h ****     ~Ak4556() {}
  90              		.loc 4 21 5 view .LVU7
  91              		.loc 4 21 5 is_stmt 0 view .LVU8
  92              	.LBE486:
  93              	.LBB487:
  94              	.LBI487:
  95              		.file 5 "../../libDaisy//src/sys/system.h"
   1:../../libDaisy//src/sys/system.h **** #ifndef DSY_SYSTEM_H
   2:../../libDaisy//src/sys/system.h **** #define DSY_SYSTEM_H
   3:../../libDaisy//src/sys/system.h **** 
   4:../../libDaisy//src/sys/system.h **** #ifndef UNIT_TEST // for unit tests, a dummy implementation is provided below
   5:../../libDaisy//src/sys/system.h **** 
   6:../../libDaisy//src/sys/system.h **** #include <cstdint>
   7:../../libDaisy//src/sys/system.h **** #include "per/tim.h"
   8:../../libDaisy//src/sys/system.h **** 
   9:../../libDaisy//src/sys/system.h **** namespace daisy
  10:../../libDaisy//src/sys/system.h **** {
  11:../../libDaisy//src/sys/system.h **** /** A handle for interacting with the Core System.
  12:../../libDaisy//src/sys/system.h ****  ** This includes the Clock tree, MPU, global DMA initialization,
  13:../../libDaisy//src/sys/system.h ****  ** cache handling, and any other necessary global initiailzation
  14:../../libDaisy//src/sys/system.h ****  **
  15:../../libDaisy//src/sys/system.h ****  ** @author shensley
  16:../../libDaisy//src/sys/system.h ****  ** @ingroup system
  17:../../libDaisy//src/sys/system.h ****  */
  18:../../libDaisy//src/sys/system.h **** class System
  19:../../libDaisy//src/sys/system.h **** {
  20:../../libDaisy//src/sys/system.h ****   public:
  21:../../libDaisy//src/sys/system.h ****     /** Contains settings for initializing the System */
  22:../../libDaisy//src/sys/system.h ****     struct Config
  23:../../libDaisy//src/sys/system.h ****     {
  24:../../libDaisy//src/sys/system.h ****         /** Specifies the system clock frequency that feeds APB/AHB clocks, etc. */
  25:../../libDaisy//src/sys/system.h ****         enum class SysClkFreq
  26:../../libDaisy//src/sys/system.h ****         {
  27:../../libDaisy//src/sys/system.h ****             FREQ_400MHZ,
  28:../../libDaisy//src/sys/system.h ****             FREQ_480MHZ,
  29:../../libDaisy//src/sys/system.h ****         };
  30:../../libDaisy//src/sys/system.h **** 
  31:../../libDaisy//src/sys/system.h ****         /** Method to call on the struct to set to defaults
  32:../../libDaisy//src/sys/system.h ****          ** CPU Freq set to 400MHz
  33:../../libDaisy//src/sys/system.h ****          ** Cache Enabled
  34:../../libDaisy//src/sys/system.h ****          ** */
  35:../../libDaisy//src/sys/system.h ****         void Defaults()
  36:../../libDaisy//src/sys/system.h ****         {
  37:../../libDaisy//src/sys/system.h ****             cpu_freq    = SysClkFreq::FREQ_400MHZ;
  38:../../libDaisy//src/sys/system.h ****             use_dcache  = true;
  39:../../libDaisy//src/sys/system.h ****             use_icache  = true;
  40:../../libDaisy//src/sys/system.h ****             skip_clocks = false;
ARM GAS  C:\Users\danig\AppData\Local\Temp\ccN1qAGP.s 			page 5


  41:../../libDaisy//src/sys/system.h ****         }
  42:../../libDaisy//src/sys/system.h **** 
  43:../../libDaisy//src/sys/system.h ****         /** Method to call on the struct to set to boost mode:
  44:../../libDaisy//src/sys/system.h ****          ** CPU Freq set to 480MHz
  45:../../libDaisy//src/sys/system.h ****          ** Cache Enabled
  46:../../libDaisy//src/sys/system.h ****          ** */
  47:../../libDaisy//src/sys/system.h ****         void Boost()
  48:../../libDaisy//src/sys/system.h ****         {
  49:../../libDaisy//src/sys/system.h ****             cpu_freq    = SysClkFreq::FREQ_480MHZ;
  50:../../libDaisy//src/sys/system.h ****             use_dcache  = true;
  51:../../libDaisy//src/sys/system.h ****             use_icache  = true;
  52:../../libDaisy//src/sys/system.h ****             skip_clocks = false;
  53:../../libDaisy//src/sys/system.h ****         }
  54:../../libDaisy//src/sys/system.h **** 
  55:../../libDaisy//src/sys/system.h ****         SysClkFreq cpu_freq;
  56:../../libDaisy//src/sys/system.h ****         bool       use_dcache;
  57:../../libDaisy//src/sys/system.h ****         bool       use_icache;
  58:../../libDaisy//src/sys/system.h ****         bool       skip_clocks;
  59:../../libDaisy//src/sys/system.h ****     };
  60:../../libDaisy//src/sys/system.h **** 
  61:../../libDaisy//src/sys/system.h ****     /** Describes the different regions of memory available to the Daisy */
  62:../../libDaisy//src/sys/system.h ****     enum MemoryRegion
  63:../../libDaisy//src/sys/system.h ****     {
  64:../../libDaisy//src/sys/system.h ****         INTERNAL_FLASH = 0,
  65:../../libDaisy//src/sys/system.h ****         ITCMRAM,
  66:../../libDaisy//src/sys/system.h ****         DTCMRAM,
  67:../../libDaisy//src/sys/system.h ****         SRAM_D1,
  68:../../libDaisy//src/sys/system.h ****         SRAM_D2,
  69:../../libDaisy//src/sys/system.h ****         SRAM_D3,
  70:../../libDaisy//src/sys/system.h ****         SDRAM,
  71:../../libDaisy//src/sys/system.h ****         QSPI,
  72:../../libDaisy//src/sys/system.h ****         INVALID_ADDRESS,
  73:../../libDaisy//src/sys/system.h ****     };
  74:../../libDaisy//src/sys/system.h **** 
  75:../../libDaisy//src/sys/system.h ****     /** Bootloader struct for controlling bootloading parameters */
  76:../../libDaisy//src/sys/system.h ****     struct BootInfo
  77:../../libDaisy//src/sys/system.h ****     {
  78:../../libDaisy//src/sys/system.h ****         enum class Type : uint32_t
  79:../../libDaisy//src/sys/system.h ****         {
  80:../../libDaisy//src/sys/system.h ****             INVALID      = 0x00000000,
  81:../../libDaisy//src/sys/system.h ****             JUMP         = 0xDEADBEEF,
  82:../../libDaisy//src/sys/system.h ****             SKIP_TIMEOUT = 0x5AFEB007,
  83:../../libDaisy//src/sys/system.h ****             INF_TIMEOUT  = 0xB0074EFA,
  84:../../libDaisy//src/sys/system.h ****         } status;
  85:../../libDaisy//src/sys/system.h ****         uint32_t data;
  86:../../libDaisy//src/sys/system.h ****         enum class Version : uint32_t
  87:../../libDaisy//src/sys/system.h ****         {
  88:../../libDaisy//src/sys/system.h ****             LT_v6_0 = 0, // Less than v6.0
  89:../../libDaisy//src/sys/system.h ****             NONE,        // No bootloader present
  90:../../libDaisy//src/sys/system.h ****             v6_0,        // v6.0
  91:../../libDaisy//src/sys/system.h ****             v6_1,        // v6.1 or greater
  92:../../libDaisy//src/sys/system.h ****             LAST
  93:../../libDaisy//src/sys/system.h ****         } version;
  94:../../libDaisy//src/sys/system.h ****     };
  95:../../libDaisy//src/sys/system.h **** 
  96:../../libDaisy//src/sys/system.h ****     System() {}
  97:../../libDaisy//src/sys/system.h ****     ~System() {}
ARM GAS  C:\Users\danig\AppData\Local\Temp\ccN1qAGP.s 			page 6


  96              		.loc 5 97 5 is_stmt 1 view .LVU9
  97              		.loc 5 97 5 is_stmt 0 view .LVU10
  98              	.LBE487:
  99              	.LBB488:
 100              	.LBI488:
 101              		.file 6 "../../libDaisy//src/hid/usb.h"
   1:../../libDaisy//src/hid/usb.h **** #pragma once
   2:../../libDaisy//src/hid/usb.h **** #ifndef DSY_HID_USB_H
   3:../../libDaisy//src/hid/usb.h **** #define DSY_HID_USB_H
   4:../../libDaisy//src/hid/usb.h **** #include <stdint.h>
   5:../../libDaisy//src/hid/usb.h **** #include <stdlib.h>
   6:../../libDaisy//src/hid/usb.h **** 
   7:../../libDaisy//src/hid/usb.h **** namespace daisy
   8:../../libDaisy//src/hid/usb.h **** /** @addtogroup human_interface
   9:../../libDaisy//src/hid/usb.h ****     @{
  10:../../libDaisy//src/hid/usb.h **** */
  11:../../libDaisy//src/hid/usb.h **** 
  12:../../libDaisy//src/hid/usb.h **** {
  13:../../libDaisy//src/hid/usb.h **** /** 
  14:../../libDaisy//src/hid/usb.h ****     @brief Interface for initializing and using the USB Peripherals on the daisy
  15:../../libDaisy//src/hid/usb.h ****     @author Stephen Hensley
  16:../../libDaisy//src/hid/usb.h ****     @date December 2019
  17:../../libDaisy//src/hid/usb.h **** */
  18:../../libDaisy//src/hid/usb.h **** class UsbHandle
  19:../../libDaisy//src/hid/usb.h **** {
  20:../../libDaisy//src/hid/usb.h ****   public:
  21:../../libDaisy//src/hid/usb.h ****     /** Return values for USBHandle Functions */
  22:../../libDaisy//src/hid/usb.h ****     enum class Result
  23:../../libDaisy//src/hid/usb.h ****     {
  24:../../libDaisy//src/hid/usb.h ****         OK,
  25:../../libDaisy//src/hid/usb.h ****         ERR,
  26:../../libDaisy//src/hid/usb.h ****     };
  27:../../libDaisy//src/hid/usb.h **** 
  28:../../libDaisy//src/hid/usb.h ****     /** Specified which of the two USB Peripherals to initialize. */
  29:../../libDaisy//src/hid/usb.h ****     enum UsbPeriph
  30:../../libDaisy//src/hid/usb.h ****     {
  31:../../libDaisy//src/hid/usb.h ****         FS_INTERNAL, /**< Internal pin */
  32:../../libDaisy//src/hid/usb.h ****         FS_EXTERNAL, /**< FS External D+ pin is Pin 38 (GPIO32). FS External D- pin is Pin 37 (GPIO
  33:../../libDaisy//src/hid/usb.h ****         FS_BOTH,     /**< Both */
  34:../../libDaisy//src/hid/usb.h ****     };
  35:../../libDaisy//src/hid/usb.h **** 
  36:../../libDaisy//src/hid/usb.h **** 
  37:../../libDaisy//src/hid/usb.h ****     /** Function called upon reception of a buffer */
  38:../../libDaisy//src/hid/usb.h ****     typedef void (*ReceiveCallback)(uint8_t* buff, uint32_t* len);
  39:../../libDaisy//src/hid/usb.h **** 
  40:../../libDaisy//src/hid/usb.h ****     UsbHandle() {}
  41:../../libDaisy//src/hid/usb.h **** 
  42:../../libDaisy//src/hid/usb.h ****     ~UsbHandle() {}
 102              		.loc 6 42 5 is_stmt 1 view .LVU11
 103              		.loc 6 42 5 is_stmt 0 view .LVU12
 104              	.LBE488:
 105              	.LBB489:
 106              	.LBI489:
 107              		.file 7 "../../libDaisy//src/per/adc.h"
   1:../../libDaisy//src/per/adc.h **** #pragma once
   2:../../libDaisy//src/per/adc.h **** #ifndef DSY_ADC_H
   3:../../libDaisy//src/per/adc.h **** #define DSY_ADC_H /**< Macro */
ARM GAS  C:\Users\danig\AppData\Local\Temp\ccN1qAGP.s 			page 7


   4:../../libDaisy//src/per/adc.h **** #include <stdint.h>
   5:../../libDaisy//src/per/adc.h **** #include <stdlib.h>
   6:../../libDaisy//src/per/adc.h **** #include "daisy_core.h"
   7:../../libDaisy//src/per/adc.h **** #include "per/gpio.h"
   8:../../libDaisy//src/per/adc.h **** 
   9:../../libDaisy//src/per/adc.h **** #define DSY_ADC_MAX_CHANNELS 16 /**< Maximum number of ADC channels */
  10:../../libDaisy//src/per/adc.h **** 
  11:../../libDaisy//src/per/adc.h **** namespace daisy
  12:../../libDaisy//src/per/adc.h **** {
  13:../../libDaisy//src/per/adc.h **** /** @addtogroup per_analog
  14:../../libDaisy//src/per/adc.h ****     @{
  15:../../libDaisy//src/per/adc.h **** */
  16:../../libDaisy//src/per/adc.h **** 
  17:../../libDaisy//src/per/adc.h **** /* While there may not be many configuration options here,
  18:../../libDaisy//src/per/adc.h **** using a struct like this allows us to add more configuration
  19:../../libDaisy//src/per/adc.h **** later without breaking existing functionality.
  20:../../libDaisy//src/per/adc.h **** */
  21:../../libDaisy//src/per/adc.h **** 
  22:../../libDaisy//src/per/adc.h **** /** @brief   Configuration Structure for an ADC Channel 
  23:../../libDaisy//src/per/adc.h ****  *  @details This can be used to configure a a single input, 
  24:../../libDaisy//src/per/adc.h ****  *           or a multiplexed input, allowing up to 8 inputs on 
  25:../../libDaisy//src/per/adc.h ****  *           one channel.
  26:../../libDaisy//src/per/adc.h ****  *  @note    Sharing data lines to multiple muxes _is_ possible, but
  27:../../libDaisy//src/per/adc.h ****  *           each channel sharing data lines must be set to the maximum
  28:../../libDaisy//src/per/adc.h ****  *           number of channels, even if some multiplexers have fewer
  29:../../libDaisy//src/per/adc.h ****  *           inputs connected.
  30:../../libDaisy//src/per/adc.h **** */
  31:../../libDaisy//src/per/adc.h **** struct AdcChannelConfig
  32:../../libDaisy//src/per/adc.h **** {
  33:../../libDaisy//src/per/adc.h ****     /** Which pin to use for multiplexing */
  34:../../libDaisy//src/per/adc.h ****     enum MuxPin
  35:../../libDaisy//src/per/adc.h ****     {
  36:../../libDaisy//src/per/adc.h ****         MUX_SEL_0,    /**< & */
  37:../../libDaisy//src/per/adc.h ****         MUX_SEL_1,    /**< & */
  38:../../libDaisy//src/per/adc.h ****         MUX_SEL_2,    /**< & */
  39:../../libDaisy//src/per/adc.h ****         MUX_SEL_LAST, /**< & */
  40:../../libDaisy//src/per/adc.h ****     };
  41:../../libDaisy//src/per/adc.h **** 
  42:../../libDaisy//src/per/adc.h ****     /** \brief per channel conversion speed added to fixed time based on bitdepth, etc. */
  43:../../libDaisy//src/per/adc.h ****     enum ConversionSpeed
  44:../../libDaisy//src/per/adc.h ****     {
  45:../../libDaisy//src/per/adc.h ****         SPEED_1CYCLES_5,
  46:../../libDaisy//src/per/adc.h ****         SPEED_2CYCLES_5,
  47:../../libDaisy//src/per/adc.h ****         SPEED_8CYCLES_5,
  48:../../libDaisy//src/per/adc.h ****         SPEED_16CYCLES_5,
  49:../../libDaisy//src/per/adc.h ****         SPEED_32CYCLES_5,
  50:../../libDaisy//src/per/adc.h ****         SPEED_64CYCLES_5,
  51:../../libDaisy//src/per/adc.h ****         SPEED_387CYCLES_5,
  52:../../libDaisy//src/per/adc.h ****         SPEED_810CYCLES_5,
  53:../../libDaisy//src/per/adc.h ****     };
  54:../../libDaisy//src/per/adc.h **** 
  55:../../libDaisy//src/per/adc.h ****     /** Initializes a single ADC pin as an ADC. 
  56:../../libDaisy//src/per/adc.h ****     \param pin Pin to init.
  57:../../libDaisy//src/per/adc.h ****     \param speed conversion speed for this pin defaults to 8.5 cycles
  58:../../libDaisy//src/per/adc.h ****      */
  59:../../libDaisy//src/per/adc.h ****     void InitSingle(Pin pin, ConversionSpeed speed = SPEED_8CYCLES_5);
  60:../../libDaisy//src/per/adc.h **** 
ARM GAS  C:\Users\danig\AppData\Local\Temp\ccN1qAGP.s 			page 8


  61:../../libDaisy//src/per/adc.h ****     /** 
  62:../../libDaisy//src/per/adc.h ****     Initializes a single ADC pin as a Multiplexed ADC.
  63:../../libDaisy//src/per/adc.h ****     Requires a CD405X Multiplexer connected to the pin.
  64:../../libDaisy//src/per/adc.h ****     You only need to supply the mux pins that are required,
  65:../../libDaisy//src/per/adc.h ****     e.g. a 4052 mux would only require mux_0 and mux_1.
  66:../../libDaisy//src/per/adc.h ****     Internal Callbacks handle the pin addressing.
  67:../../libDaisy//src/per/adc.h ****     \param adc_pin &
  68:../../libDaisy//src/per/adc.h ****     \param mux_channels must be 1-8
  69:../../libDaisy//src/per/adc.h ****     \param mux_0 First mux pin
  70:../../libDaisy//src/per/adc.h ****     \param mux_1 Second mux pin
  71:../../libDaisy//src/per/adc.h ****     \param mux_2 Third mux pin
  72:../../libDaisy//src/per/adc.h ****     \param speed conversion speed for this pin defaults to 8.5 cycles
  73:../../libDaisy//src/per/adc.h ****     */
  74:../../libDaisy//src/per/adc.h ****     void InitMux(Pin             adc_pin,
  75:../../libDaisy//src/per/adc.h ****                  size_t          mux_channels,
  76:../../libDaisy//src/per/adc.h ****                  Pin             mux_0,
  77:../../libDaisy//src/per/adc.h ****                  Pin             mux_1 = Pin(PORTX, 0),
  78:../../libDaisy//src/per/adc.h ****                  Pin             mux_2 = Pin(PORTX, 0),
  79:../../libDaisy//src/per/adc.h ****                  ConversionSpeed speed = SPEED_8CYCLES_5);
  80:../../libDaisy//src/per/adc.h **** 
  81:../../libDaisy//src/per/adc.h ****     GPIO            pin_;                   /**< & */
  82:../../libDaisy//src/per/adc.h ****     GPIO            mux_pin_[MUX_SEL_LAST]; /**< & */
  83:../../libDaisy//src/per/adc.h ****     uint8_t         mux_channels_;          /**< & */
  84:../../libDaisy//src/per/adc.h ****     ConversionSpeed speed_;
  85:../../libDaisy//src/per/adc.h **** };
  86:../../libDaisy//src/per/adc.h **** 
  87:../../libDaisy//src/per/adc.h **** /**
  88:../../libDaisy//src/per/adc.h ****    @brief Handler for analog to digital conversion
  89:../../libDaisy//src/per/adc.h **** */
  90:../../libDaisy//src/per/adc.h **** class AdcHandle
  91:../../libDaisy//src/per/adc.h **** {
  92:../../libDaisy//src/per/adc.h ****   public:
  93:../../libDaisy//src/per/adc.h ****     /** Supported oversampling amounts */
  94:../../libDaisy//src/per/adc.h ****     enum OverSampling
  95:../../libDaisy//src/per/adc.h ****     {
  96:../../libDaisy//src/per/adc.h ****         OVS_NONE, /**< & */
  97:../../libDaisy//src/per/adc.h ****         OVS_4,    /**< & */
  98:../../libDaisy//src/per/adc.h ****         OVS_8,    /**< & */
  99:../../libDaisy//src/per/adc.h ****         OVS_16,   /**< & */
 100:../../libDaisy//src/per/adc.h ****         OVS_32,   /**< & */
 101:../../libDaisy//src/per/adc.h ****         OVS_64,   /**< & */
 102:../../libDaisy//src/per/adc.h ****         OVS_128,  /**< & */
 103:../../libDaisy//src/per/adc.h ****         OVS_256,  /**< & */
 104:../../libDaisy//src/per/adc.h ****         OVS_512,  /**< & */
 105:../../libDaisy//src/per/adc.h ****         OVS_1024, /**< & */
 106:../../libDaisy//src/per/adc.h ****         OVS_LAST, /**< & */
 107:../../libDaisy//src/per/adc.h ****     };
 108:../../libDaisy//src/per/adc.h **** 
 109:../../libDaisy//src/per/adc.h ****     AdcHandle() {}
 110:../../libDaisy//src/per/adc.h ****     ~AdcHandle() {}
 108              		.loc 7 110 5 is_stmt 1 view .LVU13
 109              		.loc 7 110 5 is_stmt 0 view .LVU14
 110              	.LBE489:
 111              	.LBB490:
 112              	.LBI490:
 113              		.file 8 "../../libDaisy//src/hid/audio.h"
   1:../../libDaisy//src/hid/audio.h **** #ifndef DSY_AUDIO_H
ARM GAS  C:\Users\danig\AppData\Local\Temp\ccN1qAGP.s 			page 9


   2:../../libDaisy//src/hid/audio.h **** #define DSY_AUDIO_H /**< & */
   3:../../libDaisy//src/hid/audio.h **** 
   4:../../libDaisy//src/hid/audio.h **** #include "per/sai.h"
   5:../../libDaisy//src/hid/audio.h **** 
   6:../../libDaisy//src/hid/audio.h **** namespace daisy
   7:../../libDaisy//src/hid/audio.h **** {
   8:../../libDaisy//src/hid/audio.h **** /** @brief Audio Engine Handle
   9:../../libDaisy//src/hid/audio.h ****  *  @ingroup audio 
  10:../../libDaisy//src/hid/audio.h ****  *  @details This class allows for higher level access to an audio engine.
  11:../../libDaisy//src/hid/audio.h ****  *           If you're using a SOM like the DaisySeed or DaisyPatchSM (or any 
  12:../../libDaisy//src/hid/audio.h ****  *            board that includes one of those objects) then the intialization
  13:../../libDaisy//src/hid/audio.h ****  *            is already taken  care of.
  14:../../libDaisy//src/hid/audio.h ****  *           If you're setting up your own custom hardware, or need to make changes
  15:../../libDaisy//src/hid/audio.h ****  *           you will have to take the following steps:
  16:../../libDaisy//src/hid/audio.h ****  *             1. Create and Initialize an SaiHandle or two depending on your requirements
  17:../../libDaisy//src/hid/audio.h ****  *             2. Initialize the Audio Handle with the desired settings and the Initialized SaiHand
  18:../../libDaisy//src/hid/audio.h ****  *             3. If the connected codec requires special configuration or initialization, do so
  19:../../libDaisy//src/hid/audio.h ****  *             4. Write a callback method using either the AudioCallback or the InterleavingAudioCa
  20:../../libDaisy//src/hid/audio.h ****  *             5. Start the Audio using one of the StartAudio function
  21:../../libDaisy//src/hid/audio.h ****  */
  22:../../libDaisy//src/hid/audio.h **** class AudioHandle
  23:../../libDaisy//src/hid/audio.h **** {
  24:../../libDaisy//src/hid/audio.h ****   public:
  25:../../libDaisy//src/hid/audio.h ****     /** Manually configurable details about the Audio Engine */
  26:../../libDaisy//src/hid/audio.h ****     /** TODO: Figure out how to get samplerate in here. */
  27:../../libDaisy//src/hid/audio.h ****     struct Config
  28:../../libDaisy//src/hid/audio.h ****     {
  29:../../libDaisy//src/hid/audio.h ****         /** number of samples to process per callback */
  30:../../libDaisy//src/hid/audio.h ****         size_t blocksize = 48;
  31:../../libDaisy//src/hid/audio.h **** 
  32:../../libDaisy//src/hid/audio.h ****         /**< Sample rate of audio */
  33:../../libDaisy//src/hid/audio.h ****         SaiHandle::Config::SampleRate samplerate
  34:../../libDaisy//src/hid/audio.h ****             = SaiHandle::Config::SampleRate::SAI_48KHZ;
  35:../../libDaisy//src/hid/audio.h **** 
  36:../../libDaisy//src/hid/audio.h ****         /** factor for adjustment before and after callback for hardware that may have extra headro
  37:../../libDaisy//src/hid/audio.h ****         float postgain = 1.f;
  38:../../libDaisy//src/hid/audio.h **** 
  39:../../libDaisy//src/hid/audio.h ****         /** factor for additional one-sided compensation to audio path for hardware that may
  40:../../libDaisy//src/hid/audio.h ****          *  have unequal input/output ranges
  41:../../libDaisy//src/hid/audio.h ****          */
  42:../../libDaisy//src/hid/audio.h ****         float output_compensation = 1.f;
  43:../../libDaisy//src/hid/audio.h ****     };
  44:../../libDaisy//src/hid/audio.h **** 
  45:../../libDaisy//src/hid/audio.h ****     enum class Result
  46:../../libDaisy//src/hid/audio.h ****     {
  47:../../libDaisy//src/hid/audio.h ****         OK,
  48:../../libDaisy//src/hid/audio.h ****         ERR,
  49:../../libDaisy//src/hid/audio.h ****     };
  50:../../libDaisy//src/hid/audio.h **** 
  51:../../libDaisy//src/hid/audio.h ****     /** Non-Interleaving input buffer
  52:../../libDaisy//src/hid/audio.h ****      * Buffer arranged by float[chn][sample] 
  53:../../libDaisy//src/hid/audio.h ****      * const so that the user can't modify the input
  54:../../libDaisy//src/hid/audio.h ****      */
  55:../../libDaisy//src/hid/audio.h ****     typedef const float* const* InputBuffer;
  56:../../libDaisy//src/hid/audio.h **** 
  57:../../libDaisy//src/hid/audio.h ****     /** Non-Interleaving output buffer
  58:../../libDaisy//src/hid/audio.h ****      * Arranged by float[chn][sample] 
ARM GAS  C:\Users\danig\AppData\Local\Temp\ccN1qAGP.s 			page 10


  59:../../libDaisy//src/hid/audio.h ****      */
  60:../../libDaisy//src/hid/audio.h ****     typedef float** OutputBuffer;
  61:../../libDaisy//src/hid/audio.h **** 
  62:../../libDaisy//src/hid/audio.h ****     /** Type for a Non-Interleaving audio callback 
  63:../../libDaisy//src/hid/audio.h ****      * Non-Interleaving audio callbacks in daisy will be of this type
  64:../../libDaisy//src/hid/audio.h ****      */
  65:../../libDaisy//src/hid/audio.h ****     typedef void (*AudioCallback)(InputBuffer  in,
  66:../../libDaisy//src/hid/audio.h ****                                   OutputBuffer out,
  67:../../libDaisy//src/hid/audio.h ****                                   size_t       size);
  68:../../libDaisy//src/hid/audio.h **** 
  69:../../libDaisy//src/hid/audio.h ****     /** Interleaving Input buffer
  70:../../libDaisy//src/hid/audio.h ****      ** audio is prepared as { L0, R0, L1, R1, . . . LN, RN }]
  71:../../libDaisy//src/hid/audio.h ****      ** this is const, as the user shouldn't modify it
  72:../../libDaisy//src/hid/audio.h ****     */
  73:../../libDaisy//src/hid/audio.h ****     typedef const float* InterleavingInputBuffer;
  74:../../libDaisy//src/hid/audio.h **** 
  75:../../libDaisy//src/hid/audio.h ****     /** Interleaving Output buffer 
  76:../../libDaisy//src/hid/audio.h ****      ** audio is prepared as { L0, R0, L1, R1, . . . LN, RN }
  77:../../libDaisy//src/hid/audio.h ****     */
  78:../../libDaisy//src/hid/audio.h ****     typedef float* InterleavingOutputBuffer;
  79:../../libDaisy//src/hid/audio.h **** 
  80:../../libDaisy//src/hid/audio.h ****     /** Interleaving Audio Callback 
  81:../../libDaisy//src/hid/audio.h ****      * Interleaving audio callbacks in daisy must be of this type
  82:../../libDaisy//src/hid/audio.h ****      */
  83:../../libDaisy//src/hid/audio.h ****     typedef void (*InterleavingAudioCallback)(InterleavingInputBuffer  in,
  84:../../libDaisy//src/hid/audio.h ****                                               InterleavingOutputBuffer out,
  85:../../libDaisy//src/hid/audio.h ****                                               size_t                   size);
  86:../../libDaisy//src/hid/audio.h **** 
  87:../../libDaisy//src/hid/audio.h ****     AudioHandle() : pimpl_(nullptr) {}
  88:../../libDaisy//src/hid/audio.h ****     ~AudioHandle() {}
 114              		.loc 8 88 5 is_stmt 1 view .LVU15
 115              		.loc 8 88 5 is_stmt 0 view .LVU16
 116              	.LBE490:
 117              		.loc 3 22 19 view .LVU17
 118 0000 7047     		bx	lr
 119              		.cfi_endproc
 120              	.LFE2729:
 122              		.weak	_ZN5daisy9DaisySeedD1Ev
 123              		.thumb_set _ZN5daisy9DaisySeedD1Ev,_ZN5daisy9DaisySeedD2Ev
 124              		.section	.text._ZN7DisplayD2Ev,"axG",%progbits,_ZN7DisplayD5Ev,comdat
 125              		.align	1
 126              		.weak	_ZN7DisplayD2Ev
 127              		.syntax unified
 128              		.thumb
 129              		.thumb_func
 130              		.fpu fpv5-d16
 132              	_ZN7DisplayD2Ev:
 133              	.LVL3:
 134              	.LFB2827:
 135              		.file 9 "Display.h"
   1:Display.h     **** #pragma once
   2:Display.h     **** #include "daisy_seed.h"
   3:Display.h     **** #include "dev/oled_ssd130x.h"
   4:Display.h     **** 
   5:Display.h     **** using namespace daisy;
   6:Display.h     **** using MyOledDisplay = OledDisplay<SSD130x4WireSpi128x64Driver>;
   7:Display.h     **** 
ARM GAS  C:\Users\danig\AppData\Local\Temp\ccN1qAGP.s 			page 11


   8:Display.h     **** class Display
 136              		.loc 9 8 7 is_stmt 1 view -0
 137              		.cfi_startproc
 138              		@ args = 0, pretend = 0, frame = 0
 139              		@ frame_needed = 0, uses_anonymous_args = 0
 140              		@ link register save eliminated.
 141              	.LBB491:
 142              	.LBI491:
 143              		.file 10 "../../libDaisy//src/hid/disp/oled_display.h"
   1:../../libDaisy//src/hid/disp/oled_display.h **** #pragma once
   2:../../libDaisy//src/hid/disp/oled_display.h **** #ifndef DSY_OLED_DISPLAY_H
   3:../../libDaisy//src/hid/disp/oled_display.h **** #define DSY_OLED_DISPLAY_H /**< Macro */
   4:../../libDaisy//src/hid/disp/oled_display.h **** 
   5:../../libDaisy//src/hid/disp/oled_display.h **** #include "display.h"
   6:../../libDaisy//src/hid/disp/oled_display.h **** 
   7:../../libDaisy//src/hid/disp/oled_display.h **** namespace daisy
   8:../../libDaisy//src/hid/disp/oled_display.h **** {
   9:../../libDaisy//src/hid/disp/oled_display.h **** /** 
  10:../../libDaisy//src/hid/disp/oled_display.h ****  * This class is for drawing to a monochrome OLED display. 
  11:../../libDaisy//src/hid/disp/oled_display.h ****  * @ingroup device
  12:../../libDaisy//src/hid/disp/oled_display.h **** */
  13:../../libDaisy//src/hid/disp/oled_display.h **** template <typename DisplayDriver>
  14:../../libDaisy//src/hid/disp/oled_display.h **** class OledDisplay : public OneBitGraphicsDisplayImpl<OledDisplay<DisplayDriver>>
  15:../../libDaisy//src/hid/disp/oled_display.h **** {
  16:../../libDaisy//src/hid/disp/oled_display.h ****   public:
  17:../../libDaisy//src/hid/disp/oled_display.h ****     OledDisplay() {}
  18:../../libDaisy//src/hid/disp/oled_display.h ****     virtual ~OledDisplay() {}
 144              		.loc 10 18 13 view .LVU19
 145              	.LBB492:
 146              	.LBI492:
 147              		.file 11 "../../libDaisy//src/hid/disp/display.h"
   1:../../libDaisy//src/hid/disp/display.h **** #pragma once
   2:../../libDaisy//src/hid/disp/display.h **** #ifndef DSY_DISPLAY_H
   3:../../libDaisy//src/hid/disp/display.h **** #define DSY_DISPLAY_H /**< Macro */
   4:../../libDaisy//src/hid/disp/display.h **** #include <cmath>
   5:../../libDaisy//src/hid/disp/display.h **** #include "util/oled_fonts.h"
   6:../../libDaisy//src/hid/disp/display.h **** #include "daisy_core.h"
   7:../../libDaisy//src/hid/disp/display.h **** #include "graphics_common.h"
   8:../../libDaisy//src/hid/disp/display.h **** 
   9:../../libDaisy//src/hid/disp/display.h **** #ifndef deg2rad
  10:../../libDaisy//src/hid/disp/display.h **** #define deg2rad(deg) ((deg)*3.141592 / 180.0)
  11:../../libDaisy//src/hid/disp/display.h **** #endif
  12:../../libDaisy//src/hid/disp/display.h **** 
  13:../../libDaisy//src/hid/disp/display.h **** namespace daisy
  14:../../libDaisy//src/hid/disp/display.h **** {
  15:../../libDaisy//src/hid/disp/display.h **** /** 
  16:../../libDaisy//src/hid/disp/display.h ****  * This interface is used as a base class for all types of 1bit-per-pixel
  17:../../libDaisy//src/hid/disp/display.h ****  * graphics displays.
  18:../../libDaisy//src/hid/disp/display.h **** */
  19:../../libDaisy//src/hid/disp/display.h **** class OneBitGraphicsDisplay
  20:../../libDaisy//src/hid/disp/display.h **** {
  21:../../libDaisy//src/hid/disp/display.h ****   public:
  22:../../libDaisy//src/hid/disp/display.h ****     OneBitGraphicsDisplay() {}
  23:../../libDaisy//src/hid/disp/display.h ****     virtual ~OneBitGraphicsDisplay() {}
  24:../../libDaisy//src/hid/disp/display.h **** 
  25:../../libDaisy//src/hid/disp/display.h ****     virtual uint16_t Height() const = 0;
  26:../../libDaisy//src/hid/disp/display.h ****     virtual uint16_t Width() const  = 0;
ARM GAS  C:\Users\danig\AppData\Local\Temp\ccN1qAGP.s 			page 12


  27:../../libDaisy//src/hid/disp/display.h **** 
  28:../../libDaisy//src/hid/disp/display.h ****     Rectangle GetBounds() const
  29:../../libDaisy//src/hid/disp/display.h ****     {
  30:../../libDaisy//src/hid/disp/display.h ****         return Rectangle(int16_t(Width()), int16_t(Height()));
  31:../../libDaisy//src/hid/disp/display.h ****     }
  32:../../libDaisy//src/hid/disp/display.h **** 
  33:../../libDaisy//src/hid/disp/display.h **** 
  34:../../libDaisy//src/hid/disp/display.h ****     size_t CurrentX() { return currentX_; };
  35:../../libDaisy//src/hid/disp/display.h ****     size_t CurrentY() { return currentY_; };
  36:../../libDaisy//src/hid/disp/display.h **** 
  37:../../libDaisy//src/hid/disp/display.h ****     /** 
  38:../../libDaisy//src/hid/disp/display.h ****     Fills the entire display with either on/off.
  39:../../libDaisy//src/hid/disp/display.h ****     \param on Sets on or off.
  40:../../libDaisy//src/hid/disp/display.h ****     */
  41:../../libDaisy//src/hid/disp/display.h ****     virtual void Fill(bool on) = 0;
  42:../../libDaisy//src/hid/disp/display.h **** 
  43:../../libDaisy//src/hid/disp/display.h ****     /**
  44:../../libDaisy//src/hid/disp/display.h ****     Sets the pixel at the specified coordinate to be on/off.
  45:../../libDaisy//src/hid/disp/display.h ****     \param x   x Coordinate
  46:../../libDaisy//src/hid/disp/display.h ****     \param y   y coordinate
  47:../../libDaisy//src/hid/disp/display.h ****     \param on  on or off
  48:../../libDaisy//src/hid/disp/display.h ****     */
  49:../../libDaisy//src/hid/disp/display.h ****     virtual void DrawPixel(uint_fast8_t x, uint_fast8_t y, bool on) = 0;
  50:../../libDaisy//src/hid/disp/display.h **** 
  51:../../libDaisy//src/hid/disp/display.h ****     /**
  52:../../libDaisy//src/hid/disp/display.h ****     Draws a line from (x1, y1) to (y1, y2)
  53:../../libDaisy//src/hid/disp/display.h ****     \param x1  x Coordinate of the starting point
  54:../../libDaisy//src/hid/disp/display.h ****     \param y1  y Coordinate of the starting point
  55:../../libDaisy//src/hid/disp/display.h ****     \param x2  x Coordinate of the ending point
  56:../../libDaisy//src/hid/disp/display.h ****     \param y2  y Coordinate of the ending point
  57:../../libDaisy//src/hid/disp/display.h ****     \param on  on or off
  58:../../libDaisy//src/hid/disp/display.h ****     */
  59:../../libDaisy//src/hid/disp/display.h ****     virtual void DrawLine(uint_fast8_t x1,
  60:../../libDaisy//src/hid/disp/display.h ****                           uint_fast8_t y1,
  61:../../libDaisy//src/hid/disp/display.h ****                           uint_fast8_t x2,
  62:../../libDaisy//src/hid/disp/display.h ****                           uint_fast8_t y2,
  63:../../libDaisy//src/hid/disp/display.h ****                           bool         on)
  64:../../libDaisy//src/hid/disp/display.h ****         = 0;
  65:../../libDaisy//src/hid/disp/display.h **** 
  66:../../libDaisy//src/hid/disp/display.h ****     /**
  67:../../libDaisy//src/hid/disp/display.h ****     Draws a rectangle based on two coordinates.
  68:../../libDaisy//src/hid/disp/display.h ****     \param x1 x Coordinate of the first point
  69:../../libDaisy//src/hid/disp/display.h ****     \param y1 y Coordinate of the first point
  70:../../libDaisy//src/hid/disp/display.h ****     \param x2 x Coordinate of the second point
  71:../../libDaisy//src/hid/disp/display.h ****     \param y2 y Coordinate of the second point
  72:../../libDaisy//src/hid/disp/display.h ****     \param on on or off
  73:../../libDaisy//src/hid/disp/display.h ****     \param fill fill the rectangle or draw only the outline
  74:../../libDaisy//src/hid/disp/display.h ****     */
  75:../../libDaisy//src/hid/disp/display.h ****     virtual void DrawRect(uint_fast8_t x1,
  76:../../libDaisy//src/hid/disp/display.h ****                           uint_fast8_t y1,
  77:../../libDaisy//src/hid/disp/display.h ****                           uint_fast8_t x2,
  78:../../libDaisy//src/hid/disp/display.h ****                           uint_fast8_t y2,
  79:../../libDaisy//src/hid/disp/display.h ****                           bool         on,
  80:../../libDaisy//src/hid/disp/display.h ****                           bool         fill = false)
  81:../../libDaisy//src/hid/disp/display.h ****         = 0;
  82:../../libDaisy//src/hid/disp/display.h **** 
  83:../../libDaisy//src/hid/disp/display.h ****     /**
ARM GAS  C:\Users\danig\AppData\Local\Temp\ccN1qAGP.s 			page 13


  84:../../libDaisy//src/hid/disp/display.h ****     Draws a rectangle.
  85:../../libDaisy//src/hid/disp/display.h ****     \param rect the rectangle
  86:../../libDaisy//src/hid/disp/display.h ****     \param on   on or off
  87:../../libDaisy//src/hid/disp/display.h ****     \param fill fill the rectangle or draw only the outline
  88:../../libDaisy//src/hid/disp/display.h ****     */
  89:../../libDaisy//src/hid/disp/display.h ****     void DrawRect(const Rectangle& rect, bool on, bool fill = false)
  90:../../libDaisy//src/hid/disp/display.h ****     {
  91:../../libDaisy//src/hid/disp/display.h ****         DrawRect(rect.GetX(),
  92:../../libDaisy//src/hid/disp/display.h ****                  rect.GetY(),
  93:../../libDaisy//src/hid/disp/display.h ****                  rect.GetRight(),
  94:../../libDaisy//src/hid/disp/display.h ****                  rect.GetBottom(),
  95:../../libDaisy//src/hid/disp/display.h ****                  on,
  96:../../libDaisy//src/hid/disp/display.h ****                  fill);
  97:../../libDaisy//src/hid/disp/display.h ****     }
  98:../../libDaisy//src/hid/disp/display.h **** 
  99:../../libDaisy//src/hid/disp/display.h ****     /**
 100:../../libDaisy//src/hid/disp/display.h ****     Draws an arc around the specified coordinate
 101:../../libDaisy//src/hid/disp/display.h ****     \param x           x Coordinate of the center of the arc
 102:../../libDaisy//src/hid/disp/display.h ****     \param y           y Coordinate of the center of the arc
 103:../../libDaisy//src/hid/disp/display.h ****     \param radius      radius of the arc
 104:../../libDaisy//src/hid/disp/display.h ****     \param start_angle angle where to start the arc
 105:../../libDaisy//src/hid/disp/display.h ****     \param sweep       total angle of the arc
 106:../../libDaisy//src/hid/disp/display.h ****     \param on  on or off
 107:../../libDaisy//src/hid/disp/display.h ****     */
 108:../../libDaisy//src/hid/disp/display.h ****     virtual void DrawArc(uint_fast8_t x,
 109:../../libDaisy//src/hid/disp/display.h ****                          uint_fast8_t y,
 110:../../libDaisy//src/hid/disp/display.h ****                          uint_fast8_t radius,
 111:../../libDaisy//src/hid/disp/display.h ****                          int_fast16_t start_angle,
 112:../../libDaisy//src/hid/disp/display.h ****                          int_fast16_t sweep,
 113:../../libDaisy//src/hid/disp/display.h ****                          bool         on)
 114:../../libDaisy//src/hid/disp/display.h ****         = 0;
 115:../../libDaisy//src/hid/disp/display.h **** 
 116:../../libDaisy//src/hid/disp/display.h ****     /**
 117:../../libDaisy//src/hid/disp/display.h ****     Draws a circle around the specified coordinate
 118:../../libDaisy//src/hid/disp/display.h ****     \param x           x Coordinate of the center of the circle
 119:../../libDaisy//src/hid/disp/display.h ****     \param y           y Coordinate of the center of the circle
 120:../../libDaisy//src/hid/disp/display.h ****     \param radius      radius of the circle
 121:../../libDaisy//src/hid/disp/display.h ****     \param on  on or off
 122:../../libDaisy//src/hid/disp/display.h ****     */
 123:../../libDaisy//src/hid/disp/display.h ****     void
 124:../../libDaisy//src/hid/disp/display.h ****     DrawCircle(uint_fast8_t x, uint_fast8_t y, uint_fast8_t radius, bool on)
 125:../../libDaisy//src/hid/disp/display.h ****     {
 126:../../libDaisy//src/hid/disp/display.h ****         DrawArc(x, y, radius, 0, 360, on);
 127:../../libDaisy//src/hid/disp/display.h ****     };
 128:../../libDaisy//src/hid/disp/display.h **** 
 129:../../libDaisy//src/hid/disp/display.h ****     /** 
 130:../../libDaisy//src/hid/disp/display.h ****     Writes the character with the specific FontDef
 131:../../libDaisy//src/hid/disp/display.h ****     to the display buffer at the current Cursor position.
 132:../../libDaisy//src/hid/disp/display.h ****     \param ch character to be written
 133:../../libDaisy//src/hid/disp/display.h ****     \param font font to be written in
 134:../../libDaisy//src/hid/disp/display.h ****     \param on    on or off
 135:../../libDaisy//src/hid/disp/display.h ****     \return &
 136:../../libDaisy//src/hid/disp/display.h ****     */
 137:../../libDaisy//src/hid/disp/display.h ****     virtual char WriteChar(char ch, FontDef font, bool on) = 0;
 138:../../libDaisy//src/hid/disp/display.h **** 
 139:../../libDaisy//src/hid/disp/display.h ****     /** 
 140:../../libDaisy//src/hid/disp/display.h ****     Similar to WriteChar, except it will handle an entire String.
ARM GAS  C:\Users\danig\AppData\Local\Temp\ccN1qAGP.s 			page 14


 141:../../libDaisy//src/hid/disp/display.h ****     Wrapping does not happen automatically, so the width
 142:../../libDaisy//src/hid/disp/display.h ****     of the string must be kept within the dimensions of the screen.
 143:../../libDaisy//src/hid/disp/display.h ****     \param str string to be written
 144:../../libDaisy//src/hid/disp/display.h ****     \param font font to use
 145:../../libDaisy//src/hid/disp/display.h ****     \param on  on or off
 146:../../libDaisy//src/hid/disp/display.h ****     \return &
 147:../../libDaisy//src/hid/disp/display.h ****     */
 148:../../libDaisy//src/hid/disp/display.h ****     virtual char WriteString(const char* str, FontDef font, bool on) = 0;
 149:../../libDaisy//src/hid/disp/display.h **** 
 150:../../libDaisy//src/hid/disp/display.h ****     /** 
 151:../../libDaisy//src/hid/disp/display.h ****     Similar to WriteString but justified within a bounding box.
 152:../../libDaisy//src/hid/disp/display.h ****     \param str          string to be written
 153:../../libDaisy//src/hid/disp/display.h ****     \param font         font to use
 154:../../libDaisy//src/hid/disp/display.h ****     \param boundingBox  the bounding box to draw the text in
 155:../../libDaisy//src/hid/disp/display.h ****     \param alignment    the alignment to use
 156:../../libDaisy//src/hid/disp/display.h ****     \param on           on or off
 157:../../libDaisy//src/hid/disp/display.h ****     \return The rectangle that was drawn to
 158:../../libDaisy//src/hid/disp/display.h ****     */
 159:../../libDaisy//src/hid/disp/display.h ****     virtual Rectangle WriteStringAligned(const char*    str,
 160:../../libDaisy//src/hid/disp/display.h ****                                          const FontDef& font,
 161:../../libDaisy//src/hid/disp/display.h ****                                          Rectangle      boundingBox,
 162:../../libDaisy//src/hid/disp/display.h ****                                          Alignment      alignment,
 163:../../libDaisy//src/hid/disp/display.h ****                                          bool           on)
 164:../../libDaisy//src/hid/disp/display.h ****         = 0;
 165:../../libDaisy//src/hid/disp/display.h **** 
 166:../../libDaisy//src/hid/disp/display.h ****     /** 
 167:../../libDaisy//src/hid/disp/display.h ****     Moves the 'Cursor' position used for WriteChar, and WriteStr to the specified coordinate.
 168:../../libDaisy//src/hid/disp/display.h ****     \param x x pos
 169:../../libDaisy//src/hid/disp/display.h ****     \param y y pos
 170:../../libDaisy//src/hid/disp/display.h ****     */
 171:../../libDaisy//src/hid/disp/display.h ****     void SetCursor(uint16_t x, uint16_t y)
 172:../../libDaisy//src/hid/disp/display.h ****     {
 173:../../libDaisy//src/hid/disp/display.h ****         currentX_ = (x >= Width()) ? Width() - 1 : x;
 174:../../libDaisy//src/hid/disp/display.h ****         currentY_ = (y >= Height()) ? Height() - 1 : y;
 175:../../libDaisy//src/hid/disp/display.h ****     }
 176:../../libDaisy//src/hid/disp/display.h **** 
 177:../../libDaisy//src/hid/disp/display.h ****     /** 
 178:../../libDaisy//src/hid/disp/display.h ****     Writes the current display buffer to the OLED device using SPI or I2C depending on 
 179:../../libDaisy//src/hid/disp/display.h ****     how the object was initialized.
 180:../../libDaisy//src/hid/disp/display.h ****     */
 181:../../libDaisy//src/hid/disp/display.h ****     virtual void Update() = 0;
 182:../../libDaisy//src/hid/disp/display.h **** 
 183:../../libDaisy//src/hid/disp/display.h ****     /** 
 184:../../libDaisy//src/hid/disp/display.h ****     Returns true if the Update has finished, used for chained DMA transfers
 185:../../libDaisy//src/hid/disp/display.h ****     */
 186:../../libDaisy//src/hid/disp/display.h ****     virtual bool UpdateFinished() = 0;
 187:../../libDaisy//src/hid/disp/display.h **** 
 188:../../libDaisy//src/hid/disp/display.h ****   protected:
 189:../../libDaisy//src/hid/disp/display.h ****     uint16_t currentX_;
 190:../../libDaisy//src/hid/disp/display.h ****     uint16_t currentY_;
 191:../../libDaisy//src/hid/disp/display.h **** };
 192:../../libDaisy//src/hid/disp/display.h **** 
 193:../../libDaisy//src/hid/disp/display.h **** /** This class is intended as a intermediary class for your actual implementation of the OneBitGrap
 194:../../libDaisy//src/hid/disp/display.h ****  *  interface. It uses the CRTP design pattern where the template argument is the child class. It p
 195:../../libDaisy//src/hid/disp/display.h ****  *  implementations for most of the functions, except DrawPixel(), Update() and Fill(), which you'l
 196:../../libDaisy//src/hid/disp/display.h ****  *  to provide in your child class.
 197:../../libDaisy//src/hid/disp/display.h ****  *  The main goal of this class is to provide common drawing functions without relying on massive a
ARM GAS  C:\Users\danig\AppData\Local\Temp\ccN1qAGP.s 			page 15


 198:../../libDaisy//src/hid/disp/display.h ****  *  virtual function calls that would result in a performance loss. To achieve this, any drawing fu
 199:../../libDaisy//src/hid/disp/display.h ****  *  is implemented here and internally calls other drawing functions (e.g. DrawRect() which interna
 200:../../libDaisy//src/hid/disp/display.h ****  *  DrawPixel() and DrawLine()) makes these calls via the qualified name of these functions to expl
 201:../../libDaisy//src/hid/disp/display.h ****  *  suppress the virtual dispatch mechanism like this:
 202:../../libDaisy//src/hid/disp/display.h ****  * 
 203:../../libDaisy//src/hid/disp/display.h ****  *      ChildType::DrawPixel(...); // no virtual function call; direct call into the child class fu
 204:../../libDaisy//src/hid/disp/display.h ****  *  
 205:../../libDaisy//src/hid/disp/display.h ****  *  To create a custom OneBitGraphicsDisplay implementation, you can 
 206:../../libDaisy//src/hid/disp/display.h ****  *  A) inherit from OneBitGraphicsDisplay directly and provide all the drawing functions yourself
 207:../../libDaisy//src/hid/disp/display.h ****  *  B) Inherit from OneBitGraphicsDisplayImpl and only provide DrawPixel(), Fill() and Update()
 208:../../libDaisy//src/hid/disp/display.h ****  *     like this:
 209:../../libDaisy//src/hid/disp/display.h ****  *  
 210:../../libDaisy//src/hid/disp/display.h ****  *      class MyDisplayClass : public OneBitGraphicsDisplayImpl<MyDisplayClass> 
 211:../../libDaisy//src/hid/disp/display.h ****  *      {
 212:../../libDaisy//src/hid/disp/display.h ****  *      public:
 213:../../libDaisy//src/hid/disp/display.h ****  *          void Fill() override { ... };
 214:../../libDaisy//src/hid/disp/display.h ****  *          void DrawPixel(uint_fast8_t x, uint_fast8_t y, bool on) override { ... };
 215:../../libDaisy//src/hid/disp/display.h ****  *          void Update() override { ... }
 216:../../libDaisy//src/hid/disp/display.h ****  *      };
 217:../../libDaisy//src/hid/disp/display.h ****  *  
 218:../../libDaisy//src/hid/disp/display.h ****  */
 219:../../libDaisy//src/hid/disp/display.h **** template <class ChildType>
 220:../../libDaisy//src/hid/disp/display.h **** class OneBitGraphicsDisplayImpl : public OneBitGraphicsDisplay
 221:../../libDaisy//src/hid/disp/display.h **** {
 222:../../libDaisy//src/hid/disp/display.h ****   public:
 223:../../libDaisy//src/hid/disp/display.h ****     OneBitGraphicsDisplayImpl() {}
 224:../../libDaisy//src/hid/disp/display.h ****     virtual ~OneBitGraphicsDisplayImpl() {}
 148              		.loc 11 224 13 view .LVU20
 149              	.LBB493:
 150              	.LBI493:
  23:../../libDaisy//src/hid/disp/display.h **** 
 151              		.loc 11 23 13 view .LVU21
  23:../../libDaisy//src/hid/disp/display.h **** 
 152              		.loc 11 23 13 is_stmt 0 view .LVU22
 153              	.LBE493:
 154              	.LBE492:
 155              	.LBE491:
 156              		.loc 9 8 7 view .LVU23
 157 0000 7047     		bx	lr
 158              		.cfi_endproc
 159              	.LFE2827:
 161              		.weak	_ZN7DisplayD1Ev
 162              		.thumb_set _ZN7DisplayD1Ev,_ZN7DisplayD2Ev
 163              		.section	.text._ZN9SdHandlerD2Ev,"axG",%progbits,_ZN9SdHandlerD5Ev,comdat
 164              		.align	1
 165              		.weak	_ZN9SdHandlerD2Ev
 166              		.syntax unified
 167              		.thumb
 168              		.thumb_func
 169              		.fpu fpv5-d16
 171              	_ZN9SdHandlerD2Ev:
 172              	.LVL4:
 173              	.LFB2830:
 174              		.file 12 "SdHandler.h"
   1:SdHandler.h   **** #pragma once
   2:SdHandler.h   **** #include "daisy_seed.h"
   3:SdHandler.h   **** #include "fatfs.h"
ARM GAS  C:\Users\danig\AppData\Local\Temp\ccN1qAGP.s 			page 16


   4:SdHandler.h   **** 
   5:SdHandler.h   **** using namespace daisy;
   6:SdHandler.h   **** 
   7:SdHandler.h   **** enum class SdError
   8:SdHandler.h   **** {
   9:SdHandler.h   ****     NONE,
  10:SdHandler.h   ****     MOUNT_FAILED,
  11:SdHandler.h   ****     FILE_NOT_FOUND,
  12:SdHandler.h   ****     READ_FAILED,
  13:SdHandler.h   ****     BUFFER_TOO_SMALL,
  14:SdHandler.h   ****     NOT_MOUNTED,
  15:SdHandler.h   ****     NO_FILE_OPEN
  16:SdHandler.h   **** };
  17:SdHandler.h   **** 
  18:SdHandler.h   **** class SdHandler
 175              		.loc 12 18 7 is_stmt 1 view -0
 176              		.cfi_startproc
 177              		@ args = 0, pretend = 0, frame = 0
 178              		@ frame_needed = 0, uses_anonymous_args = 0
 179              		@ link register save eliminated.
 180              	.LBB494:
 181              	.LBI494:
 182              		.file 13 "../../libDaisy//src/per/sdmmc.h"
   1:../../libDaisy//src/per/sdmmc.h **** /*
   2:../../libDaisy//src/per/sdmmc.h **** TODO: 
   3:../../libDaisy//src/per/sdmmc.h **** - Implement configuration (currently all settings are fixed).
   4:../../libDaisy//src/per/sdmmc.h **** */
   5:../../libDaisy//src/per/sdmmc.h **** #pragma once
   6:../../libDaisy//src/per/sdmmc.h **** #ifndef DSY_SDMMC_H
   7:../../libDaisy//src/per/sdmmc.h **** #define DSY_SDMMC_H /**< macro */
   8:../../libDaisy//src/per/sdmmc.h **** 
   9:../../libDaisy//src/per/sdmmc.h **** #include <stdint.h>
  10:../../libDaisy//src/per/sdmmc.h **** #include "stm32h7xx_hal.h"
  11:../../libDaisy//src/per/sdmmc.h **** 
  12:../../libDaisy//src/per/sdmmc.h **** namespace daisy
  13:../../libDaisy//src/per/sdmmc.h **** {
  14:../../libDaisy//src/per/sdmmc.h **** /** @ingroup peripheral
  15:../../libDaisy//src/per/sdmmc.h ****     @{
  16:../../libDaisy//src/per/sdmmc.h ****     */
  17:../../libDaisy//src/per/sdmmc.h **** 
  18:../../libDaisy//src/per/sdmmc.h **** /** Configuration for interfacing with SD cards.
  19:../../libDaisy//src/per/sdmmc.h ****  *  Currently only supports operation using FatFS filesystem
  20:../../libDaisy//src/per/sdmmc.h ****  * 
  21:../../libDaisy//src/per/sdmmc.h ****  *  Only SDMMC1 is supported at this time.
  22:../../libDaisy//src/per/sdmmc.h ****  *
  23:../../libDaisy//src/per/sdmmc.h ****  *  Pins are fixed to the following:
  24:../../libDaisy//src/per/sdmmc.h ****  *  PC12 - SDMMC1 CK
  25:../../libDaisy//src/per/sdmmc.h ****  *  PD2  - SDMMC1 CMD
  26:../../libDaisy//src/per/sdmmc.h ****  *  PC8  - SDMMC1 D0
  27:../../libDaisy//src/per/sdmmc.h ****  *  PC9  - SDMMC1 D1 (optional)
  28:../../libDaisy//src/per/sdmmc.h ****  *  PC10 - SDMMC1 D2 (optional)
  29:../../libDaisy//src/per/sdmmc.h ****  *  PC11 - SDMMC1 D3 (optional)
  30:../../libDaisy//src/per/sdmmc.h **** */
  31:../../libDaisy//src/per/sdmmc.h **** class SdmmcHandler
  32:../../libDaisy//src/per/sdmmc.h **** {
  33:../../libDaisy//src/per/sdmmc.h ****   public:
  34:../../libDaisy//src/per/sdmmc.h ****     /** Return values for the SdmmcHandler class */
ARM GAS  C:\Users\danig\AppData\Local\Temp\ccN1qAGP.s 			page 17


  35:../../libDaisy//src/per/sdmmc.h ****     enum class Result
  36:../../libDaisy//src/per/sdmmc.h ****     {
  37:../../libDaisy//src/per/sdmmc.h ****         OK,
  38:../../libDaisy//src/per/sdmmc.h ****         ERROR,
  39:../../libDaisy//src/per/sdmmc.h ****     };
  40:../../libDaisy//src/per/sdmmc.h **** 
  41:../../libDaisy//src/per/sdmmc.h ****     /** Sets whether 4-bit mode or 1-bit mode is used for the SDMMC */
  42:../../libDaisy//src/per/sdmmc.h ****     enum class BusWidth
  43:../../libDaisy//src/per/sdmmc.h ****     {
  44:../../libDaisy//src/per/sdmmc.h ****         BITS_1, /**< Only 1 bit of data per clock is transferred */
  45:../../libDaisy//src/per/sdmmc.h ****         BITS_4, /**< 4-bits of parallel data for each clock pulse */
  46:../../libDaisy//src/per/sdmmc.h ****     };
  47:../../libDaisy//src/per/sdmmc.h **** 
  48:../../libDaisy//src/per/sdmmc.h ****     /** 
  49:../../libDaisy//src/per/sdmmc.h ****     Sets the desired clock speed of the SD card bus. \n 
  50:../../libDaisy//src/per/sdmmc.h ****     Initialization is always done at or below 400kHz, and then the user speed is set.
  51:../../libDaisy//src/per/sdmmc.h ****     */
  52:../../libDaisy//src/per/sdmmc.h ****     enum class Speed
  53:../../libDaisy//src/per/sdmmc.h ****     {
  54:../../libDaisy//src/per/sdmmc.h ****         SLOW, /**< 400kHz, initialization  performed at this rate, before moving to user value */
  55:../../libDaisy//src/per/sdmmc.h ****         MEDIUM_SLOW, /**< 12.5MHz - half of standard rate */
  56:../../libDaisy//src/per/sdmmc.h ****         STANDARD,    /**< 25MHz - DS (Default Speed for SDMMC) */
  57:../../libDaisy//src/per/sdmmc.h ****         FAST,        /**< 50MHz - HS (High Speed signaling) */
  58:../../libDaisy//src/per/sdmmc.h ****         VERY_FAST, /**< 100MHz - SDR50 Overclocked rate for maximum transfer rates */
  59:../../libDaisy//src/per/sdmmc.h ****     };
  60:../../libDaisy//src/per/sdmmc.h **** 
  61:../../libDaisy//src/per/sdmmc.h ****     struct Config
  62:../../libDaisy//src/per/sdmmc.h ****     {
  63:../../libDaisy//src/per/sdmmc.h ****         Speed    speed;
  64:../../libDaisy//src/per/sdmmc.h ****         BusWidth width;
  65:../../libDaisy//src/per/sdmmc.h ****         bool
  66:../../libDaisy//src/per/sdmmc.h ****             clock_powersave; /**< When true, the clock will stop between transfers to save power. *
  67:../../libDaisy//src/per/sdmmc.h **** 
  68:../../libDaisy//src/per/sdmmc.h ****         /** Configures settings to their default settings */
  69:../../libDaisy//src/per/sdmmc.h ****         void Defaults()
  70:../../libDaisy//src/per/sdmmc.h ****         {
  71:../../libDaisy//src/per/sdmmc.h ****             speed           = Speed::FAST;
  72:../../libDaisy//src/per/sdmmc.h ****             width           = BusWidth::BITS_4;
  73:../../libDaisy//src/per/sdmmc.h ****             clock_powersave = false;
  74:../../libDaisy//src/per/sdmmc.h ****         }
  75:../../libDaisy//src/per/sdmmc.h ****     };
  76:../../libDaisy//src/per/sdmmc.h **** 
  77:../../libDaisy//src/per/sdmmc.h ****     SdmmcHandler() {}
  78:../../libDaisy//src/per/sdmmc.h ****     ~SdmmcHandler() {}
 183              		.loc 13 78 5 view .LVU25
 184              		.loc 13 78 5 is_stmt 0 view .LVU26
 185              	.LBE494:
 186              		.loc 12 18 7 view .LVU27
 187 0000 7047     		bx	lr
 188              		.cfi_endproc
 189              	.LFE2830:
 191              		.weak	_ZN9SdHandlerD1Ev
 192              		.thumb_set _ZN9SdHandlerD1Ev,_ZN9SdHandlerD2Ev
 193              		.section	.text._ZN11AudioPlayerD2Ev,"axG",%progbits,_ZN11AudioPlayerD5Ev,comdat
 194              		.align	1
 195              		.weak	_ZN11AudioPlayerD2Ev
 196              		.syntax unified
ARM GAS  C:\Users\danig\AppData\Local\Temp\ccN1qAGP.s 			page 18


 197              		.thumb
 198              		.thumb_func
 199              		.fpu fpv5-d16
 201              	_ZN11AudioPlayerD2Ev:
 202              	.LVL5:
 203              	.LFB2833:
 204              		.file 14 "AudioPlayer.h"
   1:AudioPlayer.h **** #pragma once
   2:AudioPlayer.h **** #include "daisy_seed.h"
   3:AudioPlayer.h **** #include "fatfs.h"
   4:AudioPlayer.h **** #include "util/WavPlayer.h"
   5:AudioPlayer.h **** 
   6:AudioPlayer.h **** #ifndef M_PI
   7:AudioPlayer.h **** #define M_PI 3.14159265358979323846f
   8:AudioPlayer.h **** #endif
   9:AudioPlayer.h **** 
  10:AudioPlayer.h **** #include <math.h>
  11:AudioPlayer.h **** 
  12:AudioPlayer.h **** using namespace daisy;
  13:AudioPlayer.h **** 
  14:AudioPlayer.h **** class AudioPlayer
 205              		.loc 14 14 7 is_stmt 1 view -0
 206              		.cfi_startproc
 207              		@ args = 0, pretend = 0, frame = 0
 208              		@ frame_needed = 0, uses_anonymous_args = 0
 209              		@ link register save eliminated.
 210              	.LBB495:
 211              	.LBI495:
 212              		.file 15 "../../libDaisy//src/util/WavPlayer.h"
   1:../../libDaisy//src/util/WavPlayer.h **** #pragma once
   2:../../libDaisy//src/util/WavPlayer.h **** 
   3:../../libDaisy//src/util/WavPlayer.h **** #include "daisy.h"
   4:../../libDaisy//src/util/WavPlayer.h **** #include "ff.h"
   5:../../libDaisy//src/util/WavPlayer.h **** #include "WavParser.h"
   6:../../libDaisy//src/util/WavPlayer.h **** #include "FileReader.h"
   7:../../libDaisy//src/util/WavPlayer.h **** 
   8:../../libDaisy//src/util/WavPlayer.h **** namespace daisy
   9:../../libDaisy//src/util/WavPlayer.h **** {
  10:../../libDaisy//src/util/WavPlayer.h **** /**
  11:../../libDaisy//src/util/WavPlayer.h ****  * WAV file Streaming Playback
  12:../../libDaisy//src/util/WavPlayer.h ****  *
  13:../../libDaisy//src/util/WavPlayer.h ****  * At this time, this class only supports streaming of  16-bit WAV Files
  14:../../libDaisy//src/util/WavPlayer.h ****  * The output of this class will be in float converted from 16-bit integers
  15:../../libDaisy//src/util/WavPlayer.h ****  * and linearly interpolated for non-integer playback speeds.
  16:../../libDaisy//src/util/WavPlayer.h ****  *
  17:../../libDaisy//src/util/WavPlayer.h ****  * Due to the implementation, reverse playback is not possible with this class.
  18:../../libDaisy//src/util/WavPlayer.h ****  *
  19:../../libDaisy//src/util/WavPlayer.h ****  * The workspace_bytes template parameter is used to set the size in bytes of
  20:../../libDaisy//src/util/WavPlayer.h ****  * audio samples within the FIFO.
  21:../../libDaisy//src/util/WavPlayer.h ****  *
  22:../../libDaisy//src/util/WavPlayer.h ****  * The bulk of amount of memory used by this class is approximately:
  23:../../libDaisy//src/util/WavPlayer.h ****  * (2 * workspace_bytes);
  24:../../libDaisy//src/util/WavPlayer.h ****  * This could hypothetically be reduced by half by directly accessing the
  25:../../libDaisy//src/util/WavPlayer.h ****  * FIFO's inner array (requires modifications to FIFO class), or making
  26:../../libDaisy//src/util/WavPlayer.h ****  * a new type of queue data structure
  27:../../libDaisy//src/util/WavPlayer.h ****  *
  28:../../libDaisy//src/util/WavPlayer.h ****  * Whenever the Stream function results in a the samples FIFO being less than 75%
ARM GAS  C:\Users\danig\AppData\Local\Temp\ccN1qAGP.s 			page 19


  29:../../libDaisy//src/util/WavPlayer.h ****  * full, it will generate a request for new data. So the average disk i/o
  30:../../libDaisy//src/util/WavPlayer.h ****  * transaction will be the `workspace_bytes` / 4. However,
  31:../../libDaisy//src/util/WavPlayer.h ****  * There are times, like when restarting playback, or opening a different file,
  32:../../libDaisy//src/util/WavPlayer.h ****  * that will trigger the entire buffer to be filled.
  33:../../libDaisy//src/util/WavPlayer.h ****  */
  34:../../libDaisy//src/util/WavPlayer.h **** template <size_t workspace_bytes>
  35:../../libDaisy//src/util/WavPlayer.h **** class WavPlayer
  36:../../libDaisy//src/util/WavPlayer.h **** {
  37:../../libDaisy//src/util/WavPlayer.h ****   public:
  38:../../libDaisy//src/util/WavPlayer.h ****     WavPlayer() {}
  39:../../libDaisy//src/util/WavPlayer.h ****     ~WavPlayer() {}
 213              		.loc 15 39 5 view .LVU29
 214              	.LBB496:
 215              	.LBI496:
 216              		.file 16 "../../libDaisy//src/util/FIFO.h"
   1:../../libDaisy//src/util/FIFO.h **** #pragma once
   2:../../libDaisy//src/util/FIFO.h **** 
   3:../../libDaisy//src/util/FIFO.h **** #include <stdint.h>
   4:../../libDaisy//src/util/FIFO.h **** #include <stddef.h>
   5:../../libDaisy//src/util/FIFO.h **** #include <initializer_list>
   6:../../libDaisy//src/util/FIFO.h **** 
   7:../../libDaisy//src/util/FIFO.h **** namespace daisy
   8:../../libDaisy//src/util/FIFO.h **** {
   9:../../libDaisy//src/util/FIFO.h **** /** Capacity-independent base class for FIFO. Use FIFO instead. */
  10:../../libDaisy//src/util/FIFO.h **** template <typename T>
  11:../../libDaisy//src/util/FIFO.h **** class FIFOBase
  12:../../libDaisy//src/util/FIFO.h **** {
  13:../../libDaisy//src/util/FIFO.h ****   protected:
  14:../../libDaisy//src/util/FIFO.h ****     FIFOBase(T* buffer, size_t bufferSize)
  15:../../libDaisy//src/util/FIFO.h ****     : buffer_(buffer), bufferSize_(bufferSize), bufferIn_(0), bufferOut_(0)
  16:../../libDaisy//src/util/FIFO.h ****     {
  17:../../libDaisy//src/util/FIFO.h ****     }
  18:../../libDaisy//src/util/FIFO.h **** 
  19:../../libDaisy//src/util/FIFO.h ****     FIFOBase(T* buffer, size_t bufferSize, std::initializer_list<T> valuesToAdd)
  20:../../libDaisy//src/util/FIFO.h ****     : buffer_(buffer), bufferSize_(bufferSize), bufferIn_(0), bufferOut_(0)
  21:../../libDaisy//src/util/FIFO.h ****     {
  22:../../libDaisy//src/util/FIFO.h ****         PushBack(valuesToAdd);
  23:../../libDaisy//src/util/FIFO.h ****     }
  24:../../libDaisy//src/util/FIFO.h **** 
  25:../../libDaisy//src/util/FIFO.h ****   public:
  26:../../libDaisy//src/util/FIFO.h ****     /** Copies all elements from another FIFO */
  27:../../libDaisy//src/util/FIFO.h ****     FIFOBase<T>& operator=(const FIFOBase<T>& other)
  28:../../libDaisy//src/util/FIFO.h ****     {
  29:../../libDaisy//src/util/FIFO.h ****         bufferIn_ = bufferOut_ = 0;
  30:../../libDaisy//src/util/FIFO.h ****         if(!other.IsEmpty())
  31:../../libDaisy//src/util/FIFO.h ****         {
  32:../../libDaisy//src/util/FIFO.h ****             int readPtr = other.bufferOut_;
  33:../../libDaisy//src/util/FIFO.h ****             while((readPtr != other.bufferIn_) && (bufferIn_ < bufferSize_))
  34:../../libDaisy//src/util/FIFO.h ****             {
  35:../../libDaisy//src/util/FIFO.h ****                 buffer_[bufferIn_++] = other.buffer_[readPtr++];
  36:../../libDaisy//src/util/FIFO.h ****                 if(readPtr >= other.bufferSize_)
  37:../../libDaisy//src/util/FIFO.h ****                     readPtr -= other.bufferSize_;
  38:../../libDaisy//src/util/FIFO.h ****             }
  39:../../libDaisy//src/util/FIFO.h ****         }
  40:../../libDaisy//src/util/FIFO.h ****         return *this;
  41:../../libDaisy//src/util/FIFO.h ****     }
  42:../../libDaisy//src/util/FIFO.h ****     ~FIFOBase() {}
ARM GAS  C:\Users\danig\AppData\Local\Temp\ccN1qAGP.s 			page 20


  43:../../libDaisy//src/util/FIFO.h **** 
  44:../../libDaisy//src/util/FIFO.h ****     /** Removes all elements from the FIFO */
  45:../../libDaisy//src/util/FIFO.h ****     void Clear() { bufferIn_ = bufferOut_ = 0; }
  46:../../libDaisy//src/util/FIFO.h **** 
  47:../../libDaisy//src/util/FIFO.h ****     /** Adds an element to the back of the buffer, returning true on
  48:../../libDaisy//src/util/FIFO.h ****         success */
  49:../../libDaisy//src/util/FIFO.h ****     bool PushBack(const T& elementToAdd)
  50:../../libDaisy//src/util/FIFO.h ****     {
  51:../../libDaisy//src/util/FIFO.h ****         if(!IsFull())
  52:../../libDaisy//src/util/FIFO.h ****         {
  53:../../libDaisy//src/util/FIFO.h ****             buffer_[bufferIn_++] = elementToAdd;
  54:../../libDaisy//src/util/FIFO.h ****             if(bufferIn_ >= bufferSize_)
  55:../../libDaisy//src/util/FIFO.h ****                 bufferIn_ -= bufferSize_;
  56:../../libDaisy//src/util/FIFO.h ****             return true;
  57:../../libDaisy//src/util/FIFO.h ****         }
  58:../../libDaisy//src/util/FIFO.h ****         return false;
  59:../../libDaisy//src/util/FIFO.h ****     }
  60:../../libDaisy//src/util/FIFO.h **** 
  61:../../libDaisy//src/util/FIFO.h ****     /** Adds multiple elements and returns the number of elements that were added */
  62:../../libDaisy//src/util/FIFO.h ****     int PushBack(std::initializer_list<T> valuesToAdd)
  63:../../libDaisy//src/util/FIFO.h ****     {
  64:../../libDaisy//src/util/FIFO.h ****         int numAdded = 0;
  65:../../libDaisy//src/util/FIFO.h ****         for(const auto& v : valuesToAdd)
  66:../../libDaisy//src/util/FIFO.h ****         {
  67:../../libDaisy//src/util/FIFO.h ****             if(IsFull())
  68:../../libDaisy//src/util/FIFO.h ****                 return numAdded;
  69:../../libDaisy//src/util/FIFO.h **** 
  70:../../libDaisy//src/util/FIFO.h ****             PushBack(v);
  71:../../libDaisy//src/util/FIFO.h ****             numAdded++;
  72:../../libDaisy//src/util/FIFO.h ****         }
  73:../../libDaisy//src/util/FIFO.h ****         return numAdded;
  74:../../libDaisy//src/util/FIFO.h ****     }
  75:../../libDaisy//src/util/FIFO.h **** 
  76:../../libDaisy//src/util/FIFO.h ****     /** returns a reference to the last element */
  77:../../libDaisy//src/util/FIFO.h ****     T& Back()
  78:../../libDaisy//src/util/FIFO.h ****     {
  79:../../libDaisy//src/util/FIFO.h ****         if(IsEmpty())
  80:../../libDaisy//src/util/FIFO.h ****             // invalid, but better not pass a temporary T() object as a reference...
  81:../../libDaisy//src/util/FIFO.h ****             return buffer_[0];
  82:../../libDaisy//src/util/FIFO.h ****         int idx = bufferIn_ - 1;
  83:../../libDaisy//src/util/FIFO.h ****         if(idx < 0)
  84:../../libDaisy//src/util/FIFO.h ****             idx += bufferSize_;
  85:../../libDaisy//src/util/FIFO.h ****         return buffer_[idx];
  86:../../libDaisy//src/util/FIFO.h ****     }
  87:../../libDaisy//src/util/FIFO.h **** 
  88:../../libDaisy//src/util/FIFO.h ****     /** returns a reference to the last element */
  89:../../libDaisy//src/util/FIFO.h ****     const T& Back() const
  90:../../libDaisy//src/util/FIFO.h ****     {
  91:../../libDaisy//src/util/FIFO.h ****         if(IsEmpty())
  92:../../libDaisy//src/util/FIFO.h ****             // invalid, but better not pass a temporary T() object as a reference...
  93:../../libDaisy//src/util/FIFO.h ****             return buffer_[0];
  94:../../libDaisy//src/util/FIFO.h ****         int idx = bufferIn_ - 1;
  95:../../libDaisy//src/util/FIFO.h ****         if(idx < 0)
  96:../../libDaisy//src/util/FIFO.h ****             idx += bufferSize_;
  97:../../libDaisy//src/util/FIFO.h ****         return buffer_[idx];
  98:../../libDaisy//src/util/FIFO.h ****     }
  99:../../libDaisy//src/util/FIFO.h **** 
ARM GAS  C:\Users\danig\AppData\Local\Temp\ccN1qAGP.s 			page 21


 100:../../libDaisy//src/util/FIFO.h ****     /** removes and returns an element from the front of the buffer */
 101:../../libDaisy//src/util/FIFO.h ****     T PopFront()
 102:../../libDaisy//src/util/FIFO.h ****     {
 103:../../libDaisy//src/util/FIFO.h ****         if(IsEmpty())
 104:../../libDaisy//src/util/FIFO.h ****             return T();
 105:../../libDaisy//src/util/FIFO.h ****         else
 106:../../libDaisy//src/util/FIFO.h ****         {
 107:../../libDaisy//src/util/FIFO.h ****             const auto result = buffer_[bufferOut_];
 108:../../libDaisy//src/util/FIFO.h ****             bufferOut_++;
 109:../../libDaisy//src/util/FIFO.h ****             if(bufferOut_ >= bufferSize_)
 110:../../libDaisy//src/util/FIFO.h ****                 bufferOut_ -= bufferSize_;
 111:../../libDaisy//src/util/FIFO.h ****             return result;
 112:../../libDaisy//src/util/FIFO.h ****         }
 113:../../libDaisy//src/util/FIFO.h ****     }
 114:../../libDaisy//src/util/FIFO.h **** 
 115:../../libDaisy//src/util/FIFO.h ****     /** returns a copy of the first element */
 116:../../libDaisy//src/util/FIFO.h ****     T& Front()
 117:../../libDaisy//src/util/FIFO.h ****     {
 118:../../libDaisy//src/util/FIFO.h ****         if(IsEmpty())
 119:../../libDaisy//src/util/FIFO.h ****             // invalid, but better not pass a temporary T() object as a reference...
 120:../../libDaisy//src/util/FIFO.h ****             return buffer_[0];
 121:../../libDaisy//src/util/FIFO.h ****         return buffer_[bufferOut_];
 122:../../libDaisy//src/util/FIFO.h ****     }
 123:../../libDaisy//src/util/FIFO.h **** 
 124:../../libDaisy//src/util/FIFO.h ****     /** returns a reference to the first element */
 125:../../libDaisy//src/util/FIFO.h ****     const T& Front() const
 126:../../libDaisy//src/util/FIFO.h ****     {
 127:../../libDaisy//src/util/FIFO.h ****         if(IsEmpty())
 128:../../libDaisy//src/util/FIFO.h ****             // invalid, but better not pass a temporary T() object as a reference...
 129:../../libDaisy//src/util/FIFO.h ****             return buffer_[0];
 130:../../libDaisy//src/util/FIFO.h ****         return buffer_[bufferOut_];
 131:../../libDaisy//src/util/FIFO.h ****     }
 132:../../libDaisy//src/util/FIFO.h **** 
 133:../../libDaisy//src/util/FIFO.h ****     /** Returns true if the buffer contains an element equal to the provided value */
 134:../../libDaisy//src/util/FIFO.h ****     bool Contains(const T& element)
 135:../../libDaisy//src/util/FIFO.h ****     {
 136:../../libDaisy//src/util/FIFO.h ****         auto idx = bufferOut_;
 137:../../libDaisy//src/util/FIFO.h ****         while(idx != bufferIn_)
 138:../../libDaisy//src/util/FIFO.h ****         {
 139:../../libDaisy//src/util/FIFO.h ****             if(buffer_[idx] == element)
 140:../../libDaisy//src/util/FIFO.h ****                 return true;
 141:../../libDaisy//src/util/FIFO.h ****             idx++;
 142:../../libDaisy//src/util/FIFO.h ****             if(idx >= bufferSize_)
 143:../../libDaisy//src/util/FIFO.h ****                 idx -= bufferSize_;
 144:../../libDaisy//src/util/FIFO.h ****         }
 145:../../libDaisy//src/util/FIFO.h ****         return false;
 146:../../libDaisy//src/util/FIFO.h ****     }
 147:../../libDaisy//src/util/FIFO.h **** 
 148:../../libDaisy//src/util/FIFO.h ****     /** Returns the number of elements in the buffer that are equal to the provided value */
 149:../../libDaisy//src/util/FIFO.h ****     size_t CountEqualTo(const T& element)
 150:../../libDaisy//src/util/FIFO.h ****     {
 151:../../libDaisy//src/util/FIFO.h ****         size_t result = 0;
 152:../../libDaisy//src/util/FIFO.h ****         size_t idx    = bufferOut_;
 153:../../libDaisy//src/util/FIFO.h ****         while(idx != bufferIn_)
 154:../../libDaisy//src/util/FIFO.h ****         {
 155:../../libDaisy//src/util/FIFO.h ****             if(buffer_[idx] == element)
 156:../../libDaisy//src/util/FIFO.h ****                 result++;
ARM GAS  C:\Users\danig\AppData\Local\Temp\ccN1qAGP.s 			page 22


 157:../../libDaisy//src/util/FIFO.h ****             idx++;
 158:../../libDaisy//src/util/FIFO.h ****             if(idx >= bufferSize_)
 159:../../libDaisy//src/util/FIFO.h ****                 idx -= bufferSize_;
 160:../../libDaisy//src/util/FIFO.h ****         }
 161:../../libDaisy//src/util/FIFO.h ****         return result;
 162:../../libDaisy//src/util/FIFO.h ****     }
 163:../../libDaisy//src/util/FIFO.h **** 
 164:../../libDaisy//src/util/FIFO.h ****     /** returns true, if the buffer is empty */
 165:../../libDaisy//src/util/FIFO.h ****     bool IsEmpty() const { return bufferIn_ == bufferOut_; }
 166:../../libDaisy//src/util/FIFO.h **** 
 167:../../libDaisy//src/util/FIFO.h ****     /** returns true, if the buffer is Full */
 168:../../libDaisy//src/util/FIFO.h ****     bool IsFull() const { return GetNumElements() == bufferSize_ - 1; }
 169:../../libDaisy//src/util/FIFO.h **** 
 170:../../libDaisy//src/util/FIFO.h ****     /** returns the number of elements in the buffer */
 171:../../libDaisy//src/util/FIFO.h ****     size_t GetNumElements() const
 172:../../libDaisy//src/util/FIFO.h ****     {
 173:../../libDaisy//src/util/FIFO.h ****         int32_t numElements = bufferIn_ - bufferOut_;
 174:../../libDaisy//src/util/FIFO.h ****         if(numElements < 0)
 175:../../libDaisy//src/util/FIFO.h ****             numElements += bufferSize_;
 176:../../libDaisy//src/util/FIFO.h ****         return size_t(numElements);
 177:../../libDaisy//src/util/FIFO.h ****     }
 178:../../libDaisy//src/util/FIFO.h **** 
 179:../../libDaisy//src/util/FIFO.h ****     /** inserts an element "idx" positions behind the first element and returns true if successful 
 180:../../libDaisy//src/util/FIFO.h ****     bool Insert(size_t idx, const T& element)
 181:../../libDaisy//src/util/FIFO.h ****     {
 182:../../libDaisy//src/util/FIFO.h ****         if(idx > GetNumElements())
 183:../../libDaisy//src/util/FIFO.h ****             return false;
 184:../../libDaisy//src/util/FIFO.h ****         if(IsFull())
 185:../../libDaisy//src/util/FIFO.h ****             return false;
 186:../../libDaisy//src/util/FIFO.h ****         if(idx == GetNumElements())
 187:../../libDaisy//src/util/FIFO.h ****         {
 188:../../libDaisy//src/util/FIFO.h ****             PushBack(element);
 189:../../libDaisy//src/util/FIFO.h ****             return true;
 190:../../libDaisy//src/util/FIFO.h ****         }
 191:../../libDaisy//src/util/FIFO.h ****         // copy last element
 192:../../libDaisy//src/util/FIFO.h ****         PushBack(Back());
 193:../../libDaisy//src/util/FIFO.h ****         // move remaining elements: n => n+1
 194:../../libDaisy//src/util/FIFO.h ****         for(int i = GetNumElements() - 2; i > int(idx); i--)
 195:../../libDaisy//src/util/FIFO.h ****             (*this)[i] = (*this)[i - 1];
 196:../../libDaisy//src/util/FIFO.h ****         // insert element
 197:../../libDaisy//src/util/FIFO.h ****         (*this)[idx] = element;
 198:../../libDaisy//src/util/FIFO.h ****         return true;
 199:../../libDaisy//src/util/FIFO.h ****     }
 200:../../libDaisy//src/util/FIFO.h **** 
 201:../../libDaisy//src/util/FIFO.h ****     /** removes the element "idx" positions behind the first element
 202:../../libDaisy//src/util/FIFO.h ****      *  and returns true if successful */
 203:../../libDaisy//src/util/FIFO.h ****     bool Remove(size_t idx)
 204:../../libDaisy//src/util/FIFO.h ****     {
 205:../../libDaisy//src/util/FIFO.h ****         if(idx >= GetNumElements())
 206:../../libDaisy//src/util/FIFO.h ****             return false;
 207:../../libDaisy//src/util/FIFO.h **** 
 208:../../libDaisy//src/util/FIFO.h ****         size_t index = bufferOut_ + idx;
 209:../../libDaisy//src/util/FIFO.h ****         if(index >= bufferSize_)
 210:../../libDaisy//src/util/FIFO.h ****             index -= bufferSize_;
 211:../../libDaisy//src/util/FIFO.h ****         size_t nextIndex = index + 1;
 212:../../libDaisy//src/util/FIFO.h ****         if(nextIndex >= bufferSize_)
 213:../../libDaisy//src/util/FIFO.h ****             nextIndex -= bufferSize_;
ARM GAS  C:\Users\danig\AppData\Local\Temp\ccN1qAGP.s 			page 23


 214:../../libDaisy//src/util/FIFO.h **** 
 215:../../libDaisy//src/util/FIFO.h ****         while(nextIndex != bufferIn_)
 216:../../libDaisy//src/util/FIFO.h ****         {
 217:../../libDaisy//src/util/FIFO.h ****             buffer_[index] = buffer_[nextIndex];
 218:../../libDaisy//src/util/FIFO.h ****             index++;
 219:../../libDaisy//src/util/FIFO.h ****             nextIndex++;
 220:../../libDaisy//src/util/FIFO.h ****             if(index >= bufferSize_)
 221:../../libDaisy//src/util/FIFO.h ****                 index -= bufferSize_;
 222:../../libDaisy//src/util/FIFO.h ****             if(nextIndex >= bufferSize_)
 223:../../libDaisy//src/util/FIFO.h ****                 nextIndex -= bufferSize_;
 224:../../libDaisy//src/util/FIFO.h ****         }
 225:../../libDaisy//src/util/FIFO.h **** 
 226:../../libDaisy//src/util/FIFO.h ****         int32_t nextBufferIn = int32_t(bufferIn_) - 1;
 227:../../libDaisy//src/util/FIFO.h ****         if(nextBufferIn < 0)
 228:../../libDaisy//src/util/FIFO.h ****             nextBufferIn += bufferSize_;
 229:../../libDaisy//src/util/FIFO.h ****         bufferIn_ = size_t(nextBufferIn);
 230:../../libDaisy//src/util/FIFO.h **** 
 231:../../libDaisy//src/util/FIFO.h ****         return true;
 232:../../libDaisy//src/util/FIFO.h ****     }
 233:../../libDaisy//src/util/FIFO.h **** 
 234:../../libDaisy//src/util/FIFO.h ****     /** removes all elements from the buffer for which
 235:../../libDaisy//src/util/FIFO.h ****         (buffer(index) == element) returns true and returns the number of
 236:../../libDaisy//src/util/FIFO.h ****         elements that were removed. */
 237:../../libDaisy//src/util/FIFO.h ****     size_t RemoveAllEqualTo(const T& element)
 238:../../libDaisy//src/util/FIFO.h ****     {
 239:../../libDaisy//src/util/FIFO.h ****         size_t numRemoved = 0;
 240:../../libDaisy//src/util/FIFO.h ****         int    idx        = GetNumElements() - 1;
 241:../../libDaisy//src/util/FIFO.h ****         while(idx >= 0)
 242:../../libDaisy//src/util/FIFO.h ****         {
 243:../../libDaisy//src/util/FIFO.h ****             if((*this)[idx] == element)
 244:../../libDaisy//src/util/FIFO.h ****             {
 245:../../libDaisy//src/util/FIFO.h ****                 numRemoved++;
 246:../../libDaisy//src/util/FIFO.h ****                 Remove(idx);
 247:../../libDaisy//src/util/FIFO.h ****                 // was that the last element?
 248:../../libDaisy//src/util/FIFO.h ****                 if(idx == int(GetNumElements()) - 1)
 249:../../libDaisy//src/util/FIFO.h ****                     idx--;
 250:../../libDaisy//src/util/FIFO.h ****             }
 251:../../libDaisy//src/util/FIFO.h ****             else
 252:../../libDaisy//src/util/FIFO.h ****                 idx--;
 253:../../libDaisy//src/util/FIFO.h ****         }
 254:../../libDaisy//src/util/FIFO.h ****         return numRemoved;
 255:../../libDaisy//src/util/FIFO.h ****     }
 256:../../libDaisy//src/util/FIFO.h **** 
 257:../../libDaisy//src/util/FIFO.h ****     /** returns the element "idx" positions behind the first element */
 258:../../libDaisy//src/util/FIFO.h ****     T& operator[](size_t idx)
 259:../../libDaisy//src/util/FIFO.h ****     {
 260:../../libDaisy//src/util/FIFO.h ****         if(idx >= GetNumElements())
 261:../../libDaisy//src/util/FIFO.h ****             // invalid, but better not pass a temporary T() object as a reference...
 262:../../libDaisy//src/util/FIFO.h ****             return buffer_[0];
 263:../../libDaisy//src/util/FIFO.h **** 
 264:../../libDaisy//src/util/FIFO.h ****         size_t index = bufferOut_ + idx;
 265:../../libDaisy//src/util/FIFO.h ****         if(index >= bufferSize_)
 266:../../libDaisy//src/util/FIFO.h ****             index -= bufferSize_;
 267:../../libDaisy//src/util/FIFO.h ****         return buffer_[index];
 268:../../libDaisy//src/util/FIFO.h ****     }
 269:../../libDaisy//src/util/FIFO.h **** 
 270:../../libDaisy//src/util/FIFO.h ****     /** returns the element "idx" positions behind the first element */
ARM GAS  C:\Users\danig\AppData\Local\Temp\ccN1qAGP.s 			page 24


 271:../../libDaisy//src/util/FIFO.h ****     const T& operator[](size_t idx) const
 272:../../libDaisy//src/util/FIFO.h ****     {
 273:../../libDaisy//src/util/FIFO.h ****         if(idx >= GetNumElements())
 274:../../libDaisy//src/util/FIFO.h ****             // invalid, but better not pass a temporary T() object as a reference...
 275:../../libDaisy//src/util/FIFO.h ****             return buffer_[0];
 276:../../libDaisy//src/util/FIFO.h **** 
 277:../../libDaisy//src/util/FIFO.h ****         size_t index = bufferOut_ + idx;
 278:../../libDaisy//src/util/FIFO.h ****         if(index >= bufferSize_)
 279:../../libDaisy//src/util/FIFO.h ****             index -= bufferSize_;
 280:../../libDaisy//src/util/FIFO.h ****         return buffer_[index];
 281:../../libDaisy//src/util/FIFO.h ****     }
 282:../../libDaisy//src/util/FIFO.h **** 
 283:../../libDaisy//src/util/FIFO.h ****     /** returns the total capacity */
 284:../../libDaisy//src/util/FIFO.h ****     size_t GetCapacity() const { return bufferSize_ - 1; }
 285:../../libDaisy//src/util/FIFO.h **** 
 286:../../libDaisy//src/util/FIFO.h ****   private:
 287:../../libDaisy//src/util/FIFO.h ****     FIFOBase(const FIFOBase<T>&) {} // non copyable
 288:../../libDaisy//src/util/FIFO.h **** 
 289:../../libDaisy//src/util/FIFO.h ****   private:
 290:../../libDaisy//src/util/FIFO.h ****     T*           buffer_;
 291:../../libDaisy//src/util/FIFO.h ****     const size_t bufferSize_;
 292:../../libDaisy//src/util/FIFO.h ****     size_t       bufferIn_;
 293:../../libDaisy//src/util/FIFO.h ****     size_t       bufferOut_;
 294:../../libDaisy//src/util/FIFO.h **** };
 295:../../libDaisy//src/util/FIFO.h **** 
 296:../../libDaisy//src/util/FIFO.h **** /** A simple FIFO ring buffer with a fixed size. */
 297:../../libDaisy//src/util/FIFO.h **** template <typename T, size_t capacity>
 298:../../libDaisy//src/util/FIFO.h **** class FIFO : public FIFOBase<T>
 217              		.loc 16 298 7 view .LVU30
 218              	.LBB497:
 219              	.LBI497:
  42:../../libDaisy//src/util/FIFO.h **** 
 220              		.loc 16 42 5 view .LVU31
  42:../../libDaisy//src/util/FIFO.h **** 
 221              		.loc 16 42 5 is_stmt 0 view .LVU32
 222              	.LBE497:
 223              	.LBE496:
 224              	.LBB498:
 225              	.LBI498:
 226              		.loc 16 298 7 is_stmt 1 view .LVU33
 227              	.LBB499:
 228              	.LBI499:
  42:../../libDaisy//src/util/FIFO.h **** 
 229              		.loc 16 42 5 view .LVU34
  42:../../libDaisy//src/util/FIFO.h **** 
 230              		.loc 16 42 5 is_stmt 0 view .LVU35
 231              	.LBE499:
 232              	.LBE498:
 233              	.LBE495:
 234              	.LBB500:
 235              	.LBI500:
 236              		.loc 15 39 5 is_stmt 1 view .LVU36
 237              	.LBB501:
 238              	.LBI501:
 239              		.loc 16 298 7 view .LVU37
 240              	.LBB502:
 241              	.LBI502:
ARM GAS  C:\Users\danig\AppData\Local\Temp\ccN1qAGP.s 			page 25


  42:../../libDaisy//src/util/FIFO.h **** 
 242              		.loc 16 42 5 view .LVU38
  42:../../libDaisy//src/util/FIFO.h **** 
 243              		.loc 16 42 5 is_stmt 0 view .LVU39
 244              	.LBE502:
 245              	.LBE501:
 246              	.LBB503:
 247              	.LBI503:
 248              		.loc 16 298 7 is_stmt 1 view .LVU40
 249              	.LBB504:
 250              	.LBI504:
  42:../../libDaisy//src/util/FIFO.h **** 
 251              		.loc 16 42 5 view .LVU41
  42:../../libDaisy//src/util/FIFO.h **** 
 252              		.loc 16 42 5 is_stmt 0 view .LVU42
 253              	.LBE504:
 254              	.LBE503:
 255              	.LBE500:
 256              	.LBB505:
 257              	.LBI505:
 258              		.loc 15 39 5 is_stmt 1 view .LVU43
 259              	.LBB506:
 260              	.LBI506:
 261              		.loc 16 298 7 view .LVU44
 262              	.LBB507:
 263              	.LBI507:
  42:../../libDaisy//src/util/FIFO.h **** 
 264              		.loc 16 42 5 view .LVU45
  42:../../libDaisy//src/util/FIFO.h **** 
 265              		.loc 16 42 5 is_stmt 0 view .LVU46
 266              	.LBE507:
 267              	.LBE506:
 268              	.LBB508:
 269              	.LBI508:
 270              		.loc 16 298 7 is_stmt 1 view .LVU47
 271              	.LBB509:
 272              	.LBI509:
  42:../../libDaisy//src/util/FIFO.h **** 
 273              		.loc 16 42 5 view .LVU48
  42:../../libDaisy//src/util/FIFO.h **** 
 274              		.loc 16 42 5 is_stmt 0 view .LVU49
 275              	.LBE509:
 276              	.LBE508:
 277              	.LBE505:
 278              	.LBB510:
 279              	.LBI510:
 280              		.loc 15 39 5 is_stmt 1 view .LVU50
 281              	.LBB511:
 282              	.LBI511:
 283              		.loc 16 298 7 view .LVU51
 284              	.LBB512:
 285              	.LBI512:
  42:../../libDaisy//src/util/FIFO.h **** 
 286              		.loc 16 42 5 view .LVU52
  42:../../libDaisy//src/util/FIFO.h **** 
 287              		.loc 16 42 5 is_stmt 0 view .LVU53
 288              	.LBE512:
ARM GAS  C:\Users\danig\AppData\Local\Temp\ccN1qAGP.s 			page 26


 289              	.LBE511:
 290              	.LBB513:
 291              	.LBI513:
 292              		.loc 16 298 7 is_stmt 1 view .LVU54
 293              	.LBB514:
 294              	.LBI514:
  42:../../libDaisy//src/util/FIFO.h **** 
 295              		.loc 16 42 5 view .LVU55
  42:../../libDaisy//src/util/FIFO.h **** 
 296              		.loc 16 42 5 is_stmt 0 view .LVU56
 297              	.LBE514:
 298              	.LBE513:
 299              	.LBE510:
 300              		.loc 14 14 7 view .LVU57
 301 0000 7047     		bx	lr
 302              		.cfi_endproc
 303              	.LFE2833:
 305              		.weak	_ZN11AudioPlayerD1Ev
 306              		.thumb_set _ZN11AudioPlayerD1Ev,_ZN11AudioPlayerD2Ev
 307              		.section	.text._Z13AudioCallbackPKPKfPPfj,"ax",%progbits
 308              		.align	1
 309              		.global	_Z13AudioCallbackPKPKfPPfj
 310              		.syntax unified
 311              		.thumb
 312              		.thumb_func
 313              		.fpu fpv5-d16
 315              	_Z13AudioCallbackPKPKfPPfj:
 316              	.LVL6:
 317              	.LFB2797:
 318              		.file 17 "Main.cpp"
   1:Main.cpp      **** #include "daisy_seed.h"
   2:Main.cpp      **** #include "Display.h"
   3:Main.cpp      **** #include "Setlist.h"
   4:Main.cpp      **** #include "AudioPlayer.h"
   5:Main.cpp      **** #include "Metronome.h"
   6:Main.cpp      **** #include "PadBrowser.h"
   7:Main.cpp      **** #include "EncoderMode.h"
   8:Main.cpp      **** 
   9:Main.cpp      **** using namespace daisy;
  10:Main.cpp      **** 
  11:Main.cpp      **** #define MAX_PADS 24
  12:Main.cpp      **** 
  13:Main.cpp      **** DaisySeed hw;
  14:Main.cpp      **** 
  15:Main.cpp      **** Switch tapButton;
  16:Main.cpp      **** Switch nextButton;
  17:Main.cpp      **** Switch playStopButton;
  18:Main.cpp      **** Switch clickMuteButton;
  19:Main.cpp      **** 
  20:Main.cpp      **** Encoder encoder;
  21:Main.cpp      **** 
  22:Main.cpp      **** EncoderMode encoderMode = EncoderMode::BPM;
  23:Main.cpp      **** 
  24:Main.cpp      **** 
  25:Main.cpp      **** char padFiles[MAX_PADS][256];
  26:Main.cpp      **** char padNames[MAX_PADS][128];
  27:Main.cpp      **** int  padCount    = 0;
ARM GAS  C:\Users\danig\AppData\Local\Temp\ccN1qAGP.s 			page 27


  28:Main.cpp      **** int  selectedPad = 0;
  29:Main.cpp      **** 
  30:Main.cpp      **** unsigned int encoderPressTime  = 0;
  31:Main.cpp      **** bool         encoderWasPressed = false;
  32:Main.cpp      **** bool         inPadBrowser      = false;
  33:Main.cpp      **** unsigned int lastDisplayUpdate = 0;
  34:Main.cpp      **** unsigned int lastBeatTime      = 0;
  35:Main.cpp      **** int          beatCount         = 0;
  36:Main.cpp      **** 
  37:Main.cpp      **** const char* currentKey     = "";
  38:Main.cpp      **** const char* currentPadName = "";
  39:Main.cpp      **** const char* nextKey        = "";
  40:Main.cpp      **** const char* nextPadName    = "";
  41:Main.cpp      **** 
  42:Main.cpp      **** // LEDs
  43:Main.cpp      **** GPIO ledBpm;
  44:Main.cpp      **** GPIO ledPad;
  45:Main.cpp      **** 
  46:Main.cpp      **** Metronome   metronome;
  47:Main.cpp      **** Display     display(hw);
  48:Main.cpp      **** SdHandler   sd(hw);
  49:Main.cpp      **** Setlist     setlist(sd);
  50:Main.cpp      **** AudioPlayer audioPlayer;
  51:Main.cpp      **** PadBrowser  padBrowser;
  52:Main.cpp      **** 
  53:Main.cpp      **** bool WasCrossfading_;
  54:Main.cpp      **** 
  55:Main.cpp      **** // ADC channel indices
  56:Main.cpp      **** static constexpr int ADC_PAD_VOL   = 0; // A0 — pin 15
  57:Main.cpp      **** static constexpr int ADC_CLICK_VOL = 1; // A1 — pin 16
  58:Main.cpp      **** 
  59:Main.cpp      **** void AudioCallback(AudioHandle::InputBuffer  in,
  60:Main.cpp      ****                    AudioHandle::OutputBuffer out,
  61:Main.cpp      ****                    size_t                    size)
  62:Main.cpp      **** {
 319              		.loc 17 62 1 is_stmt 1 view -0
 320              		.cfi_startproc
 321              		@ args = 0, pretend = 0, frame = 8
 322              		@ frame_needed = 0, uses_anonymous_args = 0
  63:Main.cpp      ****     for(size_t i = 0; i < size; i++)
 323              		.loc 17 63 5 view .LVU59
  62:Main.cpp      ****     for(size_t i = 0; i < size; i++)
 324              		.loc 17 62 1 is_stmt 0 view .LVU60
 325 0000 73B5     		push	{r0, r1, r4, r5, r6, lr}
 326              		.cfi_def_cfa_offset 24
 327              		.cfi_offset 4, -16
 328              		.cfi_offset 5, -12
 329              		.cfi_offset 6, -8
 330              		.cfi_offset 14, -4
  62:Main.cpp      ****     for(size_t i = 0; i < size; i++)
 331              		.loc 17 62 1 view .LVU61
 332 0002 0D46     		mov	r5, r1
 333 0004 1646     		mov	r6, r2
 334              	.LBB515:
 335              		.loc 17 63 16 view .LVU62
 336 0006 0024     		movs	r4, #0
 337              	.LVL7:
ARM GAS  C:\Users\danig\AppData\Local\Temp\ccN1qAGP.s 			page 28


 338              	.L9:
 339              		.loc 17 63 25 is_stmt 1 discriminator 3 view .LVU63
 340 0008 B442     		cmp	r4, r6
 341 000a 10D0     		beq	.L7
 342              	.LBB516:
  64:Main.cpp      ****     {
  65:Main.cpp      ****         float padOut, clickOut;
 343              		.loc 17 65 9 discriminator 2 view .LVU64
  66:Main.cpp      ****         audioPlayer.Process(padOut, clickOut);
 344              		.loc 17 66 9 discriminator 2 view .LVU65
 345              		.loc 17 66 28 is_stmt 0 discriminator 2 view .LVU66
 346 000c 01AA     		add	r2, sp, #4
 347 000e 6946     		mov	r1, sp
 348 0010 0848     		ldr	r0, .L10
 349 0012 FFF7FEFF 		bl	_ZN11AudioPlayer7ProcessERfS0_
 350              	.LVL8:
  67:Main.cpp      ****         out[0][i] = padOut;
 351              		.loc 17 67 9 is_stmt 1 discriminator 2 view .LVU67
 352              		.loc 17 67 19 is_stmt 0 discriminator 2 view .LVU68
 353 0016 2B68     		ldr	r3, [r5]
 354 0018 009A     		ldr	r2, [sp]	@ float
 355 001a 03EB8403 		add	r3, r3, r4, lsl #2
 356 001e 1A60     		str	r2, [r3]	@ float
  68:Main.cpp      ****         out[1][i] = clickOut;
 357              		.loc 17 68 9 is_stmt 1 discriminator 2 view .LVU69
 358              		.loc 17 68 19 is_stmt 0 discriminator 2 view .LVU70
 359 0020 6B68     		ldr	r3, [r5, #4]
 360 0022 019A     		ldr	r2, [sp, #4]	@ float
 361 0024 03EB8403 		add	r3, r3, r4, lsl #2
 362              	.LBE516:
  63:Main.cpp      ****     {
 363              		.loc 17 63 5 discriminator 2 view .LVU71
 364 0028 0134     		adds	r4, r4, #1
 365              	.LVL9:
 366              	.LBB517:
 367              		.loc 17 68 19 discriminator 2 view .LVU72
 368 002a 1A60     		str	r2, [r3]	@ float
 369              	.LBE517:
  63:Main.cpp      ****     {
 370              		.loc 17 63 5 is_stmt 1 discriminator 2 view .LVU73
 371              	.LVL10:
  63:Main.cpp      ****     {
 372              		.loc 17 63 5 is_stmt 0 discriminator 2 view .LVU74
 373 002c ECE7     		b	.L9
 374              	.L7:
  63:Main.cpp      ****     {
 375              		.loc 17 63 5 discriminator 2 view .LVU75
 376              	.LBE515:
  69:Main.cpp      ****     }
  70:Main.cpp      **** }
 377              		.loc 17 70 1 view .LVU76
 378 002e 02B0     		add	sp, sp, #8
 379              		.cfi_def_cfa_offset 16
 380              		@ sp needed
 381 0030 70BD     		pop	{r4, r5, r6, pc}
 382              	.LVL11:
 383              	.L11:
ARM GAS  C:\Users\danig\AppData\Local\Temp\ccN1qAGP.s 			page 29


 384              		.loc 17 70 1 view .LVU77
 385 0032 00BF     		.align	2
 386              	.L10:
 387 0034 00000000 		.word	audioPlayer
 388              		.cfi_endproc
 389              	.LFE2797:
 391              		.section	.text._ZN5daisy4GPIO6ConfigC2Ev,"axG",%progbits,_ZN5daisy4GPIO6ConfigC5Ev,comdat
 392              		.align	1
 393              		.weak	_ZN5daisy4GPIO6ConfigC2Ev
 394              		.syntax unified
 395              		.thumb
 396              		.thumb_func
 397              		.fpu fpv5-d16
 399              	_ZN5daisy4GPIO6ConfigC2Ev:
 400              	.LVL12:
 401              	.LFB612:
 402              		.file 18 "../../libDaisy//src/per/gpio.h"
   1:../../libDaisy//src/per/gpio.h **** #pragma once
   2:../../libDaisy//src/per/gpio.h **** #ifndef DSY_GPIO_H
   3:../../libDaisy//src/per/gpio.h **** #define DSY_GPIO_H
   4:../../libDaisy//src/per/gpio.h **** #include "daisy_core.h"
   5:../../libDaisy//src/per/gpio.h **** 
   6:../../libDaisy//src/per/gpio.h **** #ifdef __cplusplus
   7:../../libDaisy//src/per/gpio.h **** 
   8:../../libDaisy//src/per/gpio.h **** namespace daisy
   9:../../libDaisy//src/per/gpio.h **** {
  10:../../libDaisy//src/per/gpio.h **** /** @brief General Purpose I/O control 
  11:../../libDaisy//src/per/gpio.h ****  *  @details peripheral control over a single GPIO
  12:../../libDaisy//src/per/gpio.h ****  *  @ingroup peripheral
  13:../../libDaisy//src/per/gpio.h ****  *   
  14:../../libDaisy//src/per/gpio.h ****  *  Button Input (with internal Pullup resistor)
  15:../../libDaisy//src/per/gpio.h ****  *  @include GPIO_Input.cpp 
  16:../../libDaisy//src/per/gpio.h ****  * 
  17:../../libDaisy//src/per/gpio.h ****  *  Output Example (perfect for blinking an LED)
  18:../../libDaisy//src/per/gpio.h ****  *  @include GPIO_Output.cpp
  19:../../libDaisy//src/per/gpio.h ****  * 
  20:../../libDaisy//src/per/gpio.h **** */
  21:../../libDaisy//src/per/gpio.h **** class GPIO
  22:../../libDaisy//src/per/gpio.h **** {
  23:../../libDaisy//src/per/gpio.h ****   public:
  24:../../libDaisy//src/per/gpio.h ****     /** @brief Mode of operation for the specified GPIO */
  25:../../libDaisy//src/per/gpio.h ****     enum class Mode
  26:../../libDaisy//src/per/gpio.h ****     {
  27:../../libDaisy//src/per/gpio.h ****         INPUT,      /**< Input for reading state of pin */
  28:../../libDaisy//src/per/gpio.h ****         OUTPUT,     /**< Output w/ push-pull configuration */
  29:../../libDaisy//src/per/gpio.h ****         OPEN_DRAIN, /**< Output w/ open-drain configuration */
  30:../../libDaisy//src/per/gpio.h ****         ANALOG,     /**< Analog for connection to ADC or DAC peripheral */
  31:../../libDaisy//src/per/gpio.h ****     };
  32:../../libDaisy//src/per/gpio.h **** 
  33:../../libDaisy//src/per/gpio.h ****     /** @brief Configures whether an internal Pull up or Pull down resistor is used. 
  34:../../libDaisy//src/per/gpio.h ****      *  
  35:../../libDaisy//src/per/gpio.h ****      * Internal Pull up/down resistors are typically 40k ohms, and will be between
  36:../../libDaisy//src/per/gpio.h ****      * 30k and 50k
  37:../../libDaisy//src/per/gpio.h ****      * 
  38:../../libDaisy//src/per/gpio.h ****      * When the Pin is configured in Analog mode, the pull up/down resistors are
  39:../../libDaisy//src/per/gpio.h ****      * disabled by hardware. 
  40:../../libDaisy//src/per/gpio.h ****      */
ARM GAS  C:\Users\danig\AppData\Local\Temp\ccN1qAGP.s 			page 30


  41:../../libDaisy//src/per/gpio.h ****     enum class Pull
  42:../../libDaisy//src/per/gpio.h ****     {
  43:../../libDaisy//src/per/gpio.h ****         NOPULL,   /**< No pull up resistor */
  44:../../libDaisy//src/per/gpio.h ****         PULLUP,   /**< Internal pull up enabled */
  45:../../libDaisy//src/per/gpio.h ****         PULLDOWN, /**< Internal pull down enabled*/
  46:../../libDaisy//src/per/gpio.h ****     };
  47:../../libDaisy//src/per/gpio.h **** 
  48:../../libDaisy//src/per/gpio.h ****     /** @brief Output speed controls the drive strength, and slew rate of the pin */
  49:../../libDaisy//src/per/gpio.h ****     enum class Speed
  50:../../libDaisy//src/per/gpio.h ****     {
  51:../../libDaisy//src/per/gpio.h ****         LOW,
  52:../../libDaisy//src/per/gpio.h ****         MEDIUM,
  53:../../libDaisy//src/per/gpio.h ****         HIGH,
  54:../../libDaisy//src/per/gpio.h ****         VERY_HIGH,
  55:../../libDaisy//src/per/gpio.h ****     };
  56:../../libDaisy//src/per/gpio.h **** 
  57:../../libDaisy//src/per/gpio.h ****     /** @brief Configuration for a given GPIO */
  58:../../libDaisy//src/per/gpio.h ****     struct Config
  59:../../libDaisy//src/per/gpio.h ****     {
  60:../../libDaisy//src/per/gpio.h ****         Pin   pin;
  61:../../libDaisy//src/per/gpio.h ****         Mode  mode;
  62:../../libDaisy//src/per/gpio.h ****         Pull  pull;
  63:../../libDaisy//src/per/gpio.h ****         Speed speed;
  64:../../libDaisy//src/per/gpio.h **** 
  65:../../libDaisy//src/per/gpio.h ****         /** Constructor with no arguments will prepare an invalid GPIO set as
  66:../../libDaisy//src/per/gpio.h ****          *  an input, with no pullup. 
  67:../../libDaisy//src/per/gpio.h ****          */
  68:../../libDaisy//src/per/gpio.h ****         Config()
 403              		.loc 18 68 9 is_stmt 1 view -0
 404              		.cfi_startproc
 405              		@ args = 0, pretend = 0, frame = 0
 406              		@ frame_needed = 0, uses_anonymous_args = 0
 407              		@ link register save eliminated.
 408              	.LBB518:
 409              	.LBB519:
 410              	.LBI519:
 411              		.file 19 "../../libDaisy//src/daisy_core.h"
   1:../../libDaisy//src/daisy_core.h **** #pragma once
   2:../../libDaisy//src/daisy_core.h **** #ifndef DSY_CORE_HW_H
   3:../../libDaisy//src/daisy_core.h **** #define DSY_CORE_HW_H /**< & */
   4:../../libDaisy//src/daisy_core.h **** #include <stdint.h>
   5:../../libDaisy//src/daisy_core.h **** #include <stdlib.h>
   6:../../libDaisy//src/daisy_core.h **** 
   7:../../libDaisy//src/daisy_core.h **** #if defined(_MSC_VER)
   8:../../libDaisy//src/daisy_core.h **** #define FORCE_INLINE __forceinline /**< & */
   9:../../libDaisy//src/daisy_core.h **** #elif defined(__clang__)
  10:../../libDaisy//src/daisy_core.h **** #define FORCE_INLINE inline __attribute__((always_inline)) /**< & */
  11:../../libDaisy//src/daisy_core.h **** #pragma clang diagnostic ignored "-Wduplicate-decl-specifier"
  12:../../libDaisy//src/daisy_core.h **** #elif defined(__GNUC__)
  13:../../libDaisy//src/daisy_core.h **** #define FORCE_INLINE inline __attribute__((always_inline)) /**< & */
  14:../../libDaisy//src/daisy_core.h **** #else
  15:../../libDaisy//src/daisy_core.h **** #error unknown compiler
  16:../../libDaisy//src/daisy_core.h **** #endif
  17:../../libDaisy//src/daisy_core.h **** 
  18:../../libDaisy//src/daisy_core.h **** /** @addtogroup utility
  19:../../libDaisy//src/daisy_core.h ****     @{
  20:../../libDaisy//src/daisy_core.h **** */
ARM GAS  C:\Users\danig\AppData\Local\Temp\ccN1qAGP.s 			page 31


  21:../../libDaisy//src/daisy_core.h **** 
  22:../../libDaisy//src/daisy_core.h **** /** Macro for area of memory that is configured as cacheless
  23:../../libDaisy//src/daisy_core.h **** This should be used primarily for DMA buffers, and the like.
  24:../../libDaisy//src/daisy_core.h **** */
  25:../../libDaisy//src/daisy_core.h **** #define DMA_BUFFER_MEM_SECTION __attribute__((section(".sram1_bss")))
  26:../../libDaisy//src/daisy_core.h **** /** 
  27:../../libDaisy//src/daisy_core.h **** THE DTCM RAM section is also non-cached. However, is not suitable 
  28:../../libDaisy//src/daisy_core.h **** for DMA transfers. Performance is on par with internal SRAM w/ 
  29:../../libDaisy//src/daisy_core.h **** cache enabled.
  30:../../libDaisy//src/daisy_core.h **** */
  31:../../libDaisy//src/daisy_core.h **** #define DTCM_MEM_SECTION __attribute__((section(".dtcmram_bss")))
  32:../../libDaisy//src/daisy_core.h **** 
  33:../../libDaisy//src/daisy_core.h **** #define FBIPMAX 0.999985f             /**< close to 1.0f-LSB at 16 bit */
  34:../../libDaisy//src/daisy_core.h **** #define FBIPMIN (-FBIPMAX)            /**< - (1 - LSB) */
  35:../../libDaisy//src/daisy_core.h **** #define U82F_SCALE 0.0078740f         /**< 1 / 127 */
  36:../../libDaisy//src/daisy_core.h **** #define F2U8_SCALE 127.0f             /**< 128 - 1 */
  37:../../libDaisy//src/daisy_core.h **** #define S82F_SCALE 0.0078125f         /**< 1 / (2**7) */
  38:../../libDaisy//src/daisy_core.h **** #define F2S8_SCALE 127.0f             /**< (2 ** 7) - 1 */
  39:../../libDaisy//src/daisy_core.h **** #define S162F_SCALE 3.0517578125e-05f /**< 1 / (2** 15) */
  40:../../libDaisy//src/daisy_core.h **** #define F2S16_SCALE 32767.0f          /**< (2 ** 15) - 1 */
  41:../../libDaisy//src/daisy_core.h **** #define F2S24_SCALE 8388608.0f        /**< 2 ** 23 */
  42:../../libDaisy//src/daisy_core.h **** #define S242F_SCALE 1.192092896e-07f  /**< 1 / (2 ** 23) */
  43:../../libDaisy//src/daisy_core.h **** #define S24SIGN 0x800000              /**< 2 ** 23 */
  44:../../libDaisy//src/daisy_core.h **** #define S322F_SCALE 4.6566129e-10f    /**< 1 / (2** 31) */
  45:../../libDaisy//src/daisy_core.h **** #define F2S32_SCALE 2147483647.f      /**< (2 ** 31) - 1 */
  46:../../libDaisy//src/daisy_core.h **** 
  47:../../libDaisy//src/daisy_core.h **** 
  48:../../libDaisy//src/daisy_core.h **** /** shorthand macro for simplifying the reading of the left 
  49:../../libDaisy//src/daisy_core.h ****  *  channel of a non-interleaved output buffer named out */
  50:../../libDaisy//src/daisy_core.h **** #define OUT_L out[0]
  51:../../libDaisy//src/daisy_core.h **** 
  52:../../libDaisy//src/daisy_core.h **** /** shorthand macro for simplifying the reading of the right 
  53:../../libDaisy//src/daisy_core.h ****  *  channel of a non-interleaved output buffer named out */
  54:../../libDaisy//src/daisy_core.h **** #define OUT_R out[1]
  55:../../libDaisy//src/daisy_core.h **** 
  56:../../libDaisy//src/daisy_core.h **** /** shorthand macro for simplifying the reading of the left 
  57:../../libDaisy//src/daisy_core.h ****  *  channel of a non-interleaved input buffer named in */
  58:../../libDaisy//src/daisy_core.h **** #define IN_L in[0]
  59:../../libDaisy//src/daisy_core.h **** 
  60:../../libDaisy//src/daisy_core.h **** /** shorthand macro for simplifying the reading of the right 
  61:../../libDaisy//src/daisy_core.h ****  *  channel of a non-interleaved input buffer named in */
  62:../../libDaisy//src/daisy_core.h **** #define IN_R in[1]
  63:../../libDaisy//src/daisy_core.h **** 
  64:../../libDaisy//src/daisy_core.h **** /** 
  65:../../libDaisy//src/daisy_core.h ****     Computes cube.
  66:../../libDaisy//src/daisy_core.h ****     \param x Number to be cubed
  67:../../libDaisy//src/daisy_core.h ****     \return x ^ 3
  68:../../libDaisy//src/daisy_core.h **** */
  69:../../libDaisy//src/daisy_core.h **** FORCE_INLINE float cube(float x)
  70:../../libDaisy//src/daisy_core.h **** {
  71:../../libDaisy//src/daisy_core.h ****     return (x * x) * x;
  72:../../libDaisy//src/daisy_core.h **** }
  73:../../libDaisy//src/daisy_core.h **** 
  74:../../libDaisy//src/daisy_core.h **** /** 
  75:../../libDaisy//src/daisy_core.h ****     Converts unsigned 8-bit to float
  76:../../libDaisy//src/daisy_core.h ****     \param x Number to be scaled.
  77:../../libDaisy//src/daisy_core.h ****     \return Scaled number.
ARM GAS  C:\Users\danig\AppData\Local\Temp\ccN1qAGP.s 			page 32


  78:../../libDaisy//src/daisy_core.h **** */
  79:../../libDaisy//src/daisy_core.h **** FORCE_INLINE float u82f(uint8_t x)
  80:../../libDaisy//src/daisy_core.h **** {
  81:../../libDaisy//src/daisy_core.h ****     return ((float)x - 127.f) * U82F_SCALE;
  82:../../libDaisy//src/daisy_core.h **** }
  83:../../libDaisy//src/daisy_core.h **** 
  84:../../libDaisy//src/daisy_core.h **** /**
  85:../../libDaisy//src/daisy_core.h ****     Converts float to unsigned 8-bit
  86:../../libDaisy//src/daisy_core.h **** */
  87:../../libDaisy//src/daisy_core.h **** FORCE_INLINE uint8_t f2u8(float x)
  88:../../libDaisy//src/daisy_core.h **** {
  89:../../libDaisy//src/daisy_core.h ****     x = x <= FBIPMIN ? FBIPMIN : x;
  90:../../libDaisy//src/daisy_core.h ****     x = x >= FBIPMAX ? FBIPMAX : x;
  91:../../libDaisy//src/daisy_core.h ****     return (uint8_t)((x * F2U8_SCALE) + F2U8_SCALE);
  92:../../libDaisy//src/daisy_core.h **** }
  93:../../libDaisy//src/daisy_core.h **** 
  94:../../libDaisy//src/daisy_core.h **** 
  95:../../libDaisy//src/daisy_core.h **** /** 
  96:../../libDaisy//src/daisy_core.h ****     Converts Signed 8-bit to float
  97:../../libDaisy//src/daisy_core.h ****     \param x Number to be scaled.
  98:../../libDaisy//src/daisy_core.h ****     \return Scaled number.
  99:../../libDaisy//src/daisy_core.h **** */
 100:../../libDaisy//src/daisy_core.h **** FORCE_INLINE float s82f(int8_t x)
 101:../../libDaisy//src/daisy_core.h **** {
 102:../../libDaisy//src/daisy_core.h ****     return (float)x * S82F_SCALE;
 103:../../libDaisy//src/daisy_core.h **** }
 104:../../libDaisy//src/daisy_core.h **** 
 105:../../libDaisy//src/daisy_core.h **** /**
 106:../../libDaisy//src/daisy_core.h ****     Converts float to Signed 8-bit
 107:../../libDaisy//src/daisy_core.h **** */
 108:../../libDaisy//src/daisy_core.h **** FORCE_INLINE int8_t f2s8(float x)
 109:../../libDaisy//src/daisy_core.h **** {
 110:../../libDaisy//src/daisy_core.h ****     x = x <= FBIPMIN ? FBIPMIN : x;
 111:../../libDaisy//src/daisy_core.h ****     x = x >= FBIPMAX ? FBIPMAX : x;
 112:../../libDaisy//src/daisy_core.h ****     return (int32_t)(x * F2S8_SCALE);
 113:../../libDaisy//src/daisy_core.h **** }
 114:../../libDaisy//src/daisy_core.h **** 
 115:../../libDaisy//src/daisy_core.h **** /** 
 116:../../libDaisy//src/daisy_core.h ****     Converts Signed 16-bit to float
 117:../../libDaisy//src/daisy_core.h ****     \param x Number to be scaled.
 118:../../libDaisy//src/daisy_core.h ****     \return Scaled number.
 119:../../libDaisy//src/daisy_core.h **** */
 120:../../libDaisy//src/daisy_core.h **** FORCE_INLINE float s162f(int16_t x)
 121:../../libDaisy//src/daisy_core.h **** {
 122:../../libDaisy//src/daisy_core.h ****     return (float)x * S162F_SCALE;
 123:../../libDaisy//src/daisy_core.h **** }
 124:../../libDaisy//src/daisy_core.h **** 
 125:../../libDaisy//src/daisy_core.h **** /**
 126:../../libDaisy//src/daisy_core.h ****     Converts float to Signed 16-bit
 127:../../libDaisy//src/daisy_core.h **** */
 128:../../libDaisy//src/daisy_core.h **** FORCE_INLINE int16_t f2s16(float x)
 129:../../libDaisy//src/daisy_core.h **** {
 130:../../libDaisy//src/daisy_core.h ****     x = x <= FBIPMIN ? FBIPMIN : x;
 131:../../libDaisy//src/daisy_core.h ****     x = x >= FBIPMAX ? FBIPMAX : x;
 132:../../libDaisy//src/daisy_core.h ****     return (int32_t)(x * F2S16_SCALE);
 133:../../libDaisy//src/daisy_core.h **** }
 134:../../libDaisy//src/daisy_core.h **** 
ARM GAS  C:\Users\danig\AppData\Local\Temp\ccN1qAGP.s 			page 33


 135:../../libDaisy//src/daisy_core.h **** /**
 136:../../libDaisy//src/daisy_core.h ****     Converts Signed 24-bit to float
 137:../../libDaisy//src/daisy_core.h ****  */
 138:../../libDaisy//src/daisy_core.h **** FORCE_INLINE float s242f(int32_t x)
 139:../../libDaisy//src/daisy_core.h **** {
 140:../../libDaisy//src/daisy_core.h ****     x = (x ^ S24SIGN) - S24SIGN; //sign extend aka ((x<<8)>>8)
 141:../../libDaisy//src/daisy_core.h ****     return (float)x * S242F_SCALE;
 142:../../libDaisy//src/daisy_core.h **** }
 143:../../libDaisy//src/daisy_core.h **** /**
 144:../../libDaisy//src/daisy_core.h ****     Converts float to Signed 24-bit
 145:../../libDaisy//src/daisy_core.h ****  */
 146:../../libDaisy//src/daisy_core.h **** FORCE_INLINE int32_t f2s24(float x)
 147:../../libDaisy//src/daisy_core.h **** {
 148:../../libDaisy//src/daisy_core.h ****     x = x <= FBIPMIN ? FBIPMIN : x;
 149:../../libDaisy//src/daisy_core.h ****     x = x >= FBIPMAX ? FBIPMAX : x;
 150:../../libDaisy//src/daisy_core.h ****     return (int32_t)(x * F2S24_SCALE);
 151:../../libDaisy//src/daisy_core.h **** }
 152:../../libDaisy//src/daisy_core.h **** 
 153:../../libDaisy//src/daisy_core.h **** /**
 154:../../libDaisy//src/daisy_core.h ****     Converts Signed 32-bit to float
 155:../../libDaisy//src/daisy_core.h ****  */
 156:../../libDaisy//src/daisy_core.h **** FORCE_INLINE float s322f(int32_t x)
 157:../../libDaisy//src/daisy_core.h **** {
 158:../../libDaisy//src/daisy_core.h ****     return (float)x * S322F_SCALE;
 159:../../libDaisy//src/daisy_core.h **** }
 160:../../libDaisy//src/daisy_core.h **** /**
 161:../../libDaisy//src/daisy_core.h ****     Converts float to Signed 24-bit
 162:../../libDaisy//src/daisy_core.h ****  */
 163:../../libDaisy//src/daisy_core.h **** FORCE_INLINE int32_t f2s32(float x)
 164:../../libDaisy//src/daisy_core.h **** {
 165:../../libDaisy//src/daisy_core.h ****     x = x <= FBIPMIN ? FBIPMIN : x;
 166:../../libDaisy//src/daisy_core.h ****     x = x >= FBIPMAX ? FBIPMAX : x;
 167:../../libDaisy//src/daisy_core.h ****     return (int32_t)(x * F2S32_SCALE);
 168:../../libDaisy//src/daisy_core.h **** }
 169:../../libDaisy//src/daisy_core.h **** 
 170:../../libDaisy//src/daisy_core.h **** #ifdef __cplusplus
 171:../../libDaisy//src/daisy_core.h **** 
 172:../../libDaisy//src/daisy_core.h **** namespace daisy
 173:../../libDaisy//src/daisy_core.h **** {
 174:../../libDaisy//src/daisy_core.h **** /** @brief GPIO Port names */
 175:../../libDaisy//src/daisy_core.h **** enum GPIOPort
 176:../../libDaisy//src/daisy_core.h **** {
 177:../../libDaisy//src/daisy_core.h ****     PORTA, /**< Port A */
 178:../../libDaisy//src/daisy_core.h ****     PORTB, /**< Port B */
 179:../../libDaisy//src/daisy_core.h ****     PORTC, /**< Port C */
 180:../../libDaisy//src/daisy_core.h ****     PORTD, /**< Port D */
 181:../../libDaisy//src/daisy_core.h ****     PORTE, /**< Port E */
 182:../../libDaisy//src/daisy_core.h ****     PORTF, /**< Port F */
 183:../../libDaisy//src/daisy_core.h ****     PORTG, /**< Port G */
 184:../../libDaisy//src/daisy_core.h ****     PORTH, /**< Port H */
 185:../../libDaisy//src/daisy_core.h ****     PORTI, /**< Port I */
 186:../../libDaisy//src/daisy_core.h ****     PORTJ, /**< Port J */
 187:../../libDaisy//src/daisy_core.h ****     PORTK, /**< Port K */
 188:../../libDaisy//src/daisy_core.h ****     PORTX, /**< Used as a dummy port to signal an invalid pin. */
 189:../../libDaisy//src/daisy_core.h **** };
 190:../../libDaisy//src/daisy_core.h **** 
 191:../../libDaisy//src/daisy_core.h **** /** @brief representation of hardware port/pin combination */
ARM GAS  C:\Users\danig\AppData\Local\Temp\ccN1qAGP.s 			page 34


 192:../../libDaisy//src/daisy_core.h **** struct Pin
 193:../../libDaisy//src/daisy_core.h **** {
 194:../../libDaisy//src/daisy_core.h ****     GPIOPort port;
 195:../../libDaisy//src/daisy_core.h ****     uint8_t  pin;
 196:../../libDaisy//src/daisy_core.h **** 
 197:../../libDaisy//src/daisy_core.h ****     /** @brief Constructor creates a valid pin. 
 198:../../libDaisy//src/daisy_core.h ****      *  @param pt GPIOPort between PA, and PK corresponding to STM32 Port.
 199:../../libDaisy//src/daisy_core.h ****      *  @param pn pin number in range of 0-15
 200:../../libDaisy//src/daisy_core.h ****     */
 201:../../libDaisy//src/daisy_core.h ****     constexpr Pin(const GPIOPort pt, const uint8_t pn) : port(pt), pin(pn) {}
 202:../../libDaisy//src/daisy_core.h **** 
 203:../../libDaisy//src/daisy_core.h ****     /** @brief Basic Constructor creates an invalid Pin object */
 204:../../libDaisy//src/daisy_core.h ****     constexpr Pin() : port(PORTX), pin(255) {}
 412              		.loc 19 204 15 view .LVU79
 413              	.LBB520:
 414              		.loc 19 204 43 is_stmt 0 view .LVU80
 415 0000 0B22     		movs	r2, #11
 416 0002 0270     		strb	r2, [r0]
 417 0004 FF22     		movs	r2, #255
 418 0006 4270     		strb	r2, [r0, #1]
 419              	.LVL13:
 420              		.loc 19 204 43 view .LVU81
 421              	.LBE520:
 422              	.LBE519:
  69:../../libDaisy//src/per/gpio.h ****         : pin(), mode(Mode::INPUT), pull(Pull::NOPULL), speed(Speed::LOW)
 423              		.loc 18 69 73 view .LVU82
 424 0008 0022     		movs	r2, #0
 425 000a C0E90122 		strd	r2, r2, [r0, #4]
 426 000e C260     		str	r2, [r0, #12]
 427              	.LBE518:
  70:../../libDaisy//src/per/gpio.h ****         {
  71:../../libDaisy//src/per/gpio.h ****         }
 428              		.loc 18 71 9 view .LVU83
 429 0010 7047     		bx	lr
 430              		.cfi_endproc
 431              	.LFE612:
 433              		.weak	_ZN5daisy4GPIO6ConfigC1Ev
 434              		.thumb_set _ZN5daisy4GPIO6ConfigC1Ev,_ZN5daisy4GPIO6ConfigC2Ev
 435              		.section	.rodata._Z13handleEncoderv.str1.1,"aMS",%progbits,1
 436              	.LC0:
 437 0000 4E4F2050 		.ascii	"NO PADS\000"
 437      41445300 
 438              		.section	.text._Z13handleEncoderv,"ax",%progbits
 439              		.align	1
 440              		.global	_Z13handleEncoderv
 441              		.syntax unified
 442              		.thumb
 443              		.thumb_func
 444              		.fpu fpv5-d16
 446              	_Z13handleEncoderv:
 447              	.LFB2798:
  71:Main.cpp      **** 
  72:Main.cpp      **** void handleEncoder()
  73:Main.cpp      **** {
 448              		.loc 17 73 1 is_stmt 1 view -0
 449              		.cfi_startproc
 450              		@ args = 0, pretend = 0, frame = 0
ARM GAS  C:\Users\danig\AppData\Local\Temp\ccN1qAGP.s 			page 35


 451              		@ frame_needed = 0, uses_anonymous_args = 0
  74:Main.cpp      ****     encoder.Debounce();
 452              		.loc 17 74 5 view .LVU85
  73:Main.cpp      ****     encoder.Debounce();
 453              		.loc 17 73 1 is_stmt 0 view .LVU86
 454 0000 F7B5     		push	{r0, r1, r2, r4, r5, r6, r7, lr}
 455              		.cfi_def_cfa_offset 32
 456              		.cfi_offset 4, -20
 457              		.cfi_offset 5, -16
 458              		.cfi_offset 6, -12
 459              		.cfi_offset 7, -8
 460              		.cfi_offset 14, -4
 461              		.loc 17 74 21 view .LVU87
 462 0002 6E4D     		ldr	r5, .L54
 463 0004 2846     		mov	r0, r5
 464 0006 FFF7FEFF 		bl	_ZN5daisy7Encoder8DebounceEv
 465              	.LVL14:
  75:Main.cpp      ****     int32_t increment = encoder.Increment();
 466              		.loc 17 75 5 is_stmt 1 view .LVU88
 467              	.LBB565:
 468              	.LBI565:
  22:../../libDaisy//src/hid/encoder.h **** 
  23:../../libDaisy//src/hid/encoder.h ****     /** Initializes the encoder with the specified hardware pins.
  24:../../libDaisy//src/hid/encoder.h ****      * Update rate is to be deprecated in a future release
  25:../../libDaisy//src/hid/encoder.h ****      */
  26:../../libDaisy//src/hid/encoder.h ****     void Init(Pin a, Pin b, Pin click, float update_rate = 0.f);
  27:../../libDaisy//src/hid/encoder.h ****     /** Called at update_rate to debounce and handle timing for the switch.
  28:../../libDaisy//src/hid/encoder.h ****      * In order for events not to be missed, its important that the Edge/Pressed checks be made at 
  29:../../libDaisy//src/hid/encoder.h ****      */
  30:../../libDaisy//src/hid/encoder.h ****     void Debounce();
  31:../../libDaisy//src/hid/encoder.h **** 
  32:../../libDaisy//src/hid/encoder.h ****     /** Returns +1 if the encoder was turned clockwise, -1 if it was turned counter-clockwise, or 0
  33:../../libDaisy//src/hid/encoder.h ****     inline int32_t Increment() const { return updated_ ? inc_ : 0; }
 469              		.loc 2 33 20 view .LVU89
 470              	.LBB566:
 471              		.loc 2 33 40 view .LVU90
 472              		.loc 2 33 56 is_stmt 0 view .LVU91
 473 000a 2C79     		ldrb	r4, [r5, #4]	@ zero_extendqisi2
 474 000c 04B1     		cbz	r4, .L14
 475 000e AC6D     		ldr	r4, [r5, #88]
 476              	.L14:
 477              	.LVL15:
 478              		.loc 2 33 56 view .LVU92
 479              	.LBE566:
 480              	.LBE565:
  76:Main.cpp      **** 
  77:Main.cpp      ****     static unsigned int holdStartTime      = 0;
 481              		.loc 17 77 5 is_stmt 1 view .LVU93
  78:Main.cpp      ****     static bool         holdActive         = false;
 482              		.loc 17 78 5 view .LVU94
  79:Main.cpp      ****     static bool         longPressTriggered = false;
 483              		.loc 17 79 5 view .LVU95
  80:Main.cpp      **** 
  81:Main.cpp      ****     // START PRESS
  82:Main.cpp      ****     if(encoder.RisingEdge())
 484              		.loc 17 82 5 view .LVU96
 485              	.LBB567:
ARM GAS  C:\Users\danig\AppData\Local\Temp\ccN1qAGP.s 			page 36


 486              	.LBI567:
  34:../../libDaisy//src/hid/encoder.h **** 
  35:../../libDaisy//src/hid/encoder.h ****     /** Returns true if the encoder was just pressed. */
  36:../../libDaisy//src/hid/encoder.h ****     inline bool RisingEdge() const { return sw_.RisingEdge(); }
 487              		.loc 2 36 17 view .LVU97
 488              	.LBE567:
 489              		.loc 2 36 38 view .LVU98
 490              	.LBB570:
 491              	.LBB568:
 492              	.LBI568:
  35:../../libDaisy//src/hid/switch.h **** 
  36:../../libDaisy//src/hid/switch.h ****     /** 
  37:../../libDaisy//src/hid/switch.h ****     Initializes the switch object with a given port/pin combo.
  38:../../libDaisy//src/hid/switch.h ****     \param pin port/pin object to tell the switch which hardware pin to use.
  39:../../libDaisy//src/hid/switch.h ****     \param update_rate Does nothing. Backwards compatibility until next breaking update.
  40:../../libDaisy//src/hid/switch.h ****     \param t switch type -- Default: TYPE_MOMENTARY
  41:../../libDaisy//src/hid/switch.h ****     \param pol switch polarity -- Default: POLARITY_INVERTED
  42:../../libDaisy//src/hid/switch.h ****     \param pu switch pull up/down -- Default: PULL_UP
  43:../../libDaisy//src/hid/switch.h ****     */
  44:../../libDaisy//src/hid/switch.h ****     void Init(Pin        pin,
  45:../../libDaisy//src/hid/switch.h ****               float      update_rate,
  46:../../libDaisy//src/hid/switch.h ****               Type       t,
  47:../../libDaisy//src/hid/switch.h ****               Polarity   pol,
  48:../../libDaisy//src/hid/switch.h ****               GPIO::Pull pu = GPIO::Pull::PULLUP);
  49:../../libDaisy//src/hid/switch.h **** 
  50:../../libDaisy//src/hid/switch.h ****     /**
  51:../../libDaisy//src/hid/switch.h ****        Simplified Init.
  52:../../libDaisy//src/hid/switch.h ****        \param pin port/pin object to tell the switch which hardware pin to use.
  53:../../libDaisy//src/hid/switch.h ****        \param update_rate Left for backwards compatibility until next breaking change.
  54:../../libDaisy//src/hid/switch.h ****     */
  55:../../libDaisy//src/hid/switch.h ****     void Init(Pin pin, float update_rate = 0.f);
  56:../../libDaisy//src/hid/switch.h **** 
  57:../../libDaisy//src/hid/switch.h ****     /** 
  58:../../libDaisy//src/hid/switch.h ****     Called at update_rate to debounce and handle timing for the switch.
  59:../../libDaisy//src/hid/switch.h ****     In order for events not to be missed, its important that the Edge/Pressed checks
  60:../../libDaisy//src/hid/switch.h ****     be made at the same rate as the debounce function is being called.
  61:../../libDaisy//src/hid/switch.h ****     */
  62:../../libDaisy//src/hid/switch.h ****     void Debounce();
  63:../../libDaisy//src/hid/switch.h **** 
  64:../../libDaisy//src/hid/switch.h ****     /** \return true if a button was just pressed. */
  65:../../libDaisy//src/hid/switch.h ****     inline bool RisingEdge() const { return updated_ ? state_ == 0x7f : false; }
 493              		.loc 1 65 17 view .LVU99
 494              	.LBB569:
 495              		.loc 1 65 38 view .LVU100
 496              		.loc 1 65 54 is_stmt 0 view .LVU101
 497 0010 2B7B     		ldrb	r3, [r5, #12]	@ zero_extendqisi2
 498 0012 6BB1     		cbz	r3, .L15
 499              	.LVL16:
 500              		.loc 1 65 54 view .LVU102
 501              	.LBE569:
 502              	.LBE568:
 503              	.LBE570:
 504              		.loc 17 82 5 view .LVU103
 505 0014 95F82430 		ldrb	r3, [r5, #36]	@ zero_extendqisi2
 506 0018 7F2B     		cmp	r3, #127
 507 001a 09D1     		bne	.L15
  83:Main.cpp      ****     {
ARM GAS  C:\Users\danig\AppData\Local\Temp\ccN1qAGP.s 			page 37


  84:Main.cpp      ****         holdStartTime      = System::GetNow();
 508              		.loc 17 84 9 is_stmt 1 view .LVU104
 509              		.loc 17 84 44 is_stmt 0 view .LVU105
 510 001c FFF7FEFF 		bl	_ZN5daisy6System6GetNowEv
 511              	.LVL17:
 512              		.loc 17 84 28 view .LVU106
 513 0020 674B     		ldr	r3, .L54+4
  85:Main.cpp      ****         holdActive         = true;
 514              		.loc 17 85 28 view .LVU107
 515 0022 0122     		movs	r2, #1
  84:Main.cpp      ****         holdActive         = true;
 516              		.loc 17 84 28 view .LVU108
 517 0024 1860     		str	r0, [r3]
 518              		.loc 17 85 9 is_stmt 1 view .LVU109
 519              		.loc 17 85 28 is_stmt 0 view .LVU110
 520 0026 674B     		ldr	r3, .L54+8
 521 0028 1A70     		strb	r2, [r3]
  86:Main.cpp      ****         longPressTriggered = false;
 522              		.loc 17 86 9 is_stmt 1 view .LVU111
 523              		.loc 17 86 28 is_stmt 0 view .LVU112
 524 002a 0022     		movs	r2, #0
 525 002c 664B     		ldr	r3, .L54+12
 526 002e 1A70     		strb	r2, [r3]
 527              	.L15:
  87:Main.cpp      ****     }
  88:Main.cpp      **** 
  89:Main.cpp      ****     // WHILE HOLDING
  90:Main.cpp      ****     if(encoder.Pressed() && holdActive && !longPressTriggered)
 528              		.loc 17 90 5 is_stmt 1 view .LVU113
 529              	.LVL18:
 530              	.LBB571:
 531              	.LBB572:
 532              	.LBI572:
  37:../../libDaisy//src/hid/encoder.h **** 
  38:../../libDaisy//src/hid/encoder.h ****     /** Returns true if the encoder was just released. */
  39:../../libDaisy//src/hid/encoder.h ****     inline bool FallingEdge() const { return sw_.FallingEdge(); }
  40:../../libDaisy//src/hid/encoder.h **** 
  41:../../libDaisy//src/hid/encoder.h ****     /** Returns true while the encoder is held down.*/
  42:../../libDaisy//src/hid/encoder.h ****     inline bool Pressed() const { return sw_.Pressed(); }
 533              		.loc 2 42 17 view .LVU114
 534              	.LBE572:
 535              	.LBE571:
 536              		.loc 2 42 35 view .LVU115
 537              	.LBB579:
 538              	.LBB575:
 539              	.LBB573:
 540              	.LBI573:
  66:../../libDaisy//src/hid/switch.h **** 
  67:../../libDaisy//src/hid/switch.h ****     /** \return true if the button was just released */
  68:../../libDaisy//src/hid/switch.h ****     inline bool FallingEdge() const
  69:../../libDaisy//src/hid/switch.h ****     {
  70:../../libDaisy//src/hid/switch.h ****         return updated_ ? state_ == 0x80 : false;
  71:../../libDaisy//src/hid/switch.h ****     }
  72:../../libDaisy//src/hid/switch.h **** 
  73:../../libDaisy//src/hid/switch.h ****     /** \return true if the button is held down (or if the toggle is on) */
  74:../../libDaisy//src/hid/switch.h ****     inline bool Pressed() const { return state_ == 0xff; }
 541              		.loc 1 74 17 view .LVU116
ARM GAS  C:\Users\danig\AppData\Local\Temp\ccN1qAGP.s 			page 38


 542              	.LBB574:
 543              		.loc 1 74 35 view .LVU117
 544              		.loc 1 74 35 is_stmt 0 view .LVU118
 545              	.LBE574:
 546              	.LBE573:
 547              	.LBE575:
 548              		.loc 17 90 40 view .LVU119
 549 0030 95F82430 		ldrb	r3, [r5, #36]	@ zero_extendqisi2
 550 0034 654F     		ldr	r7, .L54+16
 551 0036 FF2B     		cmp	r3, #255
 552 0038 37D1     		bne	.L17
 553              		.loc 17 90 26 discriminator 1 view .LVU120
 554 003a 624B     		ldr	r3, .L54+8
 555 003c 1B78     		ldrb	r3, [r3]	@ zero_extendqisi2
 556 003e 002B     		cmp	r3, #0
 557 0040 33D0     		beq	.L17
 558              		.loc 17 90 43 discriminator 3 view .LVU121
 559 0042 614E     		ldr	r6, .L54+12
 560              		.loc 17 90 40 discriminator 3 view .LVU122
 561 0044 3378     		ldrb	r3, [r6]	@ zero_extendqisi2
 562 0046 83BB     		cbnz	r3, .L17
 563              	.LBB576:
  91:Main.cpp      ****     {
  92:Main.cpp      ****         unsigned int holdTime = System::GetNow() - holdStartTime;
 564              		.loc 17 92 9 is_stmt 1 view .LVU123
 565              		.loc 17 92 47 is_stmt 0 view .LVU124
 566 0048 FFF7FEFF 		bl	_ZN5daisy6System6GetNowEv
 567              	.LVL19:
  93:Main.cpp      **** 
  94:Main.cpp      ****         // LONG PRESS (2 seconds)
  95:Main.cpp      ****         if(holdTime >= 2000 && inPadBrowser)
 568              		.loc 17 95 9 is_stmt 1 view .LVU125
  92:Main.cpp      **** 
 569              		.loc 17 92 52 is_stmt 0 view .LVU126
 570 004c 5C4B     		ldr	r3, .L54+4
 571 004e 1B68     		ldr	r3, [r3]
 572 0050 C01A     		subs	r0, r0, r3
 573              	.LVL20:
 574              	.LBB577:
 575              		.loc 17 95 9 view .LVU127
 576 0052 B0F5FA6F 		cmp	r0, #2000
 577 0056 28D3     		bcc	.L17
 578              		.loc 17 95 29 discriminator 1 view .LVU128
 579 0058 3B78     		ldrb	r3, [r7]	@ zero_extendqisi2
 580 005a 33B3     		cbz	r3, .L17
 581              	.LBB578:
  96:Main.cpp      ****         {
  97:Main.cpp      ****             longPressTriggered = true;
 582              		.loc 17 97 13 is_stmt 1 view .LVU129
 583              		.loc 17 97 32 is_stmt 0 view .LVU130
 584 005c 0123     		movs	r3, #1
  98:Main.cpp      **** 
  99:Main.cpp      ****             PadFile* selected = padBrowser.GetSelected();
 585              		.loc 17 99 55 view .LVU131
 586 005e 5C48     		ldr	r0, .L54+20
 587              	.LVL21:
  97:Main.cpp      **** 
ARM GAS  C:\Users\danig\AppData\Local\Temp\ccN1qAGP.s 			page 39


 588              		.loc 17 97 32 view .LVU132
 589 0060 3370     		strb	r3, [r6]
 590              		.loc 17 99 13 is_stmt 1 view .LVU133
 591              		.loc 17 99 55 is_stmt 0 view .LVU134
 592 0062 FFF7FEFF 		bl	_ZN10PadBrowser11GetSelectedEv
 593              	.LVL22:
 100:Main.cpp      **** 
 101:Main.cpp      ****             if(selected && !audioPlayer.IsCrossfading())
 594              		.loc 17 101 13 is_stmt 1 view .LVU135
 595              		.loc 17 101 25 is_stmt 0 view .LVU136
 596 0066 0646     		mov	r6, r0
 597 0068 98B1     		cbz	r0, .L20
 598              		.loc 17 101 54 discriminator 1 view .LVU137
 599 006a 5A48     		ldr	r0, .L54+24
 600              	.LVL23:
 601              		.loc 17 101 54 discriminator 1 view .LVU138
 602 006c FFF7FEFF 		bl	_ZNK11AudioPlayer13IsCrossfadingEv
 603              	.LVL24:
 604              		.loc 17 101 25 discriminator 1 view .LVU139
 605 0070 78B9     		cbnz	r0, .L20
 102:Main.cpp      ****             {
 103:Main.cpp      ****                 audioPlayer.PreloadNextPad(selected->filepath);
 606              		.loc 17 103 17 is_stmt 1 view .LVU140
 607              		.loc 17 103 43 is_stmt 0 view .LVU141
 608 0072 06F18001 		add	r1, r6, #128
 609 0076 5748     		ldr	r0, .L54+24
 610 0078 FFF7FEFF 		bl	_ZN11AudioPlayer14PreloadNextPadEPKc
 611              	.LVL25:
 104:Main.cpp      ****                 audioPlayer.CrossfadeToPreloaded();
 612              		.loc 17 104 17 is_stmt 1 view .LVU142
 613              		.loc 17 104 49 is_stmt 0 view .LVU143
 614 007c 5548     		ldr	r0, .L54+24
 615 007e FFF7FEFF 		bl	_ZN11AudioPlayer20CrossfadeToPreloadedEv
 616              	.LVL26:
 105:Main.cpp      ****                 currentKey     = selected->key;
 617              		.loc 17 105 17 is_stmt 1 view .LVU144
 618              		.loc 17 105 44 is_stmt 0 view .LVU145
 619 0082 06F5C072 		add	r2, r6, #384
 620              		.loc 17 105 32 view .LVU146
 621 0086 544B     		ldr	r3, .L54+28
 106:Main.cpp      ****                 currentPadName = selected->padName;
 622              		.loc 17 106 44 view .LVU147
 623 0088 06F5C276 		add	r6, r6, #388
 624              	.LVL27:
 105:Main.cpp      ****                 currentKey     = selected->key;
 625              		.loc 17 105 32 view .LVU148
 626 008c 1A60     		str	r2, [r3]
 627              		.loc 17 106 17 is_stmt 1 view .LVU149
 628              		.loc 17 106 32 is_stmt 0 view .LVU150
 629 008e 534B     		ldr	r3, .L54+32
 630 0090 1E60     		str	r6, [r3]
 631              	.LVL28:
 632              	.L20:
 107:Main.cpp      ****             }
 108:Main.cpp      ****             encoderMode  = EncoderMode::BPM;
 633              		.loc 17 108 13 is_stmt 1 view .LVU151
 634              		.loc 17 108 26 is_stmt 0 view .LVU152
ARM GAS  C:\Users\danig\AppData\Local\Temp\ccN1qAGP.s 			page 40


 635 0092 0026     		movs	r6, #0
 636 0094 524B     		ldr	r3, .L54+36
 109:Main.cpp      ****             inPadBrowser = false;
 110:Main.cpp      ****             ledBpm.Write(true);
 637              		.loc 17 110 25 view .LVU153
 638 0096 0121     		movs	r1, #1
 639 0098 5248     		ldr	r0, .L54+40
 108:Main.cpp      ****             inPadBrowser = false;
 640              		.loc 17 108 26 view .LVU154
 641 009a 1E60     		str	r6, [r3]
 109:Main.cpp      ****             inPadBrowser = false;
 642              		.loc 17 109 13 is_stmt 1 view .LVU155
 109:Main.cpp      ****             inPadBrowser = false;
 643              		.loc 17 109 26 is_stmt 0 view .LVU156
 644 009c 3E70     		strb	r6, [r7]
 645              		.loc 17 110 13 is_stmt 1 view .LVU157
 646              		.loc 17 110 25 is_stmt 0 view .LVU158
 647 009e FFF7FEFF 		bl	_ZN5daisy4GPIO5WriteEb
 648              	.LVL29:
 111:Main.cpp      ****             ledPad.Write(false);
 649              		.loc 17 111 13 is_stmt 1 view .LVU159
 650              		.loc 17 111 25 is_stmt 0 view .LVU160
 651 00a2 3146     		mov	r1, r6
 652 00a4 5048     		ldr	r0, .L54+44
 653 00a6 FFF7FEFF 		bl	_ZN5daisy4GPIO5WriteEb
 654              	.LVL30:
 655              	.L17:
 656              		.loc 17 111 25 view .LVU161
 657              	.LBE578:
 658              	.LBE577:
 659              	.LBE576:
 660              	.LBE579:
 112:Main.cpp      ****         }
 113:Main.cpp      ****     }
 114:Main.cpp      **** 
 115:Main.cpp      ****     // END PRESS (release only resets state, no logic decisions)
 116:Main.cpp      ****     if(encoder.FallingEdge())
 661              		.loc 17 116 5 is_stmt 1 view .LVU162
 662              	.LBB580:
 663              	.LBB581:
 664              	.LBI581:
  39:../../libDaisy//src/hid/encoder.h **** 
 665              		.loc 2 39 17 view .LVU163
 666              	.LBE581:
 667              	.LBE580:
  39:../../libDaisy//src/hid/encoder.h **** 
 668              		.loc 2 39 39 view .LVU164
 669              	.LBB602:
 670              	.LBB584:
 671              	.LBB582:
 672              	.LBI582:
  68:../../libDaisy//src/hid/switch.h ****     {
 673              		.loc 1 68 17 view .LVU165
 674              	.LBB583:
  70:../../libDaisy//src/hid/switch.h ****     }
 675              		.loc 1 70 9 view .LVU166
  70:../../libDaisy//src/hid/switch.h ****     }
ARM GAS  C:\Users\danig\AppData\Local\Temp\ccN1qAGP.s 			page 41


 676              		.loc 1 70 25 is_stmt 0 view .LVU167
 677 00aa 2B7B     		ldrb	r3, [r5, #12]	@ zero_extendqisi2
 678 00ac 002B     		cmp	r3, #0
 679 00ae 34D0     		beq	.L23
 680              	.LVL31:
  70:../../libDaisy//src/hid/switch.h ****     }
 681              		.loc 1 70 25 view .LVU168
 682              	.LBE583:
 683              	.LBE582:
 684              	.LBE584:
 685              		.loc 17 116 5 view .LVU169
 686 00b0 95F82430 		ldrb	r3, [r5, #36]	@ zero_extendqisi2
 687 00b4 802B     		cmp	r3, #128
 688 00b6 30D1     		bne	.L23
 689              	.LBB585:
 117:Main.cpp      ****     {
 118:Main.cpp      ****         unsigned int holdTime = System::GetNow() - holdStartTime;
 690              		.loc 17 118 9 is_stmt 1 view .LVU170
 691              		.loc 17 118 47 is_stmt 0 view .LVU171
 692 00b8 FFF7FEFF 		bl	_ZN5daisy6System6GetNowEv
 693              	.LVL32:
 694              		.loc 17 118 52 view .LVU172
 695 00bc 404B     		ldr	r3, .L54+4
 119:Main.cpp      ****         holdActive            = false;
 696              		.loc 17 119 31 view .LVU173
 697 00be 0025     		movs	r5, #0
 118:Main.cpp      ****         holdActive            = false;
 698              		.loc 17 118 52 view .LVU174
 699 00c0 1B68     		ldr	r3, [r3]
 700 00c2 C01A     		subs	r0, r0, r3
 701              	.LVL33:
 702              		.loc 17 119 9 is_stmt 1 view .LVU175
 703              		.loc 17 119 31 is_stmt 0 view .LVU176
 704 00c4 3F4B     		ldr	r3, .L54+8
 705              	.LBB586:
 120:Main.cpp      **** 
 121:Main.cpp      ****         // SHORT PRESS (<2s)
 122:Main.cpp      ****         if(holdTime < 500)
 706              		.loc 17 122 9 view .LVU177
 707 00c6 B0F5FA7F 		cmp	r0, #500
 708              	.LBE586:
 119:Main.cpp      **** 
 709              		.loc 17 119 31 view .LVU178
 710 00ca 1D70     		strb	r5, [r3]
 711              		.loc 17 122 9 is_stmt 1 view .LVU179
 712              	.LBB597:
 713 00cc 25D2     		bcs	.L23
 714              	.LBE597:
 715              	.LBE585:
 716              	.LBE602:
 123:Main.cpp      ****         {
 124:Main.cpp      ****             if(encoderMode == EncoderMode::BPM)
 717              		.loc 17 124 13 view .LVU180
 718              	.LBB603:
 719              	.LBB600:
 720              	.LBB598:
 721              	.LBB587:
ARM GAS  C:\Users\danig\AppData\Local\Temp\ccN1qAGP.s 			page 42


 722              		.loc 17 124 28 is_stmt 0 view .LVU181
 723 00ce 444B     		ldr	r3, .L54+36
 724 00d0 1E68     		ldr	r6, [r3]
 725              		.loc 17 124 13 view .LVU182
 726 00d2 002E     		cmp	r6, #0
 727 00d4 4AD1     		bne	.L25
 728              	.LBB588:
 125:Main.cpp      ****             {
 126:Main.cpp      ****                 encoderMode       = EncoderMode::PAD_SELECT;
 729              		.loc 17 126 17 is_stmt 1 view .LVU183
 730              		.loc 17 126 35 is_stmt 0 view .LVU184
 731 00d6 0125     		movs	r5, #1
 732 00d8 1D60     		str	r5, [r3]
 127:Main.cpp      ****                 inPadBrowser      = true;
 733              		.loc 17 127 17 is_stmt 1 view .LVU185
 734              		.loc 17 127 35 is_stmt 0 view .LVU186
 735 00da 3D70     		strb	r5, [r7]
 128:Main.cpp      ****                 lastDisplayUpdate = System::GetNow();
 736              		.loc 17 128 17 is_stmt 1 view .LVU187
 737              		.loc 17 128 51 is_stmt 0 view .LVU188
 738 00dc FFF7FEFF 		bl	_ZN5daisy6System6GetNowEv
 739              	.LVL34:
 740              		.loc 17 128 35 view .LVU189
 741 00e0 424B     		ldr	r3, .L54+48
 129:Main.cpp      **** 
 130:Main.cpp      ****                 ledBpm.Write(false);
 742              		.loc 17 130 29 view .LVU190
 743 00e2 3146     		mov	r1, r6
 128:Main.cpp      ****                 lastDisplayUpdate = System::GetNow();
 744              		.loc 17 128 35 view .LVU191
 745 00e4 1860     		str	r0, [r3]
 746              		.loc 17 130 17 is_stmt 1 view .LVU192
 747              		.loc 17 130 29 is_stmt 0 view .LVU193
 748 00e6 3F48     		ldr	r0, .L54+40
 749 00e8 FFF7FEFF 		bl	_ZN5daisy4GPIO5WriteEb
 750              	.LVL35:
 131:Main.cpp      ****                 ledPad.Write(true);
 751              		.loc 17 131 17 is_stmt 1 view .LVU194
 752              		.loc 17 131 29 is_stmt 0 view .LVU195
 753 00ec 3E48     		ldr	r0, .L54+44
 754 00ee 2946     		mov	r1, r5
 755 00f0 FFF7FEFF 		bl	_ZN5daisy4GPIO5WriteEb
 756              	.LVL36:
 132:Main.cpp      **** 
 133:Main.cpp      ****                 PadFile* sel = padBrowser.GetSelected();
 757              		.loc 17 133 17 is_stmt 1 view .LVU196
 758              		.loc 17 133 54 is_stmt 0 view .LVU197
 759 00f4 3648     		ldr	r0, .L54+20
 760 00f6 FFF7FEFF 		bl	_ZN10PadBrowser11GetSelectedEv
 761              	.LVL37:
 134:Main.cpp      ****                 if(sel)
 762              		.loc 17 134 17 is_stmt 1 view .LVU198
 763 00fa 0028     		cmp	r0, #0
 764 00fc 31D0     		beq	.L26
 135:Main.cpp      ****                     display.ShowPadBrowser(sel->key,
 765              		.loc 17 135 21 view .LVU199
 766              	.LVL38:
ARM GAS  C:\Users\danig\AppData\Local\Temp\ccN1qAGP.s 			page 43


 767              	.LBB589:
 768              	.LBI589:
 769              		.file 20 "PadBrowser.h"
   1:PadBrowser.h  **** #pragma once
   2:PadBrowser.h  **** #include "SdHandler.h"
   3:PadBrowser.h  **** 
   4:PadBrowser.h  **** #define MAX_PAD_FILES 24
   5:PadBrowser.h  **** #define PAD_FILENAME_MAX 128
   6:PadBrowser.h  **** 
   7:PadBrowser.h  **** struct PadFile
   8:PadBrowser.h  **** {
   9:PadBrowser.h  ****     char name[PAD_FILENAME_MAX];
  10:PadBrowser.h  ****     char filepath[256];
  11:PadBrowser.h  ****     char key[4];
  12:PadBrowser.h  ****     char padName[PAD_FILENAME_MAX];
  13:PadBrowser.h  **** };
  14:PadBrowser.h  **** 
  15:PadBrowser.h  **** class PadBrowser
  16:PadBrowser.h  **** {
  17:PadBrowser.h  ****   public:
  18:PadBrowser.h  ****     PadBrowser() : count_(0), selectedIndex_(0) {}
  19:PadBrowser.h  **** 
  20:PadBrowser.h  ****     void SetFiles(PadFile* files, int count);
  21:PadBrowser.h  **** 
  22:PadBrowser.h  ****     void Next();
  23:PadBrowser.h  ****     void Prev();
  24:PadBrowser.h  **** 
  25:PadBrowser.h  ****     PadFile* GetSelected();
  26:PadBrowser.h  ****     int      GetSelectedIndex() const { return selectedIndex_; }
 770              		.loc 20 26 14 view .LVU200
 771              	.LBB590:
 772              		.loc 20 26 41 view .LVU201
 773              		.loc 20 26 41 is_stmt 0 view .LVU202
 774              	.LBE590:
 775              	.LBE589:
 776              	.LBB592:
 777              	.LBI592:
  27:PadBrowser.h  ****     int      GetCount() const { return count_; }
 778              		.loc 20 27 14 is_stmt 1 view .LVU203
 779              	.LBB593:
 780              		.loc 20 27 33 view .LVU204
 781              		.loc 20 27 33 is_stmt 0 view .LVU205
 782              	.LBE593:
 783              	.LBE592:
 784              	.LBB594:
 785              	.LBB591:
  26:PadBrowser.h  ****     int      GetCount() const { return count_; }
 786              		.loc 20 26 48 view .LVU206
 787 00fe 3C4B     		ldr	r3, .L54+52
 788              	.LBE591:
 789              	.LBE594:
 790              		.loc 17 135 43 view .LVU207
 791 0100 00F5C071 		add	r1, r0, #384
 792 0104 1A6E     		ldr	r2, [r3, #96]
 793 0106 0092     		str	r2, [sp]
 794 0108 00F5C272 		add	r2, r0, #388
 795 010c 5B6E     		ldr	r3, [r3, #100]
ARM GAS  C:\Users\danig\AppData\Local\Temp\ccN1qAGP.s 			page 44


 796 010e 3948     		ldr	r0, .L54+56
 797              	.LVL39:
 798              		.loc 17 135 43 view .LVU208
 799 0110 FFF7FEFF 		bl	_ZN7Display14ShowPadBrowserEPKcS1_ii
 800              	.LVL40:
 801              	.L27:
 136:Main.cpp      ****                                            sel->padName,
 137:Main.cpp      ****                                            padBrowser.GetSelectedIndex(),
 138:Main.cpp      ****                                            padBrowser.GetCount());
 139:Main.cpp      ****                 else
 140:Main.cpp      ****                     display.ShowPadName("NO PADS");
 141:Main.cpp      **** 
 142:Main.cpp      ****                 display.Update();
 802              		.loc 17 142 17 is_stmt 1 view .LVU209
 803              		.loc 17 142 31 is_stmt 0 view .LVU210
 804 0114 3748     		ldr	r0, .L54+56
 805 0116 FFF7FEFF 		bl	_ZN7Display6UpdateEv
 806              	.LVL41:
 807              	.L23:
 808              		.loc 17 142 31 view .LVU211
 809              	.LBE588:
 810              	.LBE587:
 811              	.LBE598:
 812              	.LBE600:
 813              	.LBE603:
 143:Main.cpp      ****             }
 144:Main.cpp      ****             else if(encoderMode == EncoderMode::PAD_SELECT)
 145:Main.cpp      ****             {
 146:Main.cpp      ****                 encoderMode  = EncoderMode::BPM;
 147:Main.cpp      ****                 inPadBrowser = false;
 148:Main.cpp      **** 
 149:Main.cpp      ****                 ledBpm.Write(true);
 150:Main.cpp      ****                 ledPad.Write(false);
 151:Main.cpp      ****             }
 152:Main.cpp      ****         }
 153:Main.cpp      ****     }
 154:Main.cpp      **** 
 155:Main.cpp      ****     // ENCODER ROTATION
 156:Main.cpp      ****     if(increment != 0)
 814              		.loc 17 156 5 is_stmt 1 view .LVU212
 815              	.LBB604:
 816 011a 7CB1     		cbz	r4, .L30
 817              	.LBE604:
 157:Main.cpp      ****     {
 158:Main.cpp      ****         if(encoderMode == EncoderMode::BPM)
 818              		.loc 17 158 9 view .LVU213
 819              	.LBB623:
 820              	.LBB605:
 821              		.loc 17 158 24 is_stmt 0 view .LVU214
 822 011c 304B     		ldr	r3, .L54+36
 823              		.loc 17 158 9 view .LVU215
 824 011e 1B68     		ldr	r3, [r3]
 825 0120 002B     		cmp	r3, #0
 826 0122 35D1     		bne	.L31
 827              	.LBB606:
 159:Main.cpp      ****         {
 160:Main.cpp      ****             int newBpm = metronome.GetBpm() + increment;
ARM GAS  C:\Users\danig\AppData\Local\Temp\ccN1qAGP.s 			page 45


 828              		.loc 17 160 13 is_stmt 1 view .LVU216
 829              	.LVL42:
 830              	.LBB607:
 831              	.LBI607:
 832              		.file 21 "Metronome.h"
   1:Metronome.h   **** #pragma once
   2:Metronome.h   **** 
   3:Metronome.h   **** class Metronome
   4:Metronome.h   **** {
   5:Metronome.h   ****   private:
   6:Metronome.h   ****     static const int TAP_BUFFER_SIZE = 4;
   7:Metronome.h   **** 
   8:Metronome.h   ****     int          bpm_;
   9:Metronome.h   ****     int          tapCount_;
  10:Metronome.h   ****     unsigned int lastTapTime_;
  11:Metronome.h   ****     unsigned int lastInterval_;
  12:Metronome.h   ****     unsigned int intervals_[TAP_BUFFER_SIZE];
  13:Metronome.h   **** 
  14:Metronome.h   ****   public:
  15:Metronome.h   ****     Metronome() : bpm_(120), tapCount_(0), lastTapTime_(0), lastInterval_(0)
  16:Metronome.h   ****     {
  17:Metronome.h   ****         for(int i = 0; i < TAP_BUFFER_SIZE; i++)
  18:Metronome.h   ****             intervals_[i] = 0;
  19:Metronome.h   ****     }
  20:Metronome.h   **** 
  21:Metronome.h   ****     void Tap(unsigned int currentTimeMs)
  22:Metronome.h   ****     {
  23:Metronome.h   ****         if(lastTapTime_ > 0)
  24:Metronome.h   ****         {
  25:Metronome.h   ****             unsigned int interval = currentTimeMs - lastTapTime_;
  26:Metronome.h   ****             lastInterval_         = interval;
  27:Metronome.h   **** 
  28:Metronome.h   ****             if(interval >= 250 && interval <= 1500)
  29:Metronome.h   ****             {
  30:Metronome.h   ****                 intervals_[tapCount_ % TAP_BUFFER_SIZE] = interval;
  31:Metronome.h   ****                 tapCount_++;
  32:Metronome.h   **** 
  33:Metronome.h   ****                 unsigned int sum   = 0;
  34:Metronome.h   ****                 int          count = 0;
  35:Metronome.h   ****                 for(int i = 0; i < TAP_BUFFER_SIZE; i++)
  36:Metronome.h   ****                 {
  37:Metronome.h   ****                     if(intervals_[i] > 0)
  38:Metronome.h   ****                     {
  39:Metronome.h   ****                         sum += intervals_[i];
  40:Metronome.h   ****                         count++;
  41:Metronome.h   ****                     }
  42:Metronome.h   ****                 }
  43:Metronome.h   ****                 if(count > 0)
  44:Metronome.h   ****                     bpm_ = 60000 / (sum / count);
  45:Metronome.h   ****             }
  46:Metronome.h   ****             else
  47:Metronome.h   ****             {
  48:Metronome.h   ****                 tapCount_ = 0;
  49:Metronome.h   ****                 for(int i = 0; i < TAP_BUFFER_SIZE; i++)
  50:Metronome.h   ****                     intervals_[i] = 0;
  51:Metronome.h   ****                 lastTapTime_ = currentTimeMs;
  52:Metronome.h   ****                 return;
ARM GAS  C:\Users\danig\AppData\Local\Temp\ccN1qAGP.s 			page 46


  53:Metronome.h   ****             }
  54:Metronome.h   ****         }
  55:Metronome.h   ****         else
  56:Metronome.h   ****         {
  57:Metronome.h   ****             tapCount_ = 1;
  58:Metronome.h   ****         }
  59:Metronome.h   ****         lastTapTime_ = currentTimeMs;
  60:Metronome.h   ****     };
  61:Metronome.h   **** 
  62:Metronome.h   ****     int          GetBpm() const { return bpm_; }
 833              		.loc 21 62 18 view .LVU217
 834              	.LBB608:
 835              		.loc 21 62 35 view .LVU218
 836              		.loc 21 62 35 is_stmt 0 view .LVU219
 837              	.LBE608:
 838              	.LBE607:
 161:Main.cpp      ****             if(newBpm < 40)
 839              		.loc 17 161 13 is_stmt 1 view .LVU220
 840              	.LBB610:
 841              	.LBB609:
 842              		.loc 21 62 42 is_stmt 0 view .LVU221
 843 0124 344A     		ldr	r2, .L54+60
 844              	.LBE609:
 845              	.LBE610:
 160:Main.cpp      ****             if(newBpm < 40)
 846              		.loc 17 160 47 view .LVU222
 847 0126 1368     		ldr	r3, [r2]
 848 0128 1C44     		add	r4, r4, r3
 849              	.LVL43:
 160:Main.cpp      ****             if(newBpm < 40)
 850              		.loc 17 160 47 view .LVU223
 851 012a B4F5967F 		cmp	r4, #300
 852 012e A8BF     		it	ge
 853 0130 4FF49674 		movge	r4, #300
 854              	.LVL44:
 162:Main.cpp      ****                 newBpm = 40;
 163:Main.cpp      ****             if(newBpm > 300)
 164:Main.cpp      ****                 newBpm = 300;
 165:Main.cpp      ****             metronome.SetBpm(newBpm);
 855              		.loc 17 165 13 is_stmt 1 view .LVU224
 856              	.LBB611:
 857              	.LBI611:
  63:Metronome.h   ****     void         SetBpm(int bpm) { bpm_ = bpm; }
 858              		.loc 21 63 18 view .LVU225
 859              	.LBB612:
 860              		.loc 21 63 36 view .LVU226
 861              		.loc 21 63 41 is_stmt 0 view .LVU227
 862 0134 282C     		cmp	r4, #40
 863 0136 B8BF     		it	lt
 864 0138 2824     		movlt	r4, #40
 865              	.LVL45:
 866              		.loc 21 63 41 view .LVU228
 867 013a 1460     		str	r4, [r2]
 868              	.LVL46:
 869              	.L30:
 870              		.loc 21 63 41 view .LVU229
 871              	.LBE612:
ARM GAS  C:\Users\danig\AppData\Local\Temp\ccN1qAGP.s 			page 47


 872              	.LBE611:
 873              	.LBE606:
 874              	.LBE605:
 875              	.LBE623:
 166:Main.cpp      ****         }
 167:Main.cpp      ****         else
 168:Main.cpp      ****         {
 169:Main.cpp      ****             if(increment > 0)
 170:Main.cpp      ****                 padBrowser.Next();
 171:Main.cpp      ****             else
 172:Main.cpp      ****                 padBrowser.Prev();
 173:Main.cpp      **** 
 174:Main.cpp      ****             PadFile* sel = padBrowser.GetSelected();
 175:Main.cpp      ****             if(sel)
 176:Main.cpp      ****                 display.ShowPadBrowser(sel->key,
 177:Main.cpp      ****                                        sel->padName,
 178:Main.cpp      ****                                        padBrowser.GetSelectedIndex(),
 179:Main.cpp      ****                                        padBrowser.GetCount());
 180:Main.cpp      ****         }
 181:Main.cpp      ****     }
 182:Main.cpp      **** 
 183:Main.cpp      ****     // KEEP REFRESHING BROWSER DISPLAY
 184:Main.cpp      ****     if(inPadBrowser)
 876              		.loc 17 184 5 is_stmt 1 view .LVU230
 877              	.LBB624:
 878 013c 3B78     		ldrb	r3, [r7]	@ zero_extendqisi2
 879 013e 73B1     		cbz	r3, .L13
 880              	.LBB625:
 185:Main.cpp      ****     {
 186:Main.cpp      ****         PadFile* sel = padBrowser.GetSelected();
 881              		.loc 17 186 9 view .LVU231
 882              		.loc 17 186 46 is_stmt 0 view .LVU232
 883 0140 2348     		ldr	r0, .L54+20
 884 0142 FFF7FEFF 		bl	_ZN10PadBrowser11GetSelectedEv
 885              	.LVL47:
 187:Main.cpp      ****         if(sel)
 886              		.loc 17 187 9 is_stmt 1 view .LVU233
 887 0146 50B1     		cbz	r0, .L13
 188:Main.cpp      ****             display.ShowPadBrowser(sel->key,
 888              		.loc 17 188 13 view .LVU234
 889              	.LVL48:
 890              	.LBB626:
 891              	.LBI626:
  26:PadBrowser.h  ****     int      GetCount() const { return count_; }
 892              		.loc 20 26 14 view .LVU235
 893              	.LBB627:
  26:PadBrowser.h  ****     int      GetCount() const { return count_; }
 894              		.loc 20 26 41 view .LVU236
  26:PadBrowser.h  ****     int      GetCount() const { return count_; }
 895              		.loc 20 26 41 is_stmt 0 view .LVU237
 896              	.LBE627:
 897              	.LBE626:
 898              	.LBB629:
 899              	.LBI629:
 900              		.loc 20 27 14 is_stmt 1 view .LVU238
 901              	.LBB630:
 902              		.loc 20 27 33 view .LVU239
ARM GAS  C:\Users\danig\AppData\Local\Temp\ccN1qAGP.s 			page 48


 903              		.loc 20 27 33 is_stmt 0 view .LVU240
 904              	.LBE630:
 905              	.LBE629:
 906              	.LBB631:
 907              	.LBB628:
  26:PadBrowser.h  ****     int      GetCount() const { return count_; }
 908              		.loc 20 26 48 view .LVU241
 909 0148 294B     		ldr	r3, .L54+52
 910              	.LBE628:
 911              	.LBE631:
 912              		.loc 17 188 35 view .LVU242
 913 014a 00F5C071 		add	r1, r0, #384
 914 014e 1A6E     		ldr	r2, [r3, #96]
 915 0150 0092     		str	r2, [sp]
 916 0152 00F5C272 		add	r2, r0, #388
 917 0156 5B6E     		ldr	r3, [r3, #100]
 918 0158 2648     		ldr	r0, .L54+56
 919              	.LVL49:
 920              		.loc 17 188 35 view .LVU243
 921 015a FFF7FEFF 		bl	_ZN7Display14ShowPadBrowserEPKcS1_ii
 922              	.LVL50:
 923              	.L13:
 924              		.loc 17 188 35 view .LVU244
 925              	.LBE625:
 926              	.LBE624:
 189:Main.cpp      ****                                    sel->padName,
 190:Main.cpp      ****                                    padBrowser.GetSelectedIndex(),
 191:Main.cpp      ****                                    padBrowser.GetCount());
 192:Main.cpp      ****     }
 193:Main.cpp      **** }
 927              		.loc 17 193 1 view .LVU245
 928 015e 03B0     		add	sp, sp, #12
 929              		.cfi_remember_state
 930              		.cfi_def_cfa_offset 20
 931              		@ sp needed
 932 0160 F0BD     		pop	{r4, r5, r6, r7, pc}
 933              	.LVL51:
 934              	.L26:
 935              		.cfi_restore_state
 936              	.LBB632:
 937              	.LBB601:
 938              	.LBB599:
 939              	.LBB596:
 940              	.LBB595:
 140:Main.cpp      **** 
 941              		.loc 17 140 21 is_stmt 1 view .LVU246
 140:Main.cpp      **** 
 942              		.loc 17 140 40 is_stmt 0 view .LVU247
 943 0162 2649     		ldr	r1, .L54+64
 944 0164 2348     		ldr	r0, .L54+56
 945              	.LVL52:
 140:Main.cpp      **** 
 946              		.loc 17 140 40 view .LVU248
 947 0166 FFF7FEFF 		bl	_ZN7Display11ShowPadNameEPKc
 948              	.LVL53:
 949 016a D3E7     		b	.L27
 950              	.LVL54:
ARM GAS  C:\Users\danig\AppData\Local\Temp\ccN1qAGP.s 			page 49


 951              	.L25:
 140:Main.cpp      **** 
 952              		.loc 17 140 40 view .LVU249
 953              	.LBE595:
 144:Main.cpp      ****             {
 954              		.loc 17 144 18 is_stmt 1 view .LVU250
 955 016c 012E     		cmp	r6, #1
 956 016e 0DD1     		bne	.L28
 146:Main.cpp      ****                 inPadBrowser = false;
 957              		.loc 17 146 17 view .LVU251
 149:Main.cpp      ****                 ledPad.Write(false);
 958              		.loc 17 149 29 is_stmt 0 view .LVU252
 959 0170 3146     		mov	r1, r6
 960 0172 1C48     		ldr	r0, .L54+40
 961              	.LVL55:
 146:Main.cpp      ****                 inPadBrowser = false;
 962              		.loc 17 146 30 view .LVU253
 963 0174 1D60     		str	r5, [r3]
 147:Main.cpp      **** 
 964              		.loc 17 147 17 is_stmt 1 view .LVU254
 147:Main.cpp      **** 
 965              		.loc 17 147 30 is_stmt 0 view .LVU255
 966 0176 3D70     		strb	r5, [r7]
 149:Main.cpp      ****                 ledPad.Write(false);
 967              		.loc 17 149 17 is_stmt 1 view .LVU256
 149:Main.cpp      ****                 ledPad.Write(false);
 968              		.loc 17 149 29 is_stmt 0 view .LVU257
 969 0178 FFF7FEFF 		bl	_ZN5daisy4GPIO5WriteEb
 970              	.LVL56:
 150:Main.cpp      ****             }
 971              		.loc 17 150 17 is_stmt 1 view .LVU258
 150:Main.cpp      ****             }
 972              		.loc 17 150 29 is_stmt 0 view .LVU259
 973 017c 2946     		mov	r1, r5
 974 017e 1A48     		ldr	r0, .L54+44
 975 0180 FFF7FEFF 		bl	_ZN5daisy4GPIO5WriteEb
 976              	.LVL57:
 977 0184 C9E7     		b	.L23
 978              	.L32:
 150:Main.cpp      ****             }
 979              		.loc 17 150 29 view .LVU260
 980              	.LBE596:
 981              	.LBE599:
 982              	.LBE601:
 983              	.LBE632:
 984              	.LBB633:
 985              	.LBB621:
 986              	.LBB613:
 172:Main.cpp      **** 
 987              		.loc 17 172 17 is_stmt 1 view .LVU261
 172:Main.cpp      **** 
 988              		.loc 17 172 32 is_stmt 0 view .LVU262
 989 0186 FFF7FEFF 		bl	_ZN10PadBrowser4PrevEv
 990              	.LVL58:
 991 018a 06E0     		b	.L33
 992              	.LVL59:
 993              	.L28:
ARM GAS  C:\Users\danig\AppData\Local\Temp\ccN1qAGP.s 			page 50


 172:Main.cpp      **** 
 994              		.loc 17 172 32 view .LVU263
 995              	.LBE613:
 996              	.LBE621:
 997              	.LBE633:
 156:Main.cpp      ****     {
 998              		.loc 17 156 5 is_stmt 1 view .LVU264
 999              	.LBB634:
 1000 018c 002C     		cmp	r4, #0
 1001 018e D5D0     		beq	.L30
 1002              	.LVL60:
 1003              	.L31:
 1004              	.LBB622:
 1005              	.LBB620:
 169:Main.cpp      ****                 padBrowser.Next();
 1006              		.loc 17 169 13 view .LVU265
 1007 0190 002C     		cmp	r4, #0
 170:Main.cpp      ****             else
 1008              		.loc 17 170 32 is_stmt 0 view .LVU266
 1009 0192 0F48     		ldr	r0, .L54+20
 169:Main.cpp      ****                 padBrowser.Next();
 1010              		.loc 17 169 13 view .LVU267
 1011 0194 F7DD     		ble	.L32
 170:Main.cpp      ****             else
 1012              		.loc 17 170 17 is_stmt 1 view .LVU268
 170:Main.cpp      ****             else
 1013              		.loc 17 170 32 is_stmt 0 view .LVU269
 1014 0196 FFF7FEFF 		bl	_ZN10PadBrowser4NextEv
 1015              	.LVL61:
 1016              	.L33:
 174:Main.cpp      ****             if(sel)
 1017              		.loc 17 174 13 is_stmt 1 view .LVU270
 174:Main.cpp      ****             if(sel)
 1018              		.loc 17 174 50 is_stmt 0 view .LVU271
 1019 019a 0D48     		ldr	r0, .L54+20
 1020 019c FFF7FEFF 		bl	_ZN10PadBrowser11GetSelectedEv
 1021              	.LVL62:
 175:Main.cpp      ****                 display.ShowPadBrowser(sel->key,
 1022              		.loc 17 175 13 is_stmt 1 view .LVU272
 1023 01a0 0028     		cmp	r0, #0
 1024 01a2 CBD0     		beq	.L30
 176:Main.cpp      ****                                        sel->padName,
 1025              		.loc 17 176 17 view .LVU273
 1026              	.LVL63:
 1027              	.LBB614:
 1028              	.LBI614:
  26:PadBrowser.h  ****     int      GetCount() const { return count_; }
 1029              		.loc 20 26 14 view .LVU274
 1030              	.LBB615:
  26:PadBrowser.h  ****     int      GetCount() const { return count_; }
 1031              		.loc 20 26 41 view .LVU275
  26:PadBrowser.h  ****     int      GetCount() const { return count_; }
 1032              		.loc 20 26 41 is_stmt 0 view .LVU276
 1033              	.LBE615:
 1034              	.LBE614:
 1035              	.LBB617:
 1036              	.LBI617:
ARM GAS  C:\Users\danig\AppData\Local\Temp\ccN1qAGP.s 			page 51


 1037              		.loc 20 27 14 is_stmt 1 view .LVU277
 1038              	.LBB618:
 1039              		.loc 20 27 33 view .LVU278
 1040              		.loc 20 27 33 is_stmt 0 view .LVU279
 1041              	.LBE618:
 1042              	.LBE617:
 1043              	.LBB619:
 1044              	.LBB616:
  26:PadBrowser.h  ****     int      GetCount() const { return count_; }
 1045              		.loc 20 26 48 view .LVU280
 1046 01a4 124B     		ldr	r3, .L54+52
 1047              	.LBE616:
 1048              	.LBE619:
 176:Main.cpp      ****                                        sel->padName,
 1049              		.loc 17 176 39 view .LVU281
 1050 01a6 00F5C071 		add	r1, r0, #384
 1051 01aa 1A6E     		ldr	r2, [r3, #96]
 1052 01ac 0092     		str	r2, [sp]
 1053 01ae 00F5C272 		add	r2, r0, #388
 1054 01b2 5B6E     		ldr	r3, [r3, #100]
 1055 01b4 0F48     		ldr	r0, .L54+56
 1056              	.LVL64:
 176:Main.cpp      ****                                        sel->padName,
 1057              		.loc 17 176 39 view .LVU282
 1058 01b6 FFF7FEFF 		bl	_ZN7Display14ShowPadBrowserEPKcS1_ii
 1059              	.LVL65:
 176:Main.cpp      ****                                        sel->padName,
 1060              		.loc 17 176 39 view .LVU283
 1061 01ba BFE7     		b	.L30
 1062              	.L55:
 1063              		.align	2
 1064              	.L54:
 1065 01bc 00000000 		.word	.LANCHOR0
 1066 01c0 00000000 		.word	.LANCHOR1
 1067 01c4 00000000 		.word	.LANCHOR2
 1068 01c8 00000000 		.word	.LANCHOR3
 1069 01cc 00000000 		.word	.LANCHOR4
 1070 01d0 00000000 		.word	padBrowser
 1071 01d4 00000000 		.word	audioPlayer
 1072 01d8 00000000 		.word	.LANCHOR5
 1073 01dc 00000000 		.word	.LANCHOR6
 1074 01e0 00000000 		.word	.LANCHOR7
 1075 01e4 00000000 		.word	.LANCHOR8
 1076 01e8 00000000 		.word	.LANCHOR9
 1077 01ec 00000000 		.word	.LANCHOR10
 1078 01f0 00300000 		.word	padBrowser+12288
 1079 01f4 00000000 		.word	.LANCHOR11
 1080 01f8 00000000 		.word	.LANCHOR12
 1081 01fc 00000000 		.word	.LC0
 1082              	.LBE620:
 1083              	.LBE622:
 1084              	.LBE634:
 1085              		.cfi_endproc
 1086              	.LFE2798:
 1088              		.section	.text._Z17GetPadDisplayNamev,"ax",%progbits
 1089              		.align	1
 1090              		.global	_Z17GetPadDisplayNamev
ARM GAS  C:\Users\danig\AppData\Local\Temp\ccN1qAGP.s 			page 52


 1091              		.syntax unified
 1092              		.thumb
 1093              		.thumb_func
 1094              		.fpu fpv5-d16
 1096              	_Z17GetPadDisplayNamev:
 1097              	.LFB2799:
 194:Main.cpp      **** 
 195:Main.cpp      **** const char* GetPadDisplayName()
 196:Main.cpp      **** {
 1098              		.loc 17 196 1 is_stmt 1 view -0
 1099              		.cfi_startproc
 1100              		@ args = 0, pretend = 0, frame = 0
 1101              		@ frame_needed = 0, uses_anonymous_args = 0
 197:Main.cpp      ****     if(padCount == 0)
 1102              		.loc 17 197 5 view .LVU285
 196:Main.cpp      ****     if(padCount == 0)
 1103              		.loc 17 196 1 is_stmt 0 view .LVU286
 1104 0000 38B5     		push	{r3, r4, r5, lr}
 1105              		.cfi_def_cfa_offset 16
 1106              		.cfi_offset 3, -16
 1107              		.cfi_offset 4, -12
 1108              		.cfi_offset 5, -8
 1109              		.cfi_offset 14, -4
 1110              		.loc 17 197 17 view .LVU287
 1111 0002 0D4B     		ldr	r3, .L60
 1112              		.loc 17 197 5 view .LVU288
 1113 0004 1B68     		ldr	r3, [r3]
 1114 0006 A3B1     		cbz	r3, .L58
 198:Main.cpp      ****         return "NO PADS";
 199:Main.cpp      **** 
 200:Main.cpp      ****     const char* full = padFiles[selectedPad];
 1115              		.loc 17 200 5 is_stmt 1 view .LVU289
 1116              	.LVL66:
 201:Main.cpp      **** 
 202:Main.cpp      ****     // skip "/pads/"
 203:Main.cpp      ****     const char* name = full + 6;
 1117              		.loc 17 203 5 view .LVU290
 204:Main.cpp      **** 
 205:Main.cpp      ****     static char clean[64];
 1118              		.loc 17 205 5 view .LVU291
 206:Main.cpp      ****     strncpy(clean, name, 63);
 1119              		.loc 17 206 5 view .LVU292
 200:Main.cpp      **** 
 1120              		.loc 17 200 44 is_stmt 0 view .LVU293
 1121 0008 0C4B     		ldr	r3, .L60+4
 1122              		.loc 17 206 12 view .LVU294
 1123 000a 3F22     		movs	r2, #63
 1124 000c 0C4C     		ldr	r4, .L60+8
 207:Main.cpp      ****     clean[63] = '\0';
 1125              		.loc 17 207 15 view .LVU295
 1126 000e 0025     		movs	r5, #0
 203:Main.cpp      **** 
 1127              		.loc 17 203 17 view .LVU296
 1128 0010 1968     		ldr	r1, [r3]
 206:Main.cpp      ****     clean[63] = '\0';
 1129              		.loc 17 206 12 view .LVU297
 1130 0012 0C4B     		ldr	r3, .L60+12
ARM GAS  C:\Users\danig\AppData\Local\Temp\ccN1qAGP.s 			page 53


 1131 0014 2046     		mov	r0, r4
 1132 0016 03EB0121 		add	r1, r3, r1, lsl #8
 1133              	.LVL67:
 206:Main.cpp      ****     clean[63] = '\0';
 1134              		.loc 17 206 12 view .LVU298
 1135 001a FFF7FEFF 		bl	strncpy
 1136              	.LVL68:
 1137              		.loc 17 207 5 is_stmt 1 view .LVU299
 208:Main.cpp      **** 
 209:Main.cpp      ****     char* dot = strrchr(clean, '.');
 1138              		.loc 17 209 24 is_stmt 0 view .LVU300
 1139 001e 2E21     		movs	r1, #46
 1140 0020 2046     		mov	r0, r4
 207:Main.cpp      **** 
 1141              		.loc 17 207 15 view .LVU301
 1142 0022 84F83F50 		strb	r5, [r4, #63]
 1143              		.loc 17 209 5 is_stmt 1 view .LVU302
 1144              		.loc 17 209 24 is_stmt 0 view .LVU303
 1145 0026 FFF7FEFF 		bl	strrchr
 1146              	.LVL69:
 210:Main.cpp      ****     if(dot)
 1147              		.loc 17 210 5 is_stmt 1 view .LVU304
 1148 002a 00B1     		cbz	r0, .L59
 211:Main.cpp      ****         *dot = '\0';
 1149              		.loc 17 211 9 view .LVU305
 1150              		.loc 17 211 14 is_stmt 0 view .LVU306
 1151 002c 0570     		strb	r5, [r0]
 1152              	.L59:
 212:Main.cpp      **** 
 213:Main.cpp      ****     return clean;
 1153              		.loc 17 213 12 view .LVU307
 1154 002e 2046     		mov	r0, r4
 1155              	.LVL70:
 1156              		.loc 17 213 12 view .LVU308
 1157 0030 00E0     		b	.L56
 1158              	.L58:
 198:Main.cpp      **** 
 1159              		.loc 17 198 16 view .LVU309
 1160 0032 0548     		ldr	r0, .L60+16
 1161              	.L56:
 214:Main.cpp      **** }
 1162              		.loc 17 214 1 view .LVU310
 1163 0034 38BD     		pop	{r3, r4, r5, pc}
 1164              	.L61:
 1165 0036 00BF     		.align	2
 1166              	.L60:
 1167 0038 00000000 		.word	.LANCHOR14
 1168 003c 00000000 		.word	.LANCHOR15
 1169 0040 00000000 		.word	.LANCHOR13
 1170 0044 06000000 		.word	padFiles+6
 1171 0048 00000000 		.word	.LC0
 1172              		.cfi_endproc
 1173              	.LFE2799:
 1175              		.section	.rodata.main.str1.1,"aMS",%progbits,1
 1176              	.LC1:
 1177 0000 2F706164 		.ascii	"/pads\000"
 1177      7300
ARM GAS  C:\Users\danig\AppData\Local\Temp\ccN1qAGP.s 			page 54


 1178              	.LC2:
 1179 0006 2F706164 		.ascii	"/pads/%s.wav\000"
 1179      732F2573 
 1179      2E776176 
 1179      00
 1180              	.LC3:
 1181 0013 2F636C69 		.ascii	"/click/click.wav\000"
 1181      636B2F63 
 1181      6C69636B 
 1181      2E776176 
 1181      00
 1182              	.LC4:
 1183 0024 2F636C69 		.ascii	"/click/click_accent.wav\000"
 1183      636B2F63 
 1183      6C69636B 
 1183      5F616363 
 1183      656E742E 
 1184              		.section	.text.startup.main,"ax",%progbits
 1185              		.align	1
 1186              		.global	main
 1187              		.syntax unified
 1188              		.thumb
 1189              		.thumb_func
 1190              		.fpu fpv5-d16
 1192              	main:
 1193              	.LFB2800:
 215:Main.cpp      **** 
 216:Main.cpp      **** int main(void)
 217:Main.cpp      **** {
 1194              		.loc 17 217 1 is_stmt 1 view -0
 1195              		.cfi_startproc
 1196              		@ args = 0, pretend = 0, frame = 12576
 1197              		@ frame_needed = 0, uses_anonymous_args = 0
 218:Main.cpp      ****     hw.Init();
 1198              		.loc 17 218 5 view .LVU312
 217:Main.cpp      ****     hw.Init();
 1199              		.loc 17 217 1 is_stmt 0 view .LVU313
 1200 0000 2DE9F043 		push	{r4, r5, r6, r7, r8, r9, lr}
 1201              		.cfi_def_cfa_offset 28
 1202              		.cfi_offset 4, -28
 1203              		.cfi_offset 5, -24
 1204              		.cfi_offset 6, -20
 1205              		.cfi_offset 7, -16
 1206              		.cfi_offset 8, -12
 1207              		.cfi_offset 9, -8
 1208              		.cfi_offset 14, -4
 1209 0004 2DED028B 		vpush.64	{d8}
 1210              		.cfi_def_cfa_offset 36
 1211              		.cfi_offset 80, -36
 1212              		.cfi_offset 81, -32
 1213 0008 ADF5445D 		sub	sp, sp, #12544
 1214              		.cfi_def_cfa_offset 12580
 1215              		.loc 17 218 12 view .LVU314
 1216 000c 0021     		movs	r1, #0
 1217 000e 3B48     		ldr	r0, .L147
 217:Main.cpp      ****     hw.Init();
 1218              		.loc 17 217 1 view .LVU315
ARM GAS  C:\Users\danig\AppData\Local\Temp\ccN1qAGP.s 			page 55


 1219 0010 8FB0     		sub	sp, sp, #60
 1220              		.cfi_def_cfa_offset 12640
 1221              		.loc 17 218 12 view .LVU316
 1222 0012 FFF7FEFF 		bl	_ZN5daisy9DaisySeed4InitEb
 1223              	.LVL71:
 219:Main.cpp      ****     display.Init();
 1224              		.loc 17 219 5 is_stmt 1 view .LVU317
 1225              		.loc 17 219 17 is_stmt 0 view .LVU318
 1226 0016 3A48     		ldr	r0, .L147+4
 1227 0018 FFF7FEFF 		bl	_ZN7Display4InitEv
 1228              	.LVL72:
 220:Main.cpp      **** 
 221:Main.cpp      ****     if(!sd.Init())
 1229              		.loc 17 221 5 is_stmt 1 view .LVU319
 1230              		.loc 17 221 16 is_stmt 0 view .LVU320
 1231 001c 3948     		ldr	r0, .L147+8
 1232 001e FFF7FEFF 		bl	_ZN9SdHandler4InitEv
 1233              	.LVL73:
 1234              		.loc 17 221 5 view .LVU321
 1235 0022 80B9     		cbnz	r0, .L63
 1236              	.L64:
 222:Main.cpp      ****     {
 223:Main.cpp      ****         while(1)
 1237              		.loc 17 223 9 is_stmt 1 discriminator 1 view .LVU322
 224:Main.cpp      ****         {
 225:Main.cpp      ****             hw.SetLed(true);
 1238              		.loc 17 225 13 discriminator 1 view .LVU323
 1239              		.loc 17 225 22 is_stmt 0 discriminator 1 view .LVU324
 1240 0024 0121     		movs	r1, #1
 1241 0026 3548     		ldr	r0, .L147
 1242 0028 FFF7FEFF 		bl	_ZN5daisy9DaisySeed6SetLedEb
 1243              	.LVL74:
 226:Main.cpp      ****             System::Delay(500);
 1244              		.loc 17 226 13 is_stmt 1 discriminator 1 view .LVU325
 1245              		.loc 17 226 26 is_stmt 0 discriminator 1 view .LVU326
 1246 002c 4FF4FA70 		mov	r0, #500
 1247 0030 FFF7FEFF 		bl	_ZN5daisy6System5DelayEm
 1248              	.LVL75:
 227:Main.cpp      ****             hw.SetLed(false);
 1249              		.loc 17 227 13 is_stmt 1 discriminator 1 view .LVU327
 1250              		.loc 17 227 22 is_stmt 0 discriminator 1 view .LVU328
 1251 0034 0021     		movs	r1, #0
 1252 0036 3148     		ldr	r0, .L147
 1253 0038 FFF7FEFF 		bl	_ZN5daisy9DaisySeed6SetLedEb
 1254              	.LVL76:
 228:Main.cpp      ****             System::Delay(500);
 1255              		.loc 17 228 13 is_stmt 1 discriminator 1 view .LVU329
 1256              		.loc 17 228 26 is_stmt 0 discriminator 1 view .LVU330
 1257 003c 4FF4FA70 		mov	r0, #500
 1258 0040 FFF7FEFF 		bl	_ZN5daisy6System5DelayEm
 1259              	.LVL77:
 223:Main.cpp      ****         {
 1260              		.loc 17 223 9 is_stmt 1 discriminator 1 view .LVU331
 1261 0044 EEE7     		b	.L64
 1262              	.L63:
 229:Main.cpp      ****         }
 230:Main.cpp      ****     }
ARM GAS  C:\Users\danig\AppData\Local\Temp\ccN1qAGP.s 			page 56


 231:Main.cpp      **** 
 232:Main.cpp      ****     if(!setlist.Load())
 1263              		.loc 17 232 5 view .LVU332
 1264              		.loc 17 232 21 is_stmt 0 view .LVU333
 1265 0046 3048     		ldr	r0, .L147+12
 1266 0048 FFF7FEFF 		bl	_ZN7Setlist4LoadEv
 1267              	.LVL78:
 1268              		.loc 17 232 5 view .LVU334
 1269 004c 70B9     		cbnz	r0, .L65
 1270              	.L66:
 233:Main.cpp      ****     {
 234:Main.cpp      ****         while(1)
 1271              		.loc 17 234 9 is_stmt 1 discriminator 1 view .LVU335
 235:Main.cpp      ****         {
 236:Main.cpp      ****             hw.SetLed(true);
 1272              		.loc 17 236 13 discriminator 1 view .LVU336
 1273              		.loc 17 236 22 is_stmt 0 discriminator 1 view .LVU337
 1274 004e 0121     		movs	r1, #1
 1275 0050 2A48     		ldr	r0, .L147
 1276 0052 FFF7FEFF 		bl	_ZN5daisy9DaisySeed6SetLedEb
 1277              	.LVL79:
 237:Main.cpp      ****             System::Delay(200);
 1278              		.loc 17 237 13 is_stmt 1 discriminator 1 view .LVU338
 1279              		.loc 17 237 26 is_stmt 0 discriminator 1 view .LVU339
 1280 0056 C820     		movs	r0, #200
 1281 0058 FFF7FEFF 		bl	_ZN5daisy6System5DelayEm
 1282              	.LVL80:
 238:Main.cpp      ****             hw.SetLed(false);
 1283              		.loc 17 238 13 is_stmt 1 discriminator 1 view .LVU340
 1284              		.loc 17 238 22 is_stmt 0 discriminator 1 view .LVU341
 1285 005c 0021     		movs	r1, #0
 1286 005e 2748     		ldr	r0, .L147
 1287 0060 FFF7FEFF 		bl	_ZN5daisy9DaisySeed6SetLedEb
 1288              	.LVL81:
 239:Main.cpp      ****             System::Delay(200);
 1289              		.loc 17 239 13 is_stmt 1 discriminator 1 view .LVU342
 1290              		.loc 17 239 26 is_stmt 0 discriminator 1 view .LVU343
 1291 0064 C820     		movs	r0, #200
 1292 0066 FFF7FEFF 		bl	_ZN5daisy6System5DelayEm
 1293              	.LVL82:
 234:Main.cpp      ****         {
 1294              		.loc 17 234 9 is_stmt 1 discriminator 1 view .LVU344
 1295 006a F0E7     		b	.L66
 1296              	.L65:
 240:Main.cpp      ****         }
 241:Main.cpp      ****     }
 242:Main.cpp      **** 
 243:Main.cpp      **** 
 244:Main.cpp      ****     PadFile tempFiles[MAX_PADS];
 1297              		.loc 17 244 5 view .LVU345
 245:Main.cpp      **** 
 246:Main.cpp      ****     padCount = 0;
 1298              		.loc 17 246 5 view .LVU346
 1299              		.loc 17 246 14 is_stmt 0 view .LVU347
 1300 006c 274E     		ldr	r6, .L147+16
 247:Main.cpp      **** 
 248:Main.cpp      ****     // 1. scan SD card
ARM GAS  C:\Users\danig\AppData\Local\Temp\ccN1qAGP.s 			page 57


 249:Main.cpp      ****     bool ok = sd.ListWavFiles("/pads", padFiles, padNames, padCount, MAX_PADS);
 1301              		.loc 17 249 30 view .LVU348
 1302 006e 1823     		movs	r3, #24
 246:Main.cpp      **** 
 1303              		.loc 17 246 14 view .LVU349
 1304 0070 0025     		movs	r5, #0
 1305              		.loc 17 249 30 view .LVU350
 1306 0072 274A     		ldr	r2, .L147+20
 1307 0074 2749     		ldr	r1, .L147+24
 246:Main.cpp      **** 
 1308              		.loc 17 246 14 view .LVU351
 1309 0076 3560     		str	r5, [r6]
 1310              		.loc 17 249 5 is_stmt 1 view .LVU352
 1311              		.loc 17 249 30 is_stmt 0 view .LVU353
 1312 0078 2248     		ldr	r0, .L147+8
 1313 007a CDE90063 		strd	r6, r3, [sp]
 1314 007e 264B     		ldr	r3, .L147+28
 1315 0080 FFF7FEFF 		bl	_ZN9SdHandler12ListWavFilesEPKcPA256_cPA128_cRii
 1316              	.LVL83:
 250:Main.cpp      **** 
 251:Main.cpp      ****     if(!ok || padCount == 0)
 1317              		.loc 17 251 5 is_stmt 1 view .LVU354
 1318 0084 50B3     		cbz	r0, .L69
 1319              		.loc 17 251 12 is_stmt 0 discriminator 1 view .LVU355
 1320 0086 3368     		ldr	r3, [r6]
 1321 0088 43B3     		cbz	r3, .L69
 1322 008a 36AC     		add	r4, sp, #216
 1323 008c 224F     		ldr	r7, .L147+28
 1324 008e A146     		mov	r9, r4
 1325              	.LVL84:
 1326              	.L68:
 1327              	.LBB693:
 252:Main.cpp      ****     {
 253:Main.cpp      ****         while(1)
 254:Main.cpp      ****         {
 255:Main.cpp      ****             hw.SetLed(true);
 256:Main.cpp      ****             System::Delay(200);
 257:Main.cpp      ****             hw.SetLed(false);
 258:Main.cpp      ****             System::Delay(200);
 259:Main.cpp      ****         }
 260:Main.cpp      ****     }
 261:Main.cpp      **** 
 262:Main.cpp      ****     for(int i = 0; i < padCount; i++)
 1328              		.loc 17 262 22 is_stmt 1 discriminator 3 view .LVU356
 1329 0090 3268     		ldr	r2, [r6]
 1330 0092 AA42     		cmp	r2, r5
 1331 0094 44DD     		ble	.L70
 1332              	.LBB694:
 263:Main.cpp      ****     {
 264:Main.cpp      ****         PadFile& f = tempFiles[i];
 1333              		.loc 17 264 9 discriminator 2 view .LVU357
 1334              	.LVL85:
 265:Main.cpp      ****         memset(&f, 0, sizeof(PadFile));
 1335              		.loc 17 265 9 discriminator 2 view .LVU358
 1336              		.loc 17 265 15 is_stmt 0 discriminator 2 view .LVU359
 1337 0096 4FF40172 		mov	r2, #516
 1338 009a 0021     		movs	r1, #0
ARM GAS  C:\Users\danig\AppData\Local\Temp\ccN1qAGP.s 			page 58


 1339 009c 2046     		mov	r0, r4
 266:Main.cpp      **** 
 267:Main.cpp      ****         // name from padNames — already bounded to 128
 268:Main.cpp      ****         strncpy(f.name, padNames[i], PAD_FILENAME_MAX - 1);
 269:Main.cpp      ****         f.name[PAD_FILENAME_MAX - 1] = '\0';
 1340              		.loc 17 269 38 discriminator 2 view .LVU360
 1341 009e 4FF00008 		mov	r8, #0
 265:Main.cpp      ****         memset(&f, 0, sizeof(PadFile));
 1342              		.loc 17 265 15 discriminator 2 view .LVU361
 1343 00a2 FFF7FEFF 		bl	memset
 1344              	.LVL86:
 268:Main.cpp      ****         f.name[PAD_FILENAME_MAX - 1] = '\0';
 1345              		.loc 17 268 9 is_stmt 1 discriminator 2 view .LVU362
 268:Main.cpp      ****         f.name[PAD_FILENAME_MAX - 1] = '\0';
 1346              		.loc 17 268 16 is_stmt 0 discriminator 2 view .LVU363
 1347 00a6 3946     		mov	r1, r7
 1348 00a8 7F22     		movs	r2, #127
 1349 00aa 2046     		mov	r0, r4
 1350 00ac FFF7FEFF 		bl	strncpy
 1351              	.LVL87:
 1352              		.loc 17 269 9 is_stmt 1 discriminator 2 view .LVU364
 270:Main.cpp      **** 
 271:Main.cpp      ****         // Build filepath using fixed-size pieces to avoid truncation warning
 272:Main.cpp      ****         // /pads/ = 6, name max 119, .wav = 4, null = 1 → total max 130
 273:Main.cpp      ****         char tmp[120];
 274:Main.cpp      ****         strncpy(tmp, f.name, 119);
 1353              		.loc 17 274 16 is_stmt 0 discriminator 2 view .LVU365
 1354 00b0 2146     		mov	r1, r4
 1355 00b2 7722     		movs	r2, #119
 269:Main.cpp      **** 
 1356              		.loc 17 269 38 discriminator 2 view .LVU366
 1357 00b4 84F87F80 		strb	r8, [r4, #127]
 273:Main.cpp      ****         strncpy(tmp, f.name, 119);
 1358              		.loc 17 273 9 is_stmt 1 discriminator 2 view .LVU367
 1359              		.loc 17 274 9 discriminator 2 view .LVU368
 1360              		.loc 17 274 16 is_stmt 0 discriminator 2 view .LVU369
 1361 00b8 0CA8     		add	r0, sp, #48
 1362              	.LBE694:
 262:Main.cpp      ****     {
 1363              		.loc 17 262 5 discriminator 2 view .LVU370
 1364 00ba 0135     		adds	r5, r5, #1
 1365              	.LVL88:
 1366              	.LBB695:
 1367              		.loc 17 274 16 discriminator 2 view .LVU371
 1368 00bc FFF7FEFF 		bl	strncpy
 1369              	.LVL89:
 275:Main.cpp      ****         tmp[119] = '\0';
 1370              		.loc 17 275 9 is_stmt 1 discriminator 2 view .LVU372
 276:Main.cpp      ****         snprintf(f.filepath, sizeof(f.filepath), "/pads/%s.wav", tmp);
 1371              		.loc 17 276 17 is_stmt 0 discriminator 2 view .LVU373
 1372 00c0 04F18000 		add	r0, r4, #128
 275:Main.cpp      ****         tmp[119] = '\0';
 1373              		.loc 17 275 18 discriminator 2 view .LVU374
 1374 00c4 0CAB     		add	r3, sp, #48
 1375              		.loc 17 276 9 is_stmt 1 discriminator 2 view .LVU375
 1376              		.loc 17 276 17 is_stmt 0 discriminator 2 view .LVU376
 1377 00c6 154A     		ldr	r2, .L147+32
ARM GAS  C:\Users\danig\AppData\Local\Temp\ccN1qAGP.s 			page 59


 1378 00c8 4FF48071 		mov	r1, #256
 275:Main.cpp      ****         tmp[119] = '\0';
 1379              		.loc 17 275 18 discriminator 2 view .LVU377
 1380 00cc 8DF8A780 		strb	r8, [sp, #167]
 1381 00d0 04F50174 		add	r4, r4, #516
 1382              	.LVL90:
 275:Main.cpp      ****         tmp[119] = '\0';
 1383              		.loc 17 275 18 discriminator 2 view .LVU378
 1384 00d4 8037     		adds	r7, r7, #128
 1385              		.loc 17 276 17 discriminator 2 view .LVU379
 1386 00d6 FFF7FEFF 		bl	snprintf
 1387              	.LVL91:
 1388              	.LBE695:
 262:Main.cpp      ****     {
 1389              		.loc 17 262 5 is_stmt 1 discriminator 2 view .LVU380
 262:Main.cpp      ****     {
 1390              		.loc 17 262 5 is_stmt 0 discriminator 2 view .LVU381
 1391 00da D9E7     		b	.L68
 1392              	.LVL92:
 1393              	.L69:
 262:Main.cpp      ****     {
 1394              		.loc 17 262 5 discriminator 2 view .LVU382
 1395              	.LBE693:
 253:Main.cpp      ****         {
 1396              		.loc 17 253 9 is_stmt 1 discriminator 1 view .LVU383
 255:Main.cpp      ****             System::Delay(200);
 1397              		.loc 17 255 13 discriminator 1 view .LVU384
 255:Main.cpp      ****             System::Delay(200);
 1398              		.loc 17 255 22 is_stmt 0 discriminator 1 view .LVU385
 1399 00dc 0121     		movs	r1, #1
 1400 00de 0748     		ldr	r0, .L147
 1401 00e0 FFF7FEFF 		bl	_ZN5daisy9DaisySeed6SetLedEb
 1402              	.LVL93:
 256:Main.cpp      ****             hw.SetLed(false);
 1403              		.loc 17 256 13 is_stmt 1 discriminator 1 view .LVU386
 256:Main.cpp      ****             hw.SetLed(false);
 1404              		.loc 17 256 26 is_stmt 0 discriminator 1 view .LVU387
 1405 00e4 C820     		movs	r0, #200
 1406 00e6 FFF7FEFF 		bl	_ZN5daisy6System5DelayEm
 1407              	.LVL94:
 257:Main.cpp      ****             System::Delay(200);
 1408              		.loc 17 257 13 is_stmt 1 discriminator 1 view .LVU388
 257:Main.cpp      ****             System::Delay(200);
 1409              		.loc 17 257 22 is_stmt 0 discriminator 1 view .LVU389
 1410 00ea 0021     		movs	r1, #0
 1411 00ec 0348     		ldr	r0, .L147
 1412 00ee FFF7FEFF 		bl	_ZN5daisy9DaisySeed6SetLedEb
 1413              	.LVL95:
 258:Main.cpp      ****         }
 1414              		.loc 17 258 13 is_stmt 1 discriminator 1 view .LVU390
 258:Main.cpp      ****         }
 1415              		.loc 17 258 26 is_stmt 0 discriminator 1 view .LVU391
 1416 00f2 C820     		movs	r0, #200
 1417 00f4 FFF7FEFF 		bl	_ZN5daisy6System5DelayEm
 1418              	.LVL96:
 253:Main.cpp      ****         {
 1419              		.loc 17 253 9 is_stmt 1 discriminator 1 view .LVU392
ARM GAS  C:\Users\danig\AppData\Local\Temp\ccN1qAGP.s 			page 60


 1420 00f8 F0E7     		b	.L69
 1421              	.L148:
 1422 00fa 00BF     		.align	2
 1423              	.L147:
 1424 00fc 00000000 		.word	.LANCHOR16
 1425 0100 00000000 		.word	.LANCHOR11
 1426 0104 00000000 		.word	.LANCHOR17
 1427 0108 00000000 		.word	.LANCHOR18
 1428 010c 00000000 		.word	.LANCHOR14
 1429 0110 00000000 		.word	padFiles
 1430 0114 00000000 		.word	.LC1
 1431 0118 00000000 		.word	.LANCHOR19
 1432 011c 06000000 		.word	.LC2
 1433              	.LVL97:
 1434              	.L70:
 277:Main.cpp      ****     }
 278:Main.cpp      **** 
 279:Main.cpp      ****     // 3. give to browser
 280:Main.cpp      ****     padBrowser.SetFiles(tempFiles, padCount);
 1435              		.loc 17 280 5 view .LVU393
 1436              		.loc 17 280 24 is_stmt 0 view .LVU394
 1437 0120 4946     		mov	r1, r9
 1438 0122 B548     		ldr	r0, .L149
 1439 0124 FFF7FEFF 		bl	_ZN10PadBrowser8SetFilesEP7PadFilei
 1440              	.LVL98:
 281:Main.cpp      **** 
 282:Main.cpp      **** 
 283:Main.cpp      ****     // Encoder — A, B, SW with internal pullups
 284:Main.cpp      ****     encoder.Init(seed::D20, seed::D19, seed::D18, 1000);
 1441              		.loc 17 284 5 is_stmt 1 view .LVU395
 1442              		.loc 17 284 17 is_stmt 0 view .LVU396
 1443 0128 B44A     		ldr	r2, .L149+4
 1444 012a B549     		ldr	r1, .L149+8
 1445 012c B548     		ldr	r0, .L149+12
 1446 012e 5578     		ldrb	r5, [r2, #1]	@ zero_extendqisi2
 1447              	.LVL99:
 1448              		.loc 17 284 17 view .LVU397
 1449 0130 4C78     		ldrb	r4, [r1, #1]	@ zero_extendqisi2
 1450 0132 1378     		ldrb	r3, [r2]	@ zero_extendqisi2
 1451 0134 0A78     		ldrb	r2, [r1]	@ zero_extendqisi2
 1452 0136 0178     		ldrb	r1, [r0]	@ zero_extendqisi2
 1453 0138 43EA0523 		orr	r3, r3, r5, lsl #8
 1454 013c 4078     		ldrb	r0, [r0, #1]	@ zero_extendqisi2
 1455 013e 42EA0422 		orr	r2, r2, r4, lsl #8
 1456 0142 9FEDB10A 		vldr.32	s0, .L149+16
 285:Main.cpp      **** 
 286:Main.cpp      ****     // LEDs
 287:Main.cpp      ****     ledBpm.Init(seed::D17, GPIO::Mode::OUTPUT);
 1457              		.loc 17 287 16 view .LVU398
 1458 0146 0024     		movs	r4, #0
 284:Main.cpp      **** 
 1459              		.loc 17 284 17 view .LVU399
 1460 0148 41EA0021 		orr	r1, r1, r0, lsl #8
 1461 014c AF48     		ldr	r0, .L149+20
 1462 014e FFF7FEFF 		bl	_ZN5daisy7Encoder4InitENS_3PinES1_S1_f
 1463              	.LVL100:
 1464              		.loc 17 287 5 is_stmt 1 view .LVU400
ARM GAS  C:\Users\danig\AppData\Local\Temp\ccN1qAGP.s 			page 61


 1465              		.loc 17 287 16 is_stmt 0 view .LVU401
 1466 0152 AF4B     		ldr	r3, .L149+24
 1467 0154 0122     		movs	r2, #1
 1468 0156 0094     		str	r4, [sp]
 1469 0158 5878     		ldrb	r0, [r3, #1]	@ zero_extendqisi2
 1470 015a 1978     		ldrb	r1, [r3]	@ zero_extendqisi2
 1471 015c 2346     		mov	r3, r4
 1472 015e 41EA0021 		orr	r1, r1, r0, lsl #8
 1473 0162 AC48     		ldr	r0, .L149+28
 1474 0164 FFF7FEFF 		bl	_ZN5daisy4GPIO4InitENS_3PinENS0_4ModeENS0_4PullENS0_5SpeedE
 1475              	.LVL101:
 288:Main.cpp      ****     ledPad.Init(seed::D16, GPIO::Mode::OUTPUT);
 1476              		.loc 17 288 5 is_stmt 1 view .LVU402
 1477              		.loc 17 288 16 is_stmt 0 view .LVU403
 1478 0168 AB4B     		ldr	r3, .L149+32
 1479 016a 0122     		movs	r2, #1
 1480 016c 0094     		str	r4, [sp]
 1481 016e 5878     		ldrb	r0, [r3, #1]	@ zero_extendqisi2
 1482 0170 1978     		ldrb	r1, [r3]	@ zero_extendqisi2
 1483 0172 2346     		mov	r3, r4
 1484 0174 41EA0021 		orr	r1, r1, r0, lsl #8
 1485 0178 A848     		ldr	r0, .L149+36
 1486 017a FFF7FEFF 		bl	_ZN5daisy4GPIO4InitENS_3PinENS0_4ModeENS0_4PullENS0_5SpeedE
 1487              	.LVL102:
 289:Main.cpp      **** 
 290:Main.cpp      ****     // Start in BPM mode
 291:Main.cpp      ****     ledBpm.Write(true);
 1488              		.loc 17 291 5 is_stmt 1 view .LVU404
 1489              		.loc 17 291 17 is_stmt 0 view .LVU405
 1490 017e 0121     		movs	r1, #1
 1491 0180 A448     		ldr	r0, .L149+28
 1492 0182 FFF7FEFF 		bl	_ZN5daisy4GPIO5WriteEb
 1493              	.LVL103:
 292:Main.cpp      ****     ledPad.Write(false);
 1494              		.loc 17 292 5 is_stmt 1 view .LVU406
 1495              		.loc 17 292 17 is_stmt 0 view .LVU407
 1496 0186 2146     		mov	r1, r4
 1497 0188 A448     		ldr	r0, .L149+36
 1498              	.LBB696:
 1499              	.LBB697:
 1500              	.LBB698:
 1501              	.LBB699:
  72:../../libDaisy//src/per/gpio.h ****     };
  73:../../libDaisy//src/per/gpio.h **** 
  74:../../libDaisy//src/per/gpio.h ****     GPIO() {}
 1502              		.loc 18 74 12 view .LVU408
 1503 018a 21AC     		add	r4, sp, #132
 1504              	.LBE699:
 1505              	.LBE698:
 1506              	.LBE697:
 1507              	.LBE696:
 1508              		.loc 17 292 17 view .LVU409
 1509 018c FFF7FEFF 		bl	_ZN5daisy4GPIO5WriteEb
 1510              	.LVL104:
 293:Main.cpp      **** 
 294:Main.cpp      ****     //ADC
 295:Main.cpp      ****     AdcChannelConfig adcCfg[2];
ARM GAS  C:\Users\danig\AppData\Local\Temp\ccN1qAGP.s 			page 62


 1511              		.loc 17 295 5 is_stmt 1 view .LVU410
 1512              		.loc 17 295 30 view .LVU411
 1513              	.LBB724:
 1514              	.LBI696:
  31:../../libDaisy//src/per/adc.h **** {
 1515              		.loc 7 31 8 view .LVU412
 1516              	.LBB704:
 1517              	.LBI697:
 1518              		.loc 18 74 5 view .LVU413
 1519              	.LBB702:
 1520              	.LBB700:
 1521              		.loc 18 74 12 is_stmt 0 view .LVU414
 1522 0190 0CA8     		add	r0, sp, #48
 1523              	.LVL105:
 1524              		.loc 18 74 12 view .LVU415
 1525 0192 FFF7FEFF 		bl	_ZN5daisy4GPIO6ConfigC1Ev
 1526              	.LVL106:
 1527              		.loc 18 74 12 view .LVU416
 1528              	.LBE700:
 1529              	.LBE702:
 1530              	.LBE704:
 1531              	.LBE724:
  31:../../libDaisy//src/per/adc.h **** {
 1532              		.loc 7 31 8 is_stmt 1 view .LVU417
 1533              	.LBB725:
 1534              	.LBB705:
 1535              	.LBI705:
 1536              		.loc 18 74 5 view .LVU418
 1537              	.LBB706:
 1538              	.LBB707:
 1539              		.loc 18 74 12 is_stmt 0 view .LVU419
 1540 0196 11A8     		add	r0, sp, #68
 1541              	.LVL107:
 1542              		.loc 18 74 12 view .LVU420
 1543 0198 FFF7FEFF 		bl	_ZN5daisy4GPIO6ConfigC1Ev
 1544              	.LVL108:
 1545              		.loc 18 74 12 view .LVU421
 1546              	.LBE707:
 1547              	.LBE706:
 1548              	.LBE705:
 1549              	.LBE725:
  31:../../libDaisy//src/per/adc.h **** {
 1550              		.loc 7 31 8 is_stmt 1 view .LVU422
  31:../../libDaisy//src/per/adc.h **** {
 1551              		.loc 7 31 8 view .LVU423
 1552              	.LBB726:
 1553              	.LBB718:
 1554              		.loc 18 74 5 view .LVU424
 1555              	.LBB713:
 1556              	.LBB708:
 1557              		.loc 18 74 12 is_stmt 0 view .LVU425
 1558 019c 16A8     		add	r0, sp, #88
 1559              	.LVL109:
 1560              		.loc 18 74 12 view .LVU426
 1561 019e FFF7FEFF 		bl	_ZN5daisy4GPIO6ConfigC1Ev
 1562              	.LVL110:
 1563              		.loc 18 74 12 view .LVU427
ARM GAS  C:\Users\danig\AppData\Local\Temp\ccN1qAGP.s 			page 63


 1564              	.LBE708:
 1565              	.LBE713:
 1566              	.LBE718:
 1567              	.LBE726:
  31:../../libDaisy//src/per/adc.h **** {
 1568              		.loc 7 31 8 is_stmt 1 view .LVU428
  31:../../libDaisy//src/per/adc.h **** {
 1569              		.loc 7 31 8 view .LVU429
 1570              	.LBB727:
 1571              	.LBB719:
 1572              		.loc 18 74 5 view .LVU430
 1573              	.LBB714:
 1574              	.LBB709:
 1575              		.loc 18 74 12 is_stmt 0 view .LVU431
 1576 01a2 1BA8     		add	r0, sp, #108
 1577              	.LVL111:
 1578              		.loc 18 74 12 view .LVU432
 1579 01a4 FFF7FEFF 		bl	_ZN5daisy4GPIO6ConfigC1Ev
 1580              	.LVL112:
 1581              		.loc 18 74 12 view .LVU433
 1582              	.LBE709:
 1583              	.LBE714:
 1584              	.LBE719:
 1585              	.LBE727:
  31:../../libDaisy//src/per/adc.h **** {
 1586              		.loc 7 31 8 is_stmt 1 view .LVU434
  31:../../libDaisy//src/per/adc.h **** {
 1587              		.loc 7 31 8 view .LVU435
 1588              		.loc 17 295 30 view .LVU436
 1589              		.loc 17 295 30 view .LVU437
 1590              	.LBB728:
  31:../../libDaisy//src/per/adc.h **** {
 1591              		.loc 7 31 8 view .LVU438
 1592              	.LBB720:
 1593              		.loc 18 74 5 view .LVU439
 1594              	.LBB703:
 1595              	.LBB701:
 1596              		.loc 18 74 12 is_stmt 0 view .LVU440
 1597 01a8 2046     		mov	r0, r4
 1598 01aa FFF7FEFF 		bl	_ZN5daisy4GPIO6ConfigC1Ev
 1599              	.LVL113:
 1600              		.loc 18 74 12 view .LVU441
 1601              	.LBE701:
 1602              	.LBE703:
 1603              	.LBE720:
 1604              	.LBE728:
  31:../../libDaisy//src/per/adc.h **** {
 1605              		.loc 7 31 8 is_stmt 1 view .LVU442
 1606              	.LBB729:
 1607              	.LBB721:
 1608              		.loc 18 74 5 view .LVU443
 1609              	.LBB715:
 1610              	.LBB710:
 1611              		.loc 18 74 12 is_stmt 0 view .LVU444
 1612 01ae 26A8     		add	r0, sp, #152
 1613              	.LVL114:
 1614              		.loc 18 74 12 view .LVU445
ARM GAS  C:\Users\danig\AppData\Local\Temp\ccN1qAGP.s 			page 64


 1615 01b0 FFF7FEFF 		bl	_ZN5daisy4GPIO6ConfigC1Ev
 1616              	.LVL115:
 1617              		.loc 18 74 12 view .LVU446
 1618              	.LBE710:
 1619              	.LBE715:
 1620              	.LBE721:
 1621              	.LBE729:
  31:../../libDaisy//src/per/adc.h **** {
 1622              		.loc 7 31 8 is_stmt 1 view .LVU447
  31:../../libDaisy//src/per/adc.h **** {
 1623              		.loc 7 31 8 view .LVU448
 1624              	.LBB730:
 1625              	.LBB722:
 1626              		.loc 18 74 5 view .LVU449
 1627              	.LBB716:
 1628              	.LBB711:
 1629              		.loc 18 74 12 is_stmt 0 view .LVU450
 1630 01b4 2BA8     		add	r0, sp, #172
 1631              	.LVL116:
 1632              		.loc 18 74 12 view .LVU451
 1633 01b6 FFF7FEFF 		bl	_ZN5daisy4GPIO6ConfigC1Ev
 1634              	.LVL117:
 1635              		.loc 18 74 12 view .LVU452
 1636              	.LBE711:
 1637              	.LBE716:
 1638              	.LBE722:
 1639              	.LBE730:
  31:../../libDaisy//src/per/adc.h **** {
 1640              		.loc 7 31 8 is_stmt 1 view .LVU453
  31:../../libDaisy//src/per/adc.h **** {
 1641              		.loc 7 31 8 view .LVU454
 1642              	.LBB731:
 1643              	.LBB723:
 1644              		.loc 18 74 5 view .LVU455
 1645              	.LBB717:
 1646              	.LBB712:
 1647              		.loc 18 74 12 is_stmt 0 view .LVU456
 1648 01ba 30A8     		add	r0, sp, #192
 1649              	.LVL118:
 1650              		.loc 18 74 12 view .LVU457
 1651 01bc FFF7FEFF 		bl	_ZN5daisy4GPIO6ConfigC1Ev
 1652              	.LVL119:
 1653              		.loc 18 74 12 view .LVU458
 1654              	.LBE712:
 1655              	.LBE717:
 1656              	.LBE723:
 1657              	.LBE731:
  31:../../libDaisy//src/per/adc.h **** {
 1658              		.loc 7 31 8 is_stmt 1 view .LVU459
  31:../../libDaisy//src/per/adc.h **** {
 1659              		.loc 7 31 8 view .LVU460
 1660              		.loc 17 295 30 view .LVU461
 1661              		.loc 17 295 30 view .LVU462
 296:Main.cpp      ****     adcCfg[ADC_PAD_VOL].InitSingle(hw.GetPin(15));   // A0
 1662              		.loc 17 296 5 view .LVU463
 1663              		.loc 17 296 35 is_stmt 0 view .LVU464
 1664 01c0 0F20     		movs	r0, #15
ARM GAS  C:\Users\danig\AppData\Local\Temp\ccN1qAGP.s 			page 65


 1665 01c2 FFF7FEFF 		bl	_ZN5daisy9DaisySeed6GetPinEh
 1666              	.LVL120:
 1667 01c6 0222     		movs	r2, #2
 1668 01c8 ADF82800 		strh	r0, [sp, #40]	@ movhi
 1669 01cc 0CA8     		add	r0, sp, #48
 1670 01ce 0A99     		ldr	r1, [sp, #40]
 1671 01d0 0AAB     		add	r3, sp, #40
 1672 01d2 FFF7FEFF 		bl	_ZN5daisy16AdcChannelConfig10InitSingleENS_3PinENS0_15ConversionSpeedE
 1673              	.LVL121:
 297:Main.cpp      ****     adcCfg[ADC_CLICK_VOL].InitSingle(hw.GetPin(16)); // A1
 1674              		.loc 17 297 5 is_stmt 1 view .LVU465
 1675              		.loc 17 297 37 is_stmt 0 view .LVU466
 1676 01d6 1020     		movs	r0, #16
 1677 01d8 FFF7FEFF 		bl	_ZN5daisy9DaisySeed6GetPinEh
 1678              	.LVL122:
 1679 01dc 0222     		movs	r2, #2
 1680 01de ADF82C00 		strh	r0, [sp, #44]	@ movhi
 1681 01e2 2046     		mov	r0, r4
 1682 01e4 0B99     		ldr	r1, [sp, #44]
 1683 01e6 0BAB     		add	r3, sp, #44
 1684 01e8 FFF7FEFF 		bl	_ZN5daisy16AdcChannelConfig10InitSingleENS_3PinENS0_15ConversionSpeedE
 1685              	.LVL123:
 298:Main.cpp      ****     hw.adc.Init(adcCfg, 2);
 1686              		.loc 17 298 5 is_stmt 1 view .LVU467
 1687              		.loc 17 298 16 is_stmt 0 view .LVU468
 1688 01ec 0423     		movs	r3, #4
 1689 01ee 0222     		movs	r2, #2
 1690 01f0 0CA9     		add	r1, sp, #48
 1691 01f2 8B48     		ldr	r0, .L149+40
 1692 01f4 FFF7FEFF 		bl	_ZN5daisy9AdcHandle4InitEPNS_16AdcChannelConfigEjNS0_12OverSamplingE
 1693              	.LVL124:
 299:Main.cpp      ****     hw.adc.Start();
 1694              		.loc 17 299 5 is_stmt 1 view .LVU469
 1695              		.loc 17 299 17 is_stmt 0 view .LVU470
 1696 01f8 8948     		ldr	r0, .L149+40
 1697 01fa FFF7FEFF 		bl	_ZN5daisy9AdcHandle5StartEv
 1698              	.LVL125:
 300:Main.cpp      **** 
 301:Main.cpp      ****     audioPlayer.Init(hw.AudioSampleRate());
 1699              		.loc 17 301 5 is_stmt 1 view .LVU471
 1700              		.loc 17 301 21 is_stmt 0 view .LVU472
 1701 01fe 8948     		ldr	r0, .L149+44
 1702 0200 FFF7FEFF 		bl	_ZN5daisy9DaisySeed15AudioSampleRateEv
 1703              	.LVL126:
 1704 0204 8848     		ldr	r0, .L149+48
 1705 0206 FFF7FEFF 		bl	_ZN11AudioPlayer4InitEf
 1706              	.LVL127:
 302:Main.cpp      ****     audioPlayer.SetCrossfadeDuration(2.0f);
 1707              		.loc 17 302 5 is_stmt 1 view .LVU473
 1708              		.loc 17 302 37 is_stmt 0 view .LVU474
 1709 020a B0EE000A 		vmov.f32	s0, #2.0e+0
 1710 020e 8648     		ldr	r0, .L149+48
 1711 0210 FFF7FEFF 		bl	_ZN11AudioPlayer20SetCrossfadeDurationEf
 1712              	.LVL128:
 303:Main.cpp      **** 
 304:Main.cpp      ****     SetlistEntry* first  = setlist.GetCurrent();
 1713              		.loc 17 304 5 is_stmt 1 view .LVU475
ARM GAS  C:\Users\danig\AppData\Local\Temp\ccN1qAGP.s 			page 66


 1714              		.loc 17 304 46 is_stmt 0 view .LVU476
 1715 0214 8548     		ldr	r0, .L149+52
 1716 0216 FFF7FEFF 		bl	_ZN7Setlist10GetCurrentEv
 1717              	.LVL129:
 1718 021a 0546     		mov	r5, r0
 1719              	.LVL130:
 305:Main.cpp      ****     SetlistEntry* second = setlist.GetNext();
 1720              		.loc 17 305 5 is_stmt 1 view .LVU477
 1721              		.loc 17 305 43 is_stmt 0 view .LVU478
 1722 021c 8348     		ldr	r0, .L149+52
 1723              	.LVL131:
 1724              		.loc 17 305 43 view .LVU479
 1725 021e FFF7FEFF 		bl	_ZN7Setlist7GetNextEv
 1726              	.LVL132:
 1727 0222 834C     		ldr	r4, .L149+56
 1728 0224 0646     		mov	r6, r0
 1729              	.LVL133:
 306:Main.cpp      **** 
 307:Main.cpp      ****     if(first != nullptr)
 1730              		.loc 17 307 5 is_stmt 1 view .LVU480
 1731 0226 65B1     		cbz	r5, .L71
 308:Main.cpp      ****     {
 309:Main.cpp      ****         metronome.SetBpm(first->bpm);
 1732              		.loc 17 309 9 view .LVU481
 1733              	.LVL134:
 1734              	.LBB732:
 1735              	.LBI732:
 1736              		.loc 21 63 18 view .LVU482
 1737              	.LBB733:
 1738              		.loc 21 63 36 view .LVU483
 1739              		.loc 21 63 41 is_stmt 0 view .LVU484
 1740 0228 D5F8DC30 		ldr	r3, [r5, #220]
 1741              	.LBE733:
 1742              	.LBE732:
 310:Main.cpp      ****         audioPlayer.OpenPad(first->filepath);
 1743              		.loc 17 310 28 view .LVU485
 1744 022c 05F18C01 		add	r1, r5, #140
 1745 0230 7D48     		ldr	r0, .L149+48
 1746              	.LVL135:
 1747              	.LBB735:
 1748              	.LBB734:
 1749              		.loc 21 63 41 view .LVU486
 1750 0232 2360     		str	r3, [r4]
 1751              	.LVL136:
 1752              		.loc 21 63 41 view .LVU487
 1753              	.LBE734:
 1754              	.LBE735:
 1755              		.loc 17 310 9 is_stmt 1 view .LVU488
 1756              		.loc 17 310 28 is_stmt 0 view .LVU489
 1757 0234 FFF7FEFF 		bl	_ZN11AudioPlayer7OpenPadEPKc
 1758              	.LVL137:
 311:Main.cpp      ****         currentKey     = first->key;
 1759              		.loc 17 311 9 is_stmt 1 view .LVU490
 1760              		.loc 17 311 24 is_stmt 0 view .LVU491
 1761 0238 7E4B     		ldr	r3, .L149+60
 1762 023a 1D60     		str	r5, [r3]
 312:Main.cpp      ****         currentPadName = first->name;
ARM GAS  C:\Users\danig\AppData\Local\Temp\ccN1qAGP.s 			page 67


 1763              		.loc 17 312 9 is_stmt 1 view .LVU492
 1764              		.loc 17 312 33 is_stmt 0 view .LVU493
 1765 023c 0435     		adds	r5, r5, #4
 1766              	.LVL138:
 1767              		.loc 17 312 24 view .LVU494
 1768 023e 7E4B     		ldr	r3, .L149+64
 1769              		.loc 17 312 24 view .LVU495
 1770 0240 1D60     		str	r5, [r3]
 1771              	.LVL139:
 1772              	.L71:
 313:Main.cpp      ****     }
 314:Main.cpp      **** 
 315:Main.cpp      ****     if(second != nullptr)
 1773              		.loc 17 315 5 is_stmt 1 view .LVU496
 1774 0242 4EB1     		cbz	r6, .L72
 316:Main.cpp      ****     {
 317:Main.cpp      ****         audioPlayer.PreloadNextPad(second->filepath);
 1775              		.loc 17 317 9 view .LVU497
 1776              		.loc 17 317 35 is_stmt 0 view .LVU498
 1777 0244 06F18C01 		add	r1, r6, #140
 1778 0248 7748     		ldr	r0, .L149+48
 1779 024a FFF7FEFF 		bl	_ZN11AudioPlayer14PreloadNextPadEPKc
 1780              	.LVL140:
 318:Main.cpp      ****         nextKey     = second->key;
 1781              		.loc 17 318 9 is_stmt 1 view .LVU499
 1782              		.loc 17 318 21 is_stmt 0 view .LVU500
 1783 024e 7B4B     		ldr	r3, .L149+68
 1784 0250 1E60     		str	r6, [r3]
 319:Main.cpp      ****         nextPadName = second->name;
 1785              		.loc 17 319 9 is_stmt 1 view .LVU501
 1786              		.loc 17 319 31 is_stmt 0 view .LVU502
 1787 0252 0436     		adds	r6, r6, #4
 1788              	.LVL141:
 1789              		.loc 17 319 21 view .LVU503
 1790 0254 7A4B     		ldr	r3, .L149+72
 1791              		.loc 17 319 21 view .LVU504
 1792 0256 1E60     		str	r6, [r3]
 1793              	.LVL142:
 1794              	.L72:
 320:Main.cpp      ****     }
 321:Main.cpp      **** 
 322:Main.cpp      ****     audioPlayer.OpenClick("/click/click.wav");
 1795              		.loc 17 322 5 is_stmt 1 view .LVU505
 1796              		.loc 17 322 26 is_stmt 0 view .LVU506
 1797 0258 7A49     		ldr	r1, .L149+76
 1798 025a 7348     		ldr	r0, .L149+48
 1799 025c FFF7FEFF 		bl	_ZN11AudioPlayer9OpenClickEPKc
 1800              	.LVL143:
 323:Main.cpp      ****     audioPlayer.OpenClickAccent("/click/click_accent.wav");
 1801              		.loc 17 323 5 is_stmt 1 view .LVU507
 1802              		.loc 17 323 32 is_stmt 0 view .LVU508
 1803 0260 7949     		ldr	r1, .L149+80
 1804 0262 7148     		ldr	r0, .L149+48
 1805 0264 FFF7FEFF 		bl	_ZN11AudioPlayer15OpenClickAccentEPKc
 1806              	.LVL144:
 324:Main.cpp      **** 
 325:Main.cpp      ****     display.Init(); // reinit after SD operations
ARM GAS  C:\Users\danig\AppData\Local\Temp\ccN1qAGP.s 			page 68


 1807              		.loc 17 325 5 is_stmt 1 view .LVU509
 1808              		.loc 17 325 17 is_stmt 0 view .LVU510
 1809 0268 7848     		ldr	r0, .L149+84
 1810 026a FFF7FEFF 		bl	_ZN7Display4InitEv
 1811              	.LVL145:
 326:Main.cpp      **** 
 327:Main.cpp      ****     tapButton.Init(seed::D26,
 1812              		.loc 17 327 5 is_stmt 1 view .LVU511
 1813              		.loc 17 327 19 is_stmt 0 view .LVU512
 1814 026e 784A     		ldr	r2, .L149+88
 1815 0270 0123     		movs	r3, #1
 1816 0272 9FED650A 		vldr.32	s0, .L149+16
 1817 0276 5078     		ldrb	r0, [r2, #1]	@ zero_extendqisi2
 1818 0278 1178     		ldrb	r1, [r2]	@ zero_extendqisi2
 1819 027a 1A46     		mov	r2, r3
 1820 027c 0093     		str	r3, [sp]
 1821 027e 41EA0021 		orr	r1, r1, r0, lsl #8
 1822 0282 7448     		ldr	r0, .L149+92
 1823 0284 FFF7FEFF 		bl	_ZN5daisy6Switch4InitENS_3PinEfNS0_4TypeENS0_8PolarityENS_4GPIO4PullE
 1824              	.LVL146:
 328:Main.cpp      ****                    1000,
 329:Main.cpp      ****                    Switch::TYPE_MOMENTARY,
 330:Main.cpp      ****                    Switch::POLARITY_INVERTED,
 331:Main.cpp      ****                    GPIO::Pull::PULLUP);
 332:Main.cpp      ****     nextButton.Init(seed::D25,
 1825              		.loc 17 332 5 is_stmt 1 view .LVU513
 1826              		.loc 17 332 20 is_stmt 0 view .LVU514
 1827 0288 734A     		ldr	r2, .L149+96
 1828 028a 0123     		movs	r3, #1
 1829 028c 9FED5E0A 		vldr.32	s0, .L149+16
 1830 0290 5078     		ldrb	r0, [r2, #1]	@ zero_extendqisi2
 1831 0292 1178     		ldrb	r1, [r2]	@ zero_extendqisi2
 1832 0294 1A46     		mov	r2, r3
 1833 0296 0093     		str	r3, [sp]
 1834 0298 41EA0021 		orr	r1, r1, r0, lsl #8
 1835 029c 6F48     		ldr	r0, .L149+100
 1836 029e FFF7FEFF 		bl	_ZN5daisy6Switch4InitENS_3PinEfNS0_4TypeENS0_8PolarityENS_4GPIO4PullE
 1837              	.LVL147:
 333:Main.cpp      ****                     1000,
 334:Main.cpp      ****                     Switch::TYPE_MOMENTARY,
 335:Main.cpp      ****                     Switch::POLARITY_INVERTED,
 336:Main.cpp      ****                     GPIO::Pull::PULLUP);
 337:Main.cpp      ****     playStopButton.Init(seed::D24,
 1838              		.loc 17 337 5 is_stmt 1 view .LVU515
 1839              		.loc 17 337 24 is_stmt 0 view .LVU516
 1840 02a2 6F4A     		ldr	r2, .L149+104
 1841 02a4 0123     		movs	r3, #1
 1842 02a6 9FED580A 		vldr.32	s0, .L149+16
 1843 02aa 5078     		ldrb	r0, [r2, #1]	@ zero_extendqisi2
 1844 02ac 1178     		ldrb	r1, [r2]	@ zero_extendqisi2
 1845 02ae 1A46     		mov	r2, r3
 1846 02b0 0093     		str	r3, [sp]
 1847 02b2 41EA0021 		orr	r1, r1, r0, lsl #8
 1848 02b6 6B48     		ldr	r0, .L149+108
 1849 02b8 FFF7FEFF 		bl	_ZN5daisy6Switch4InitENS_3PinEfNS0_4TypeENS0_8PolarityENS_4GPIO4PullE
 1850              	.LVL148:
 338:Main.cpp      ****                         1000,
ARM GAS  C:\Users\danig\AppData\Local\Temp\ccN1qAGP.s 			page 69


 339:Main.cpp      ****                         Switch::TYPE_MOMENTARY,
 340:Main.cpp      ****                         Switch::POLARITY_INVERTED,
 341:Main.cpp      ****                         GPIO::Pull::PULLUP);
 342:Main.cpp      ****     clickMuteButton.Init(seed::D22,
 1851              		.loc 17 342 5 is_stmt 1 view .LVU517
 1852              		.loc 17 342 25 is_stmt 0 view .LVU518
 1853 02bc 6A4A     		ldr	r2, .L149+112
 1854 02be 0123     		movs	r3, #1
 1855 02c0 9FED510A 		vldr.32	s0, .L149+16
 1856 02c4 5078     		ldrb	r0, [r2, #1]	@ zero_extendqisi2
 1857 02c6 1178     		ldrb	r1, [r2]	@ zero_extendqisi2
 1858 02c8 1A46     		mov	r2, r3
 1859 02ca 0093     		str	r3, [sp]
 1860 02cc 41EA0021 		orr	r1, r1, r0, lsl #8
 1861 02d0 6648     		ldr	r0, .L149+116
 1862 02d2 FFF7FEFF 		bl	_ZN5daisy6Switch4InitENS_3PinEfNS0_4TypeENS0_8PolarityENS_4GPIO4PullE
 1863              	.LVL149:
 343:Main.cpp      ****                          1000,
 344:Main.cpp      ****                          Switch::TYPE_MOMENTARY,
 345:Main.cpp      ****                          Switch::POLARITY_INVERTED,
 346:Main.cpp      ****                          GPIO::Pull::PULLUP);
 347:Main.cpp      **** 
 348:Main.cpp      ****     hw.SetAudioBlockSize(1024);
 1864              		.loc 17 348 5 is_stmt 1 view .LVU519
 1865              		.loc 17 348 25 is_stmt 0 view .LVU520
 1866 02d6 4FF48061 		mov	r1, #1024
 1867 02da 5248     		ldr	r0, .L149+44
 1868 02dc FFF7FEFF 		bl	_ZN5daisy9DaisySeed17SetAudioBlockSizeEj
 1869              	.LVL150:
 349:Main.cpp      ****     hw.StartAudio(AudioCallback);
 1870              		.loc 17 349 5 is_stmt 1 view .LVU521
 1871              		.loc 17 349 18 is_stmt 0 view .LVU522
 1872 02e0 5048     		ldr	r0, .L149+44
 1873 02e2 6349     		ldr	r1, .L149+120
 1874 02e4 FFF7FEFF 		bl	_ZN5daisy9DaisySeed10StartAudioEPFvPKPKfPPfjE
 1875              	.LVL151:
 350:Main.cpp      ****     audioPlayer.Play();
 1876              		.loc 17 350 5 is_stmt 1 view .LVU523
 1877              		.loc 17 350 21 is_stmt 0 view .LVU524
 1878 02e8 4F48     		ldr	r0, .L149+48
 1879 02ea FFF7FEFF 		bl	_ZN11AudioPlayer4PlayEv
 1880              	.LVL152:
 1881              	.L98:
 351:Main.cpp      **** 
 352:Main.cpp      ****     while(1)
 1882              		.loc 17 352 5 is_stmt 1 view .LVU525
 1883              	.LBB736:
 353:Main.cpp      ****     {
 354:Main.cpp      ****         audioPlayer.Prepare();
 1884              		.loc 17 354 9 view .LVU526
 1885              		.loc 17 354 28 is_stmt 0 view .LVU527
 1886 02ee 4E48     		ldr	r0, .L149+48
 1887 02f0 FFF7FEFF 		bl	_ZN11AudioPlayer7PrepareEv
 1888              	.LVL153:
 355:Main.cpp      **** 
 356:Main.cpp      ****         tapButton.Debounce();
 1889              		.loc 17 356 9 is_stmt 1 view .LVU528
ARM GAS  C:\Users\danig\AppData\Local\Temp\ccN1qAGP.s 			page 70


 1890              		.loc 17 356 27 is_stmt 0 view .LVU529
 1891 02f4 5748     		ldr	r0, .L149+92
 1892 02f6 FFF7FEFF 		bl	_ZN5daisy6Switch8DebounceEv
 1893              	.LVL154:
 357:Main.cpp      ****         nextButton.Debounce();
 1894              		.loc 17 357 9 is_stmt 1 view .LVU530
 1895              		.loc 17 357 28 is_stmt 0 view .LVU531
 1896 02fa 5848     		ldr	r0, .L149+100
 1897 02fc FFF7FEFF 		bl	_ZN5daisy6Switch8DebounceEv
 1898              	.LVL155:
 358:Main.cpp      ****         playStopButton.Debounce();
 1899              		.loc 17 358 9 is_stmt 1 view .LVU532
 1900              		.loc 17 358 32 is_stmt 0 view .LVU533
 1901 0300 5848     		ldr	r0, .L149+108
 1902 0302 FFF7FEFF 		bl	_ZN5daisy6Switch8DebounceEv
 1903              	.LVL156:
 359:Main.cpp      ****         clickMuteButton.Debounce();
 1904              		.loc 17 359 9 is_stmt 1 view .LVU534
 1905              		.loc 17 359 33 is_stmt 0 view .LVU535
 1906 0306 5948     		ldr	r0, .L149+116
 1907 0308 FFF7FEFF 		bl	_ZN5daisy6Switch8DebounceEv
 1908              	.LVL157:
 360:Main.cpp      **** 
 361:Main.cpp      ****         // read Pots
 362:Main.cpp      ****         float rawPad   = hw.adc.GetFloat(ADC_PAD_VOL);
 1909              		.loc 17 362 9 is_stmt 1 view .LVU536
 1910              		.loc 17 362 41 is_stmt 0 view .LVU537
 1911 030c 0021     		movs	r1, #0
 1912 030e 4448     		ldr	r0, .L149+40
 1913 0310 FFF7FEFF 		bl	_ZNK5daisy9AdcHandle8GetFloatEh
 1914              	.LVL158:
 1915 0314 F0EE408A 		vmov.f32	s17, s0
 1916              	.LVL159:
 363:Main.cpp      ****         float rawClick = hw.adc.GetFloat(ADC_CLICK_VOL);
 1917              		.loc 17 363 9 is_stmt 1 view .LVU538
 1918              		.loc 17 363 41 is_stmt 0 view .LVU539
 1919 0318 4148     		ldr	r0, .L149+40
 1920 031a 0121     		movs	r1, #1
 1921              	.LBB737:
 1922              	.LBB738:
  15:AudioPlayer.h **** {
  16:AudioPlayer.h ****   public:
  17:AudioPlayer.h ****     AudioPlayer();
  18:AudioPlayer.h **** 
  19:AudioPlayer.h ****     void Init(float sampleRate);
  20:AudioPlayer.h ****     void SetCrossfadeDuration(float seconds);
  21:AudioPlayer.h **** 
  22:AudioPlayer.h ****     void Prepare();
  23:AudioPlayer.h **** 
  24:AudioPlayer.h ****     void OpenPad(const char* filepath);
  25:AudioPlayer.h ****     void PreloadNextPad(const char* filepath);
  26:AudioPlayer.h ****     void CrossfadeToPreloaded();
  27:AudioPlayer.h **** 
  28:AudioPlayer.h ****     void OpenClick(const char* filepath);
  29:AudioPlayer.h ****     void OpenClickAccent(const char* filepath);
  30:AudioPlayer.h **** 
  31:AudioPlayer.h ****     void Process(float& padOut, float& clickOut);
ARM GAS  C:\Users\danig\AppData\Local\Temp\ccN1qAGP.s 			page 71


  32:AudioPlayer.h **** 
  33:AudioPlayer.h ****     void  TriggerClick(bool isAccent);
  34:AudioPlayer.h ****     void  Play();
  35:AudioPlayer.h ****     void  Stop();
  36:AudioPlayer.h ****     void  SetClickMuted(bool muted);
  37:AudioPlayer.h ****     void  SetPadVolume(float vol) { padVolume_ = vol; }
 1923              		.loc 14 37 48 view .LVU540
 1924 031c 554D     		ldr	r5, .L149+124
 1925              	.LBE738:
 1926              	.LBE737:
 1927              		.loc 17 363 41 view .LVU541
 1928 031e FFF7FEFF 		bl	_ZNK5daisy9AdcHandle8GetFloatEh
 1929              	.LVL160:
 364:Main.cpp      ****         audioPlayer.SetPadVolume(rawPad * rawPad);
 1930              		.loc 17 364 33 view .LVU542
 1931 0322 68EEA88A 		vmul.f32	s17, s17, s17
 1932              	.LVL161:
 1933              	.LBB741:
 1934              	.LBB739:
 1935              		.loc 14 37 48 view .LVU543
 1936 0326 05F5A963 		add	r3, r5, #1352
 1937              	.LBE739:
 1938              	.LBE741:
 365:Main.cpp      ****         // Only write click volume from the pot when unmuted — mute holds it at 0
 366:Main.cpp      ****         if(audioPlayer.IsClickPlaying())
 1939              		.loc 17 366 38 view .LVU544
 1940 032a A5F5CC20 		sub	r0, r5, #417792
 363:Main.cpp      ****         audioPlayer.SetPadVolume(rawPad * rawPad);
 1941              		.loc 17 363 41 view .LVU545
 1942 032e B0EE408A 		vmov.f32	s16, s0
 1943              	.LVL162:
 364:Main.cpp      ****         audioPlayer.SetPadVolume(rawPad * rawPad);
 1944              		.loc 17 364 9 is_stmt 1 view .LVU546
 1945              	.LBB742:
 1946              	.LBI737:
 1947              		.loc 14 37 11 view .LVU547
 1948              	.LBB740:
 1949              		.loc 14 37 37 view .LVU548
 1950              		.loc 14 37 48 is_stmt 0 view .LVU549
 1951 0332 C3ED008A 		vstr.32	s17, [r3]
 1952              	.LVL163:
 1953              		.loc 14 37 48 view .LVU550
 1954              	.LBE740:
 1955              	.LBE742:
 1956              		.loc 17 366 9 is_stmt 1 view .LVU551
 1957              		.loc 17 366 38 is_stmt 0 view .LVU552
 1958 0336 FFF7FEFF 		bl	_ZNK11AudioPlayer14IsClickPlayingEv
 1959              	.LVL164:
 1960              		.loc 17 366 9 view .LVU553
 1961 033a 28B1     		cbz	r0, .L73
 367:Main.cpp      ****             audioPlayer.SetClickVolume(rawClick * rawClick);
 1962              		.loc 17 367 13 is_stmt 1 view .LVU554
 1963              	.LVL165:
 1964              	.LBB743:
 1965              	.LBI743:
  38:AudioPlayer.h ****     void  SetClickVolume(float vol) { clickVolume_ = vol; }
 1966              		.loc 14 38 11 view .LVU555
ARM GAS  C:\Users\danig\AppData\Local\Temp\ccN1qAGP.s 			page 72


 1967              	.LBB744:
 1968              		.loc 14 38 39 view .LVU556
 1969              	.LBE744:
 1970              	.LBE743:
 1971              		.loc 17 367 39 is_stmt 0 view .LVU557
 1972 033c 28EE088A 		vmul.f32	s16, s16, s16
 1973              	.LVL166:
 1974              	.LBB746:
 1975              	.LBB745:
 1976              		.loc 14 38 52 view .LVU558
 1977 0340 05F24C55 		addw	r5, r5, #1356
 1978 0344 85ED008A 		vstr.32	s16, [r5]
 1979              	.LVL167:
 1980              	.L73:
 1981              		.loc 14 38 52 view .LVU559
 1982              	.LBE745:
 1983              	.LBE746:
 368:Main.cpp      **** 
 369:Main.cpp      ****         if(tapButton.RisingEdge())
 1984              		.loc 17 369 9 is_stmt 1 view .LVU560
 1985              	.LBB747:
 1986              	.LBI747:
  65:../../libDaisy//src/hid/switch.h **** 
 1987              		.loc 1 65 17 view .LVU561
 1988              	.LBB748:
  65:../../libDaisy//src/hid/switch.h **** 
 1989              		.loc 1 65 38 view .LVU562
  65:../../libDaisy//src/hid/switch.h **** 
 1990              		.loc 1 65 45 is_stmt 0 view .LVU563
 1991 0348 424B     		ldr	r3, .L149+92
  65:../../libDaisy//src/hid/switch.h **** 
 1992              		.loc 1 65 54 view .LVU564
 1993 034a 1A79     		ldrb	r2, [r3, #4]	@ zero_extendqisi2
 1994 034c 002A     		cmp	r2, #0
 1995 034e 35D0     		beq	.L74
 1996              	.LVL168:
  65:../../libDaisy//src/hid/switch.h **** 
 1997              		.loc 1 65 54 view .LVU565
 1998              	.LBE748:
 1999              	.LBE747:
 2000              		.loc 17 369 9 view .LVU566
 2001 0350 1B7F     		ldrb	r3, [r3, #28]	@ zero_extendqisi2
 2002 0352 7F2B     		cmp	r3, #127
 2003 0354 32D1     		bne	.L74
 370:Main.cpp      ****             metronome.Tap(System::GetNow());
 2004              		.loc 17 370 13 is_stmt 1 view .LVU567
 2005              		.loc 17 370 41 is_stmt 0 view .LVU568
 2006 0356 FFF7FEFF 		bl	_ZN5daisy6System6GetNowEv
 2007              	.LVL169:
 2008              	.LBB749:
 2009              	.LBI749:
  21:Metronome.h   ****     {
 2010              		.loc 21 21 10 is_stmt 1 view .LVU569
 2011              	.LBB750:
  23:Metronome.h   ****         {
 2012              		.loc 21 23 9 view .LVU570
 2013              	.LBB751:
ARM GAS  C:\Users\danig\AppData\Local\Temp\ccN1qAGP.s 			page 73


  23:Metronome.h   ****         {
 2014              		.loc 21 23 12 is_stmt 0 view .LVU571
 2015 035a A268     		ldr	r2, [r4, #8]
  23:Metronome.h   ****         {
 2016              		.loc 21 23 9 view .LVU572
 2017 035c 002A     		cmp	r2, #0
 2018 035e 00F02981 		beq	.L75
 2019              	.LBB752:
  25:Metronome.h   ****             lastInterval_         = interval;
 2020              		.loc 21 25 13 is_stmt 1 view .LVU573
  25:Metronome.h   ****             lastInterval_         = interval;
 2021              		.loc 21 25 26 is_stmt 0 view .LVU574
 2022 0362 821A     		subs	r2, r0, r2
 2023              	.LVL170:
  26:Metronome.h   **** 
 2024              		.loc 21 26 13 is_stmt 1 view .LVU575
 2025              	.LBB753:
  28:Metronome.h   ****             {
 2026              		.loc 21 28 13 is_stmt 0 view .LVU576
 2027 0364 40F2E243 		movw	r3, #1250
  28:Metronome.h   ****             {
 2028              		.loc 21 28 32 view .LVU577
 2029 0368 A2F1FA01 		sub	r1, r2, #250
 2030              	.LBE753:
  26:Metronome.h   **** 
 2031              		.loc 21 26 35 view .LVU578
 2032 036c E260     		str	r2, [r4, #12]
  28:Metronome.h   ****             {
 2033              		.loc 21 28 13 is_stmt 1 view .LVU579
 2034              	.LBB757:
 2035 036e 9942     		cmp	r1, r3
 2036 0370 00F21981 		bhi	.L76
 2037              	.LBB754:
  30:Metronome.h   ****                 tapCount_++;
 2038              		.loc 21 30 17 view .LVU580
  30:Metronome.h   ****                 tapCount_++;
 2039              		.loc 21 30 28 is_stmt 0 view .LVU581
 2040 0374 6368     		ldr	r3, [r4, #4]
  30:Metronome.h   ****                 tapCount_++;
 2041              		.loc 21 30 38 view .LVU582
 2042 0376 5D42     		rsbs	r5, r3, #0
 2043 0378 03F00301 		and	r1, r3, #3
  31:Metronome.h   **** 
 2044              		.loc 21 31 26 view .LVU583
 2045 037c 03F10103 		add	r3, r3, #1
  30:Metronome.h   ****                 tapCount_++;
 2046              		.loc 21 30 38 view .LVU584
 2047 0380 05F00305 		and	r5, r5, #3
  31:Metronome.h   **** 
 2048              		.loc 21 31 26 view .LVU585
 2049 0384 6360     		str	r3, [r4, #4]
  34:Metronome.h   ****                 for(int i = 0; i < TAP_BUFFER_SIZE; i++)
 2050              		.loc 21 34 30 view .LVU586
 2051 0386 4FF00003 		mov	r3, #0
  30:Metronome.h   ****                 tapCount_++;
 2052              		.loc 21 30 38 view .LVU587
 2053 038a 58BF     		it	pl
ARM GAS  C:\Users\danig\AppData\Local\Temp\ccN1qAGP.s 			page 74


 2054 038c 6942     		rsbpl	r1, r5, #0
 2055 038e 3A4D     		ldr	r5, .L149+128
  30:Metronome.h   ****                 tapCount_++;
 2056              		.loc 21 30 57 view .LVU588
 2057 0390 0431     		adds	r1, r1, #4
 2058 0392 44F82120 		str	r2, [r4, r1, lsl #2]
  31:Metronome.h   **** 
 2059              		.loc 21 31 17 is_stmt 1 view .LVU589
  33:Metronome.h   ****                 int          count = 0;
 2060              		.loc 21 33 17 view .LVU590
 2061              	.LVL171:
  34:Metronome.h   ****                 for(int i = 0; i < TAP_BUFFER_SIZE; i++)
 2062              		.loc 21 34 17 view .LVU591
  35:Metronome.h   ****                 {
 2063              		.loc 21 35 17 view .LVU592
 2064              	.LBB755:
  35:Metronome.h   ****                 {
 2065              		.loc 21 35 34 view .LVU593
 2066              	.LBE755:
  33:Metronome.h   ****                 int          count = 0;
 2067              		.loc 21 33 30 is_stmt 0 view .LVU594
 2068 0396 1A46     		mov	r2, r3
 2069              	.LVL172:
 2070              	.LBB756:
  35:Metronome.h   ****                 {
 2071              		.loc 21 35 25 view .LVU595
 2072 0398 1946     		mov	r1, r3
 2073              	.LVL173:
 2074              	.L78:
  37:Metronome.h   ****                     {
 2075              		.loc 21 37 21 is_stmt 1 view .LVU596
  37:Metronome.h   ****                     {
 2076              		.loc 21 37 36 is_stmt 0 view .LVU597
 2077 039a 55F8046B 		ldr	r6, [r5], #4
  37:Metronome.h   ****                     {
 2078              		.loc 21 37 21 view .LVU598
 2079 039e 0EB1     		cbz	r6, .L77
  39:Metronome.h   ****                         count++;
 2080              		.loc 21 39 25 is_stmt 1 view .LVU599
  39:Metronome.h   ****                         count++;
 2081              		.loc 21 39 29 is_stmt 0 view .LVU600
 2082 03a0 3244     		add	r2, r2, r6
 2083              	.LVL174:
  40:Metronome.h   ****                     }
 2084              		.loc 21 40 25 is_stmt 1 view .LVU601
  40:Metronome.h   ****                     }
 2085              		.loc 21 40 30 is_stmt 0 view .LVU602
 2086 03a2 0133     		adds	r3, r3, #1
 2087              	.LVL175:
 2088              	.L77:
  35:Metronome.h   ****                 {
 2089              		.loc 21 35 17 is_stmt 1 view .LVU603
 2090 03a4 0131     		adds	r1, r1, #1
 2091              	.LVL176:
  35:Metronome.h   ****                 {
 2092              		.loc 21 35 34 view .LVU604
 2093 03a6 0429     		cmp	r1, #4
ARM GAS  C:\Users\danig\AppData\Local\Temp\ccN1qAGP.s 			page 75


 2094 03a8 F7D1     		bne	.L78
  35:Metronome.h   ****                 {
 2095              		.loc 21 35 34 is_stmt 0 view .LVU605
 2096              	.LBE756:
  43:Metronome.h   ****                     bpm_ = 60000 / (sum / count);
 2097              		.loc 21 43 17 is_stmt 1 view .LVU606
 2098 03aa 33B1     		cbz	r3, .L79
  44:Metronome.h   ****             }
 2099              		.loc 21 44 21 view .LVU607
  44:Metronome.h   ****             }
 2100              		.loc 21 44 41 is_stmt 0 view .LVU608
 2101 03ac B2FBF3F3 		udiv	r3, r2, r3
 2102              	.LVL177:
  44:Metronome.h   ****             }
 2103              		.loc 21 44 34 view .LVU609
 2104 03b0 4EF66022 		movw	r2, #60000
 2105              	.LVL178:
  44:Metronome.h   ****             }
 2106              		.loc 21 44 34 view .LVU610
 2107 03b4 B2FBF3F3 		udiv	r3, r2, r3
  44:Metronome.h   ****             }
 2108              		.loc 21 44 26 view .LVU611
 2109 03b8 2360     		str	r3, [r4]
 2110              	.LVL179:
 2111              	.L79:
  44:Metronome.h   ****             }
 2112              		.loc 21 44 26 view .LVU612
 2113              	.LBE754:
 2114              	.LBE757:
 2115              	.LBE752:
 2116              	.LBE751:
  59:Metronome.h   ****     };
 2117              		.loc 21 59 9 is_stmt 1 view .LVU613
  59:Metronome.h   ****     };
 2118              		.loc 21 59 22 is_stmt 0 view .LVU614
 2119 03ba A060     		str	r0, [r4, #8]
 2120              	.LVL180:
 2121              	.L74:
  59:Metronome.h   ****     };
 2122              		.loc 21 59 22 view .LVU615
 2123              	.LBE750:
 2124              	.LBE749:
 371:Main.cpp      **** 
 372:Main.cpp      ****         if(nextButton.RisingEdge() && !audioPlayer.IsCrossfading())
 2125              		.loc 17 372 9 is_stmt 1 view .LVU616
 2126              	.LBB764:
 2127              	.LBB765:
 2128              	.LBI765:
  65:../../libDaisy//src/hid/switch.h **** 
 2129              		.loc 1 65 17 view .LVU617
 2130              	.LBB766:
  65:../../libDaisy//src/hid/switch.h **** 
 2131              		.loc 1 65 38 view .LVU618
  65:../../libDaisy//src/hid/switch.h **** 
 2132              		.loc 1 65 45 is_stmt 0 view .LVU619
 2133 03bc 274B     		ldr	r3, .L149+100
  65:../../libDaisy//src/hid/switch.h **** 
ARM GAS  C:\Users\danig\AppData\Local\Temp\ccN1qAGP.s 			page 76


 2134              		.loc 1 65 54 view .LVU620
 2135 03be 1A79     		ldrb	r2, [r3, #4]	@ zero_extendqisi2
 2136 03c0 002A     		cmp	r2, #0
 2137 03c2 65D0     		beq	.L81
 2138              	.LVL181:
  65:../../libDaisy//src/hid/switch.h **** 
 2139              		.loc 1 65 54 view .LVU621
 2140              	.LBE766:
 2141              	.LBE765:
 2142              		.loc 17 372 36 view .LVU622
 2143 03c4 1B7F     		ldrb	r3, [r3, #28]	@ zero_extendqisi2
 2144 03c6 7F2B     		cmp	r3, #127
 2145 03c8 62D1     		bne	.L81
 2146              		.loc 17 372 65 discriminator 1 view .LVU623
 2147 03ca 1748     		ldr	r0, .L149+48
 2148 03cc FFF7FEFF 		bl	_ZNK11AudioPlayer13IsCrossfadingEv
 2149              	.LVL182:
 2150              		.loc 17 372 36 discriminator 1 view .LVU624
 2151 03d0 0028     		cmp	r0, #0
 2152 03d2 5DD1     		bne	.L81
 2153              	.LBB767:
 373:Main.cpp      ****         {
 374:Main.cpp      ****             setlist.Next();
 2154              		.loc 17 374 13 is_stmt 1 view .LVU625
 2155              		.loc 17 374 25 is_stmt 0 view .LVU626
 2156 03d4 1548     		ldr	r0, .L149+52
 2157 03d6 FFF7FEFF 		bl	_ZN7Setlist4NextEv
 2158              	.LVL183:
 375:Main.cpp      ****             SetlistEntry* current = setlist.GetCurrent();
 2159              		.loc 17 375 13 is_stmt 1 view .LVU627
 2160              		.loc 17 375 55 is_stmt 0 view .LVU628
 2161 03da 1448     		ldr	r0, .L149+52
 2162 03dc FFF7FEFF 		bl	_ZN7Setlist10GetCurrentEv
 2163              	.LVL184:
 376:Main.cpp      **** 
 377:Main.cpp      ****             if(current != nullptr)
 2164              		.loc 17 377 13 is_stmt 1 view .LVU629
 2165 03e0 0546     		mov	r5, r0
 2166 03e2 0028     		cmp	r0, #0
 2167 03e4 4DD0     		beq	.L83
 378:Main.cpp      ****             {
 379:Main.cpp      ****                 metronome.SetBpm(current->bpm);
 2168              		.loc 17 379 17 view .LVU630
 2169              	.LVL185:
 2170              	.LBB768:
 2171              	.LBI768:
 2172              		.loc 21 63 18 view .LVU631
 2173              	.LBB769:
 2174              		.loc 21 63 36 view .LVU632
 2175              		.loc 21 63 41 is_stmt 0 view .LVU633
 2176 03e6 D0F8DC30 		ldr	r3, [r0, #220]
 2177              	.LBE769:
 2178              	.LBE768:
 380:Main.cpp      ****                 audioPlayer.CrossfadeToPreloaded();
 2179              		.loc 17 380 49 view .LVU634
 2180 03ea 0F48     		ldr	r0, .L149+48
 2181              	.LVL186:
ARM GAS  C:\Users\danig\AppData\Local\Temp\ccN1qAGP.s 			page 77


 2182              	.LBB771:
 2183              	.LBB770:
 2184              		.loc 21 63 41 view .LVU635
 2185 03ec 2360     		str	r3, [r4]
 2186              	.LVL187:
 2187              		.loc 21 63 41 view .LVU636
 2188              	.LBE770:
 2189              	.LBE771:
 2190              		.loc 17 380 17 is_stmt 1 view .LVU637
 2191              		.loc 17 380 49 is_stmt 0 view .LVU638
 2192 03ee FFF7FEFF 		bl	_ZN11AudioPlayer20CrossfadeToPreloadedEv
 2193              	.LVL188:
 381:Main.cpp      ****                 currentKey     = current->key;
 2194              		.loc 17 381 17 is_stmt 1 view .LVU639
 2195              		.loc 17 381 32 is_stmt 0 view .LVU640
 2196 03f2 104B     		ldr	r3, .L149+60
 2197 03f4 1D60     		str	r5, [r3]
 2198 03f6 41E0     		b	.L150
 2199              	.L151:
 2200              		.align	2
 2201              	.L149:
 2202 03f8 00000000 		.word	padBrowser
 2203 03fc 00000000 		.word	.LANCHOR20
 2204 0400 00000000 		.word	.LANCHOR21
 2205 0404 00000000 		.word	.LANCHOR22
 2206 0408 00007A44 		.word	1148846080
 2207 040c 00000000 		.word	.LANCHOR0
 2208 0410 00000000 		.word	.LANCHOR23
 2209 0414 00000000 		.word	.LANCHOR8
 2210 0418 00000000 		.word	.LANCHOR24
 2211 041c 00000000 		.word	.LANCHOR9
 2212 0420 18000000 		.word	.LANCHOR16+24
 2213 0424 00000000 		.word	.LANCHOR16
 2214 0428 00000000 		.word	audioPlayer
 2215 042c 00000000 		.word	.LANCHOR18
 2216 0430 00000000 		.word	.LANCHOR12
 2217 0434 00000000 		.word	.LANCHOR5
 2218 0438 00000000 		.word	.LANCHOR6
 2219 043c 00000000 		.word	.LANCHOR25
 2220 0440 00000000 		.word	.LANCHOR26
 2221 0444 13000000 		.word	.LC3
 2222 0448 24000000 		.word	.LC4
 2223 044c 00000000 		.word	.LANCHOR11
 2224 0450 00000000 		.word	.LANCHOR27
 2225 0454 00000000 		.word	.LANCHOR28
 2226 0458 00000000 		.word	.LANCHOR29
 2227 045c 00000000 		.word	.LANCHOR30
 2228 0460 00000000 		.word	.LANCHOR31
 2229 0464 00000000 		.word	.LANCHOR32
 2230 0468 00000000 		.word	.LANCHOR33
 2231 046c 00000000 		.word	.LANCHOR34
 2232 0470 00000000 		.word	_Z13AudioCallbackPKPKfPPfj
 2233 0474 00600600 		.word	audioPlayer+417792
 2234 0478 10000000 		.word	.LANCHOR12+16
 2235              	.L150:
 382:Main.cpp      ****                 currentPadName = current->name;
 2236              		.loc 17 382 17 is_stmt 1 view .LVU641
ARM GAS  C:\Users\danig\AppData\Local\Temp\ccN1qAGP.s 			page 78


 2237              		.loc 17 382 43 is_stmt 0 view .LVU642
 2238 047c 0435     		adds	r5, r5, #4
 2239              	.LVL189:
 2240              		.loc 17 382 32 view .LVU643
 2241 047e 524B     		ldr	r3, .L152
 2242              		.loc 17 382 32 view .LVU644
 2243 0480 1D60     		str	r5, [r3]
 2244              	.LVL190:
 2245              	.L83:
 383:Main.cpp      ****             }
 384:Main.cpp      **** 
 385:Main.cpp      ****             beatCount    = 0;
 2246              		.loc 17 385 13 is_stmt 1 view .LVU645
 2247              		.loc 17 385 26 is_stmt 0 view .LVU646
 2248 0482 524B     		ldr	r3, .L152+4
 2249 0484 0022     		movs	r2, #0
 2250 0486 1A60     		str	r2, [r3]
 386:Main.cpp      ****             lastBeatTime = System::GetNow();
 2251              		.loc 17 386 13 is_stmt 1 view .LVU647
 2252              		.loc 17 386 42 is_stmt 0 view .LVU648
 2253 0488 FFF7FEFF 		bl	_ZN5daisy6System6GetNowEv
 2254              	.LVL191:
 2255              		.loc 17 386 26 view .LVU649
 2256 048c 504B     		ldr	r3, .L152+8
 2257 048e 1860     		str	r0, [r3]
 2258              	.L81:
 2259              		.loc 17 386 26 view .LVU650
 2260              	.LBE767:
 2261              	.LBE764:
 387:Main.cpp      ****         }
 388:Main.cpp      **** 
 389:Main.cpp      ****         bool isNowCrossfading = audioPlayer.IsCrossfading();
 2262              		.loc 17 389 9 is_stmt 1 view .LVU651
 2263              	.LBB772:
 390:Main.cpp      **** 
 391:Main.cpp      ****         if(WasCrossfading_ && !isNowCrossfading)
 2264              		.loc 17 391 9 is_stmt 0 view .LVU652
 2265 0490 504E     		ldr	r6, .L152+12
 2266              	.LBE772:
 389:Main.cpp      **** 
 2267              		.loc 17 389 58 view .LVU653
 2268 0492 5148     		ldr	r0, .L152+16
 2269 0494 FFF7FEFF 		bl	_ZNK11AudioPlayer13IsCrossfadingEv
 2270              	.LVL192:
 2271              	.LBB774:
 2272              		.loc 17 391 9 view .LVU654
 2273 0498 3378     		ldrb	r3, [r6]	@ zero_extendqisi2
 2274              	.LBE774:
 389:Main.cpp      **** 
 2275              		.loc 17 389 58 view .LVU655
 2276 049a 0546     		mov	r5, r0
 2277              	.LVL193:
 2278              		.loc 17 391 9 is_stmt 1 view .LVU656
 2279              	.LBB775:
 2280 049c 4BB1     		cbz	r3, .L85
 2281              		.loc 17 391 28 is_stmt 0 discriminator 1 view .LVU657
 2282 049e 40B9     		cbnz	r0, .L85
ARM GAS  C:\Users\danig\AppData\Local\Temp\ccN1qAGP.s 			page 79


 2283              	.LBB773:
 392:Main.cpp      ****         {
 393:Main.cpp      ****             SetlistEntry* next = setlist.GetNext();
 2284              		.loc 17 393 13 is_stmt 1 view .LVU658
 2285              		.loc 17 393 49 is_stmt 0 view .LVU659
 2286 04a0 4E48     		ldr	r0, .L152+20
 2287              	.LVL194:
 2288              		.loc 17 393 49 view .LVU660
 2289 04a2 FFF7FEFF 		bl	_ZN7Setlist7GetNextEv
 2290              	.LVL195:
 394:Main.cpp      ****             if(next)
 2291              		.loc 17 394 13 is_stmt 1 view .LVU661
 2292 04a6 20B1     		cbz	r0, .L85
 395:Main.cpp      ****                 audioPlayer.PreloadNextPad(next->filepath);
 2293              		.loc 17 395 17 view .LVU662
 2294              		.loc 17 395 43 is_stmt 0 view .LVU663
 2295 04a8 00F18C01 		add	r1, r0, #140
 2296 04ac 4A48     		ldr	r0, .L152+16
 2297              	.LVL196:
 2298              		.loc 17 395 43 view .LVU664
 2299 04ae FFF7FEFF 		bl	_ZN11AudioPlayer14PreloadNextPadEPKc
 2300              	.LVL197:
 2301              	.L85:
 2302              		.loc 17 395 43 view .LVU665
 2303              	.LBE773:
 2304              	.LBE775:
 396:Main.cpp      ****         }
 397:Main.cpp      **** 
 398:Main.cpp      ****         WasCrossfading_ = isNowCrossfading;
 2305              		.loc 17 398 9 is_stmt 1 view .LVU666
 2306              	.LBB776:
 2307              	.LBB777:
  65:../../libDaisy//src/hid/switch.h **** 
 2308              		.loc 1 65 45 is_stmt 0 view .LVU667
 2309 04b2 4B4B     		ldr	r3, .L152+24
 2310              	.LBE777:
 2311              	.LBE776:
 2312              		.loc 17 398 25 view .LVU668
 2313 04b4 3570     		strb	r5, [r6]
 399:Main.cpp      **** 
 400:Main.cpp      ****         // Play/Stop
 401:Main.cpp      ****         if(playStopButton.RisingEdge())
 2314              		.loc 17 401 9 is_stmt 1 view .LVU669
 2315              	.LVL198:
 2316              	.LBB779:
 2317              	.LBI776:
  65:../../libDaisy//src/hid/switch.h **** 
 2318              		.loc 1 65 17 view .LVU670
 2319              	.LBB778:
  65:../../libDaisy//src/hid/switch.h **** 
 2320              		.loc 1 65 38 view .LVU671
  65:../../libDaisy//src/hid/switch.h **** 
 2321              		.loc 1 65 54 is_stmt 0 view .LVU672
 2322 04b6 1A79     		ldrb	r2, [r3, #4]	@ zero_extendqisi2
 2323 04b8 52B1     		cbz	r2, .L87
 2324              	.LVL199:
  65:../../libDaisy//src/hid/switch.h **** 
ARM GAS  C:\Users\danig\AppData\Local\Temp\ccN1qAGP.s 			page 80


 2325              		.loc 1 65 54 view .LVU673
 2326              	.LBE778:
 2327              	.LBE779:
 2328              		.loc 17 401 9 view .LVU674
 2329 04ba 1B7F     		ldrb	r3, [r3, #28]	@ zero_extendqisi2
 2330 04bc 7F2B     		cmp	r3, #127
 2331 04be 07D1     		bne	.L87
 402:Main.cpp      ****         {
 403:Main.cpp      ****             if(audioPlayer.IsPlaying())
 2332              		.loc 17 403 13 is_stmt 1 view .LVU675
 2333              		.loc 17 403 37 is_stmt 0 view .LVU676
 2334 04c0 4548     		ldr	r0, .L152+16
 2335 04c2 FFF7FEFF 		bl	_ZNK11AudioPlayer9IsPlayingEv
 2336              	.LVL200:
 2337              		.loc 17 403 13 view .LVU677
 2338 04c6 0028     		cmp	r0, #0
 2339 04c8 77D0     		beq	.L88
 404:Main.cpp      ****                 audioPlayer.Stop();
 2340              		.loc 17 404 17 is_stmt 1 view .LVU678
 2341              		.loc 17 404 33 is_stmt 0 view .LVU679
 2342 04ca 4348     		ldr	r0, .L152+16
 2343 04cc FFF7FEFF 		bl	_ZN11AudioPlayer4StopEv
 2344              	.LVL201:
 2345              	.L87:
 405:Main.cpp      ****             else
 406:Main.cpp      ****                 audioPlayer.Play();
 407:Main.cpp      ****         }
 408:Main.cpp      **** 
 409:Main.cpp      ****         // Click mute
 410:Main.cpp      ****         if(clickMuteButton.RisingEdge())
 2346              		.loc 17 410 9 is_stmt 1 view .LVU680
 2347              	.LBB780:
 2348              	.LBI780:
  65:../../libDaisy//src/hid/switch.h **** 
 2349              		.loc 1 65 17 view .LVU681
 2350              	.LBB781:
  65:../../libDaisy//src/hid/switch.h **** 
 2351              		.loc 1 65 38 view .LVU682
  65:../../libDaisy//src/hid/switch.h **** 
 2352              		.loc 1 65 45 is_stmt 0 view .LVU683
 2353 04d0 444B     		ldr	r3, .L152+28
  65:../../libDaisy//src/hid/switch.h **** 
 2354              		.loc 1 65 54 view .LVU684
 2355 04d2 1A79     		ldrb	r2, [r3, #4]	@ zero_extendqisi2
 2356 04d4 5AB1     		cbz	r2, .L89
 2357              	.LVL202:
  65:../../libDaisy//src/hid/switch.h **** 
 2358              		.loc 1 65 54 view .LVU685
 2359              	.LBE781:
 2360              	.LBE780:
 2361              		.loc 17 410 9 view .LVU686
 2362 04d6 1B7F     		ldrb	r3, [r3, #28]	@ zero_extendqisi2
 2363 04d8 7F2B     		cmp	r3, #127
 2364 04da 08D1     		bne	.L89
 411:Main.cpp      ****             audioPlayer.SetClickPlaying(!audioPlayer.IsClickPlaying());
 2365              		.loc 17 411 13 is_stmt 1 view .LVU687
 2366              		.loc 17 411 68 is_stmt 0 view .LVU688
ARM GAS  C:\Users\danig\AppData\Local\Temp\ccN1qAGP.s 			page 81


 2367 04dc 3E48     		ldr	r0, .L152+16
 2368 04de FFF7FEFF 		bl	_ZNK11AudioPlayer14IsClickPlayingEv
 2369              	.LVL203:
 2370              		.loc 17 411 40 view .LVU689
 2371 04e2 80F00100 		eor	r0, r0, #1
 2372 04e6 C1B2     		uxtb	r1, r0
 2373 04e8 3B48     		ldr	r0, .L152+16
 2374 04ea FFF7FEFF 		bl	_ZN11AudioPlayer15SetClickPlayingEb
 2375              	.LVL204:
 2376              	.L89:
 412:Main.cpp      **** 
 413:Main.cpp      ****         // Click clock
 414:Main.cpp      ****         unsigned int now      = System::GetNow();
 2377              		.loc 17 414 9 is_stmt 1 view .LVU690
 2378              		.loc 17 414 47 is_stmt 0 view .LVU691
 2379 04ee FFF7FEFF 		bl	_ZN5daisy6System6GetNowEv
 2380              	.LVL205:
 2381              	.LBB782:
 2382              	.LBB783:
  64:Metronome.h   ****     unsigned int GetIntervalMs() const { return 60000 / bpm_; }
 2383              		.loc 21 64 55 view .LVU692
 2384 04f2 2268     		ldr	r2, [r4]
 2385 04f4 4EF66023 		movw	r3, #60000
 2386              	.LBE783:
 2387              	.LBE782:
 2388              		.loc 17 414 47 view .LVU693
 2389 04f8 0546     		mov	r5, r0
 2390              	.LVL206:
 415:Main.cpp      ****         unsigned int interval = metronome.GetIntervalMs();
 2391              		.loc 17 415 9 is_stmt 1 view .LVU694
 2392              	.LBB785:
 2393              	.LBI782:
 2394              		.loc 21 64 18 view .LVU695
 2395              	.LBB784:
 2396              		.loc 21 64 42 view .LVU696
 2397              		.loc 21 64 55 is_stmt 0 view .LVU697
 2398 04fa 93FBF2F3 		sdiv	r3, r3, r2
 2399              	.LVL207:
 2400              		.loc 21 64 55 view .LVU698
 2401              	.LBE784:
 2402              	.LBE785:
 416:Main.cpp      **** 
 417:Main.cpp      ****         if(interval > 0 && (now - lastBeatTime >= interval))
 2403              		.loc 17 417 9 is_stmt 1 view .LVU699
 2404              	.LBB786:
 2405 04fe DBB1     		cbz	r3, .L90
 2406              		.loc 17 417 33 is_stmt 0 discriminator 1 view .LVU700
 2407 0500 3349     		ldr	r1, .L152+8
 2408 0502 0A68     		ldr	r2, [r1]
 2409 0504 801A     		subs	r0, r0, r2
 2410              	.LVL208:
 2411              		.loc 17 417 25 discriminator 1 view .LVU701
 2412 0506 9842     		cmp	r0, r3
 2413 0508 16D3     		bcc	.L90
 2414              	.LBB787:
 418:Main.cpp      ****         {
 419:Main.cpp      ****             lastBeatTime += interval;
ARM GAS  C:\Users\danig\AppData\Local\Temp\ccN1qAGP.s 			page 82


 2415              		.loc 17 419 13 is_stmt 1 view .LVU702
 2416              		.loc 17 419 26 is_stmt 0 view .LVU703
 2417 050a 1344     		add	r3, r3, r2
 2418              	.LVL209:
 420:Main.cpp      **** 
 421:Main.cpp      ****             SetlistEntry* current   = setlist.GetCurrent();
 2419              		.loc 17 421 57 view .LVU704
 2420 050c 3348     		ldr	r0, .L152+20
 419:Main.cpp      **** 
 2421              		.loc 17 419 26 view .LVU705
 2422 050e 0B60     		str	r3, [r1]
 2423              		.loc 17 421 13 is_stmt 1 view .LVU706
 2424              		.loc 17 421 57 is_stmt 0 view .LVU707
 2425 0510 FFF7FEFF 		bl	_ZN7Setlist10GetCurrentEv
 2426              	.LVL210:
 422:Main.cpp      ****             int           numerator = current ? current->numerator : 4;
 2427              		.loc 17 422 13 is_stmt 1 view .LVU708
 2428              		.loc 17 422 47 is_stmt 0 view .LVU709
 2429 0514 0028     		cmp	r0, #0
 2430 0516 54D0     		beq	.L99
 2431              		.loc 17 422 47 discriminator 1 view .LVU710
 2432 0518 D0F8E010 		ldr	r1, [r0, #224]
 2433              	.L91:
 2434              	.LVL211:
 423:Main.cpp      **** 
 424:Main.cpp      ****             beatCount++;
 2435              		.loc 17 424 13 is_stmt 1 discriminator 4 view .LVU711
 2436              		.loc 17 424 22 is_stmt 0 discriminator 4 view .LVU712
 2437 051c 2B4B     		ldr	r3, .L152+4
 425:Main.cpp      ****             if(beatCount > numerator)
 426:Main.cpp      ****                 beatCount = 1;
 427:Main.cpp      **** 
 428:Main.cpp      ****             audioPlayer.TriggerClick(beatCount == 1);
 2438              		.loc 17 428 37 discriminator 4 view .LVU713
 2439 051e 2E48     		ldr	r0, .L152+16
 2440              	.LVL212:
 424:Main.cpp      ****             if(beatCount > numerator)
 2441              		.loc 17 424 22 discriminator 4 view .LVU714
 2442 0520 1A68     		ldr	r2, [r3]
 2443 0522 0132     		adds	r2, r2, #1
 425:Main.cpp      ****             if(beatCount > numerator)
 2444              		.loc 17 425 13 is_stmt 1 discriminator 4 view .LVU715
 2445 0524 8A42     		cmp	r2, r1
 426:Main.cpp      **** 
 2446              		.loc 17 426 17 discriminator 4 view .LVU716
 426:Main.cpp      **** 
 2447              		.loc 17 426 27 is_stmt 0 discriminator 4 view .LVU717
 2448 0526 C8BF     		it	gt
 2449 0528 0122     		movgt	r2, #1
 2450 052a 1A60     		str	r2, [r3]
 2451              		.loc 17 428 13 is_stmt 1 discriminator 4 view .LVU718
 2452              		.loc 17 428 37 is_stmt 0 discriminator 4 view .LVU719
 2453 052c 1968     		ldr	r1, [r3]
 2454              	.LVL213:
 2455              		.loc 17 428 37 discriminator 4 view .LVU720
 2456 052e 4B1E     		subs	r3, r1, #1
 2457 0530 5942     		rsbs	r1, r3, #0
ARM GAS  C:\Users\danig\AppData\Local\Temp\ccN1qAGP.s 			page 83


 2458 0532 5941     		adcs	r1, r1, r3
 2459 0534 FFF7FEFF 		bl	_ZN11AudioPlayer12TriggerClickEb
 2460              	.LVL214:
 2461              	.L90:
 2462              		.loc 17 428 37 discriminator 4 view .LVU721
 2463              	.LBE787:
 2464              	.LBE786:
 429:Main.cpp      ****         }
 430:Main.cpp      **** 
 431:Main.cpp      ****         if(now - lastDisplayUpdate > 500)
 2465              		.loc 17 431 9 is_stmt 1 view .LVU722
 2466              	.LBB789:
 2467              		.loc 17 431 16 is_stmt 0 view .LVU723
 2468 0538 2B4F     		ldr	r7, .L152+32
 2469 053a 3868     		ldr	r0, [r7]
 2470 053c 2D1A     		subs	r5, r5, r0
 2471              	.LVL215:
 2472              		.loc 17 431 9 view .LVU724
 2473 053e B5F5FA7F 		cmp	r5, #500
 2474 0542 2DD9     		bls	.L94
 2475              	.LBB790:
 432:Main.cpp      ****         {
 433:Main.cpp      ****             if(!inPadBrowser)
 2476              		.loc 17 433 13 is_stmt 1 view .LVU725
 2477              	.LBB791:
 2478              		.loc 17 433 16 is_stmt 0 view .LVU726
 2479 0544 294B     		ldr	r3, .L152+36
 2480              		.loc 17 433 13 view .LVU727
 2481 0546 1B78     		ldrb	r3, [r3]	@ zero_extendqisi2
 2482 0548 3BBB     		cbnz	r3, .L96
 2483              	.LBB792:
 434:Main.cpp      ****             {
