ARM GAS  C:\Users\danig\AppData\Local\Temp\ccomP0gP.s 			page 1


   1              		.cpu cortex-m7
   2              		.eabi_attribute 28, 1
   3              		.eabi_attribute 20, 1
   4              		.eabi_attribute 21, 1
   5              		.eabi_attribute 23, 3
   6              		.eabi_attribute 24, 1
   7              		.eabi_attribute 25, 1
   8              		.eabi_attribute 26, 1
   9              		.eabi_attribute 30, 4
  10              		.eabi_attribute 34, 1
  11              		.eabi_attribute 18, 4
  12              		.file	"PadBrowser.cpp"
  13              		.text
  14              	.Ltext0:
  15              		.cfi_sections	.debug_frame
  16              		.section	.text._ZN10PadBrowser4NextEv,"ax",%progbits
  17              		.align	1
  18              		.global	_ZN10PadBrowser4NextEv
  19              		.arch armv7e-m
  20              		.syntax unified
  21              		.thumb
  22              		.thumb_func
  23              		.fpu fpv5-d16
  25              	_ZN10PadBrowser4NextEv:
  26              	.LVL0:
  27              	.LFB2740:
  28              		.file 1 "PadBrowser.cpp"
   1:PadBrowser.cpp **** #include "PadBrowser.h"
   2:PadBrowser.cpp **** #include <cstring>
   3:PadBrowser.cpp **** 
   4:PadBrowser.cpp **** void PadBrowser::SetFiles(PadFile* files, int count)
   5:PadBrowser.cpp **** {
   6:PadBrowser.cpp ****     count_ = (count > MAX_PAD_FILES) ? MAX_PAD_FILES : count;
   7:PadBrowser.cpp ****     for(int i = 0; i < count_; i++)
   8:PadBrowser.cpp ****     {
   9:PadBrowser.cpp ****         files_[i] = files[i];
  10:PadBrowser.cpp ****         ParseKeyAndName(files_[i]); // parse from file.name
  11:PadBrowser.cpp ****     }
  12:PadBrowser.cpp ****     selectedIndex_ = 0;
  13:PadBrowser.cpp **** }
  14:PadBrowser.cpp **** 
  15:PadBrowser.cpp **** void PadBrowser::Next()
  16:PadBrowser.cpp **** {
  29              		.loc 1 16 1 view -0
  30              		.cfi_startproc
  31              		@ args = 0, pretend = 0, frame = 0
  32              		@ frame_needed = 0, uses_anonymous_args = 0
  33              		@ link register save eliminated.
  17:PadBrowser.cpp ****     if(count_ == 0)
  34              		.loc 1 17 5 view .LVU1
  35              		.loc 1 17 8 is_stmt 0 view .LVU2
  36 0000 00F54050 		add	r0, r0, #12288
  37              	.LVL1:
  38              		.loc 1 17 8 view .LVU3
  39 0004 026E     		ldr	r2, [r0, #96]
  40              		.loc 1 17 5 view .LVU4
  41 0006 32B1     		cbz	r2, .L1
ARM GAS  C:\Users\danig\AppData\Local\Temp\ccomP0gP.s 			page 2


  18:PadBrowser.cpp ****         return;
  19:PadBrowser.cpp ****     selectedIndex_ = (selectedIndex_ + 1) % count_;
  42              		.loc 1 19 5 is_stmt 1 view .LVU5
  43              		.loc 1 19 38 is_stmt 0 view .LVU6
  44 0008 436E     		ldr	r3, [r0, #100]
  45 000a 0133     		adds	r3, r3, #1
  46              		.loc 1 19 43 view .LVU7
  47 000c 93FBF2F1 		sdiv	r1, r3, r2
  48 0010 02FB1133 		mls	r3, r2, r1, r3
  49              		.loc 1 19 20 view .LVU8
  50 0014 4366     		str	r3, [r0, #100]
  51              	.L1:
  20:PadBrowser.cpp **** }
  52              		.loc 1 20 1 view .LVU9
  53 0016 7047     		bx	lr
  54              		.cfi_endproc
  55              	.LFE2740:
  57              		.section	.text._ZN10PadBrowser4PrevEv,"ax",%progbits
  58              		.align	1
  59              		.global	_ZN10PadBrowser4PrevEv
  60              		.syntax unified
  61              		.thumb
  62              		.thumb_func
  63              		.fpu fpv5-d16
  65              	_ZN10PadBrowser4PrevEv:
  66              	.LVL2:
  67              	.LFB2741:
  21:PadBrowser.cpp **** 
  22:PadBrowser.cpp **** void PadBrowser::Prev()
  23:PadBrowser.cpp **** {
  68              		.loc 1 23 1 is_stmt 1 view -0
  69              		.cfi_startproc
  70              		@ args = 0, pretend = 0, frame = 0
  71              		@ frame_needed = 0, uses_anonymous_args = 0
  72              		@ link register save eliminated.
  24:PadBrowser.cpp ****     if(count_ == 0)
  73              		.loc 1 24 5 view .LVU11
  74              		.loc 1 24 8 is_stmt 0 view .LVU12
  75 0000 00F54050 		add	r0, r0, #12288
  76              	.LVL3:
  77              		.loc 1 24 8 view .LVU13
  78 0004 026E     		ldr	r2, [r0, #96]
  79              		.loc 1 24 5 view .LVU14
  80 0006 3AB1     		cbz	r2, .L6
  25:PadBrowser.cpp ****         return;
  26:PadBrowser.cpp ****     selectedIndex_ = (selectedIndex_ - 1 + count_) % count_;
  81              		.loc 1 26 5 is_stmt 1 view .LVU15
  82              		.loc 1 26 38 is_stmt 0 view .LVU16
  83 0008 436E     		ldr	r3, [r0, #100]
  84 000a 013B     		subs	r3, r3, #1
  85              		.loc 1 26 42 view .LVU17
  86 000c 1344     		add	r3, r3, r2
  87              		.loc 1 26 52 view .LVU18
  88 000e 93FBF2F1 		sdiv	r1, r3, r2
  89 0012 02FB1133 		mls	r3, r2, r1, r3
  90              		.loc 1 26 20 view .LVU19
  91 0016 4366     		str	r3, [r0, #100]
ARM GAS  C:\Users\danig\AppData\Local\Temp\ccomP0gP.s 			page 3


  92              	.L6:
  27:PadBrowser.cpp **** }
  93              		.loc 1 27 1 view .LVU20
  94 0018 7047     		bx	lr
  95              		.cfi_endproc
  96              	.LFE2741:
  98              		.section	.text._ZN10PadBrowser11GetSelectedEv,"ax",%progbits
  99              		.align	1
 100              		.global	_ZN10PadBrowser11GetSelectedEv
 101              		.syntax unified
 102              		.thumb
 103              		.thumb_func
 104              		.fpu fpv5-d16
 106              	_ZN10PadBrowser11GetSelectedEv:
 107              	.LVL4:
 108              	.LFB2742:
  28:PadBrowser.cpp **** 
  29:PadBrowser.cpp **** PadFile* PadBrowser::GetSelected()
  30:PadBrowser.cpp **** {
 109              		.loc 1 30 1 is_stmt 1 view -0
 110              		.cfi_startproc
 111              		@ args = 0, pretend = 0, frame = 0
 112              		@ frame_needed = 0, uses_anonymous_args = 0
 113              		@ link register save eliminated.
  31:PadBrowser.cpp ****     if(count_ == 0)
 114              		.loc 1 31 5 view .LVU22
 115              		.loc 1 31 8 is_stmt 0 view .LVU23
 116 0000 00F54052 		add	r2, r0, #12288
 117              		.loc 1 31 5 view .LVU24
 118 0004 136E     		ldr	r3, [r2, #96]
 119 0006 2BB1     		cbz	r3, .L13
  32:PadBrowser.cpp ****         return nullptr;
  33:PadBrowser.cpp ****     return &files_[selectedIndex_];
 120              		.loc 1 33 5 is_stmt 1 view .LVU25
 121              		.loc 1 33 34 is_stmt 0 view .LVU26
 122 0008 536E     		ldr	r3, [r2, #100]
 123 000a 4FF40172 		mov	r2, #516
 124 000e 02FB0300 		mla	r0, r2, r3, r0
 125              	.LVL5:
 126              		.loc 1 33 34 view .LVU27
 127 0012 7047     		bx	lr
 128              	.LVL6:
 129              	.L13:
  32:PadBrowser.cpp ****         return nullptr;
 130              		.loc 1 32 16 view .LVU28
 131 0014 1846     		mov	r0, r3
 132              	.LVL7:
  34:PadBrowser.cpp **** }
 133              		.loc 1 34 1 view .LVU29
 134 0016 7047     		bx	lr
 135              		.cfi_endproc
 136              	.LFE2742:
 138              		.section	.text._ZN10PadBrowser15ParseKeyAndNameER7PadFile,"ax",%progbits
 139              		.align	1
 140              		.global	_ZN10PadBrowser15ParseKeyAndNameER7PadFile
 141              		.syntax unified
 142              		.thumb
ARM GAS  C:\Users\danig\AppData\Local\Temp\ccomP0gP.s 			page 4


 143              		.thumb_func
 144              		.fpu fpv5-d16
 146              	_ZN10PadBrowser15ParseKeyAndNameER7PadFile:
 147              	.LVL8:
 148              	.LFB2743:
  35:PadBrowser.cpp **** 
  36:PadBrowser.cpp **** void PadBrowser::ParseKeyAndName(PadFile& file)
  37:PadBrowser.cpp **** {
 149              		.loc 1 37 1 is_stmt 1 view -0
 150              		.cfi_startproc
 151              		@ args = 0, pretend = 0, frame = 0
 152              		@ frame_needed = 0, uses_anonymous_args = 0
  38:PadBrowser.cpp ****     // file.name = "A_Clouds" — parse key and padName from this
  39:PadBrowser.cpp ****     const char* underscore = strchr(file.name, '_');
 153              		.loc 1 39 5 view .LVU31
  37:PadBrowser.cpp ****     // file.name = "A_Clouds" — parse key and padName from this
 154              		.loc 1 37 1 is_stmt 0 view .LVU32
 155 0000 2DE9F041 		push	{r4, r5, r6, r7, r8, lr}
 156              		.cfi_def_cfa_offset 24
 157              		.cfi_offset 4, -24
 158              		.cfi_offset 5, -20
 159              		.cfi_offset 6, -16
 160              		.cfi_offset 7, -12
 161              		.cfi_offset 8, -8
 162              		.cfi_offset 14, -4
  37:PadBrowser.cpp ****     // file.name = "A_Clouds" — parse key and padName from this
 163              		.loc 1 37 1 view .LVU33
 164 0004 0C46     		mov	r4, r1
 165              		.loc 1 39 36 view .LVU34
 166 0006 5F21     		movs	r1, #95
 167              	.LVL9:
 168              		.loc 1 39 36 view .LVU35
 169 0008 2046     		mov	r0, r4
 170              	.LVL10:
  40:PadBrowser.cpp ****     if(!underscore)
  41:PadBrowser.cpp ****     {
  42:PadBrowser.cpp ****         file.key[0] = '\0';
  43:PadBrowser.cpp ****         strncpy(file.padName, file.name, PAD_FILENAME_MAX - 1);
 171              		.loc 1 43 22 view .LVU36
 172 000a 04F5C278 		add	r8, r4, #388
  39:PadBrowser.cpp ****     if(!underscore)
 173              		.loc 1 39 36 view .LVU37
 174 000e FFF7FEFF 		bl	strchr
 175              	.LVL11:
  40:PadBrowser.cpp ****     if(!underscore)
 176              		.loc 1 40 5 is_stmt 1 view .LVU38
 177 0012 0546     		mov	r5, r0
 178 0014 50B9     		cbnz	r0, .L15
  42:PadBrowser.cpp ****         strncpy(file.padName, file.name, PAD_FILENAME_MAX - 1);
 179              		.loc 1 42 9 view .LVU39
  42:PadBrowser.cpp ****         strncpy(file.padName, file.name, PAD_FILENAME_MAX - 1);
 180              		.loc 1 42 21 is_stmt 0 view .LVU40
 181 0016 84F88001 		strb	r0, [r4, #384]
 182              		.loc 1 43 9 is_stmt 1 view .LVU41
 183              		.loc 1 43 16 is_stmt 0 view .LVU42
 184 001a 7F22     		movs	r2, #127
 185 001c 2146     		mov	r1, r4
ARM GAS  C:\Users\danig\AppData\Local\Temp\ccomP0gP.s 			page 5


 186 001e 4046     		mov	r0, r8
 187              	.LVL12:
 188              		.loc 1 43 16 view .LVU43
 189 0020 FFF7FEFF 		bl	strncpy
 190              	.LVL13:
  44:PadBrowser.cpp ****         file.padName[PAD_FILENAME_MAX - 1] = '\0';
 191              		.loc 1 44 9 is_stmt 1 view .LVU44
 192              		.loc 1 44 44 is_stmt 0 view .LVU45
 193 0024 84F80352 		strb	r5, [r4, #515]
  45:PadBrowser.cpp ****         return;
 194              		.loc 1 45 9 is_stmt 1 view .LVU46
 195              	.L14:
  46:PadBrowser.cpp ****     }
  47:PadBrowser.cpp ****     int keyLen = underscore - file.name;
  48:PadBrowser.cpp ****     if(keyLen > 3)
  49:PadBrowser.cpp ****         keyLen = 3;
  50:PadBrowser.cpp ****     strncpy(file.key, file.name, keyLen);
  51:PadBrowser.cpp ****     file.key[keyLen] = '\0';
  52:PadBrowser.cpp ****     strncpy(file.padName, underscore + 1, PAD_FILENAME_MAX - 1);
  53:PadBrowser.cpp ****     file.padName[PAD_FILENAME_MAX - 1] = '\0';
  54:PadBrowser.cpp **** }...
 196              		.loc 1 54 1 is_stmt 0 view .LVU47
 197 0028 BDE8F081 		pop	{r4, r5, r6, r7, r8, pc}
 198              	.LVL14:
 199              	.L15:
  47:PadBrowser.cpp ****     int keyLen = underscore - file.name;
 200              		.loc 1 47 5 is_stmt 1 view .LVU48
  47:PadBrowser.cpp ****     int keyLen = underscore - file.name;
 201              		.loc 1 47 9 is_stmt 0 view .LVU49
 202 002c 061B     		subs	r6, r0, r4
 203              	.LVL15:
  48:PadBrowser.cpp ****     if(keyLen > 3)
 204              		.loc 1 48 5 is_stmt 1 view .LVU50
  51:PadBrowser.cpp ****     file.key[keyLen] = '\0';
 205              		.loc 1 51 22 is_stmt 0 view .LVU51
 206 002e 0027     		movs	r7, #0
  50:PadBrowser.cpp ****     strncpy(file.key, file.name, keyLen);
 207              		.loc 1 50 12 view .LVU52
 208 0030 2146     		mov	r1, r4
 209 0032 04F5C070 		add	r0, r4, #384
 210              	.LVL16:
  50:PadBrowser.cpp ****     strncpy(file.key, file.name, keyLen);
 211              		.loc 1 50 12 view .LVU53
 212 0036 032E     		cmp	r6, #3
 213 0038 A8BF     		it	ge
 214 003a 0326     		movge	r6, #3
 215              	.LVL17:
  50:PadBrowser.cpp ****     strncpy(file.key, file.name, keyLen);
 216              		.loc 1 50 5 is_stmt 1 view .LVU54
  50:PadBrowser.cpp ****     strncpy(file.key, file.name, keyLen);
 217              		.loc 1 50 12 is_stmt 0 view .LVU55
 218 003c 3246     		mov	r2, r6
  51:PadBrowser.cpp ****     file.key[keyLen] = '\0';
 219              		.loc 1 51 22 view .LVU56
 220 003e 2644     		add	r6, r6, r4
 221              	.LVL18:
  50:PadBrowser.cpp ****     strncpy(file.key, file.name, keyLen);
ARM GAS  C:\Users\danig\AppData\Local\Temp\ccomP0gP.s 			page 6


 222              		.loc 1 50 12 view .LVU57
 223 0040 FFF7FEFF 		bl	strncpy
 224              	.LVL19:
  51:PadBrowser.cpp ****     file.key[keyLen] = '\0';
 225              		.loc 1 51 5 is_stmt 1 view .LVU58
  52:PadBrowser.cpp ****     strncpy(file.padName, underscore + 1, PAD_FILENAME_MAX - 1);
 226              		.loc 1 52 12 is_stmt 0 view .LVU59
 227 0044 7F22     		movs	r2, #127
 228 0046 691C     		adds	r1, r5, #1
 229 0048 4046     		mov	r0, r8
  51:PadBrowser.cpp ****     file.key[keyLen] = '\0';
 230              		.loc 1 51 22 view .LVU60
 231 004a 86F88071 		strb	r7, [r6, #384]
  52:PadBrowser.cpp ****     strncpy(file.padName, underscore + 1, PAD_FILENAME_MAX - 1);
 232              		.loc 1 52 5 is_stmt 1 view .LVU61
  52:PadBrowser.cpp ****     strncpy(file.padName, underscore + 1, PAD_FILENAME_MAX - 1);
 233              		.loc 1 52 12 is_stmt 0 view .LVU62
 234 004e FFF7FEFF 		bl	strncpy
 235              	.LVL20:
  53:PadBrowser.cpp ****     file.padName[PAD_FILENAME_MAX - 1] = '\0';
 236              		.loc 1 53 5 is_stmt 1 view .LVU63
  53:PadBrowser.cpp ****     file.padName[PAD_FILENAME_MAX - 1] = '\0';
 237              		.loc 1 53 40 is_stmt 0 view .LVU64
 238 0052 84F80372 		strb	r7, [r4, #515]
 239 0056 E7E7     		b	.L14
 240              		.cfi_endproc
 241              	.LFE2743:
 243              		.section	.text._ZN10PadBrowser8SetFilesEP7PadFilei,"ax",%progbits
 244              		.align	1
 245              		.global	_ZN10PadBrowser8SetFilesEP7PadFilei
 246              		.syntax unified
 247              		.thumb
 248              		.thumb_func
 249              		.fpu fpv5-d16
 251              	_ZN10PadBrowser8SetFilesEP7PadFilei:
 252              	.LVL21:
 253              	.LFB2739:
   5:PadBrowser.cpp **** {
 254              		.loc 1 5 1 is_stmt 1 view -0
 255              		.cfi_startproc
 256              		@ args = 0, pretend = 0, frame = 0
 257              		@ frame_needed = 0, uses_anonymous_args = 0
   6:PadBrowser.cpp ****     count_ = (count > MAX_PAD_FILES) ? MAX_PAD_FILES : count;
 258              		.loc 1 6 5 view .LVU66
   5:PadBrowser.cpp **** {
 259              		.loc 1 5 1 is_stmt 0 view .LVU67
 260 0000 2DE9F041 		push	{r4, r5, r6, r7, r8, lr}
 261              		.cfi_def_cfa_offset 24
 262              		.cfi_offset 4, -24
 263              		.cfi_offset 5, -20
 264              		.cfi_offset 6, -16
 265              		.cfi_offset 7, -12
 266              		.cfi_offset 8, -8
 267              		.cfi_offset 14, -4
   6:PadBrowser.cpp ****     count_ = (count > MAX_PAD_FILES) ? MAX_PAD_FILES : count;
 268              		.loc 1 6 38 view .LVU68
 269 0004 182A     		cmp	r2, #24
ARM GAS  C:\Users\danig\AppData\Local\Temp\ccomP0gP.s 			page 7


   6:PadBrowser.cpp ****     count_ = (count > MAX_PAD_FILES) ? MAX_PAD_FILES : count;
 270              		.loc 1 6 12 view .LVU69
 271 0006 4FF00004 		mov	r4, #0
 272 000a 00F54056 		add	r6, r0, #12288
   5:PadBrowser.cpp **** {
 273              		.loc 1 5 1 view .LVU70
 274 000e 0546     		mov	r5, r0
   6:PadBrowser.cpp ****     count_ = (count > MAX_PAD_FILES) ? MAX_PAD_FILES : count;
 275              		.loc 1 6 38 view .LVU71
 276 0010 A8BF     		it	ge
 277 0012 1822     		movge	r2, #24
 278              	.LVL22:
   5:PadBrowser.cpp **** {
 279              		.loc 1 5 1 view .LVU72
 280 0014 8846     		mov	r8, r1
 281              	.LBB2:
   7:PadBrowser.cpp ****     for(int i = 0; i < count_; i++)
 282              		.loc 1 7 13 view .LVU73
 283 0016 2746     		mov	r7, r4
 284              	.LBE2:
   6:PadBrowser.cpp ****     count_ = (count > MAX_PAD_FILES) ? MAX_PAD_FILES : count;
 285              		.loc 1 6 12 view .LVU74
 286 0018 3266     		str	r2, [r6, #96]
   7:PadBrowser.cpp ****     for(int i = 0; i < count_; i++)
 287              		.loc 1 7 5 is_stmt 1 view .LVU75
 288              	.LVL23:
 289              	.L19:
 290              	.LBB3:
   7:PadBrowser.cpp ****     for(int i = 0; i < count_; i++)
 291              		.loc 1 7 22 discriminator 3 view .LVU76
 292 001a 336E     		ldr	r3, [r6, #96]
 293 001c BB42     		cmp	r3, r7
 294 001e 0FDD     		ble	.L18
   9:PadBrowser.cpp ****         files_[i] = files[i];
 295              		.loc 1 9 9 discriminator 2 view .LVU77
   9:PadBrowser.cpp ****         files_[i] = files[i];
 296              		.loc 1 9 19 is_stmt 0 discriminator 2 view .LVU78
 297 0020 2B19     		adds	r3, r5, r4
 298 0022 08EB0401 		add	r1, r8, r4
 299 0026 4FF40172 		mov	r2, #516
   7:PadBrowser.cpp ****     for(int i = 0; i < count_; i++)
 300              		.loc 1 7 5 discriminator 2 view .LVU79
 301 002a 0137     		adds	r7, r7, #1
 302              	.LVL24:
   9:PadBrowser.cpp ****         files_[i] = files[i];
 303              		.loc 1 9 19 discriminator 2 view .LVU80
 304 002c 1846     		mov	r0, r3
 305 002e 04F50174 		add	r4, r4, #516
 306 0032 FFF7FEFF 		bl	memcpy
 307              	.LVL25:
  10:PadBrowser.cpp ****         ParseKeyAndName(files_[i]); // parse from file.name
 308              		.loc 1 10 9 is_stmt 1 discriminator 2 view .LVU81
  10:PadBrowser.cpp ****         ParseKeyAndName(files_[i]); // parse from file.name
 309              		.loc 1 10 24 is_stmt 0 discriminator 2 view .LVU82
 310 0036 0146     		mov	r1, r0
 311 0038 2846     		mov	r0, r5
 312 003a FFF7FEFF 		bl	_ZN10PadBrowser15ParseKeyAndNameER7PadFile
ARM GAS  C:\Users\danig\AppData\Local\Temp\ccomP0gP.s 			page 8


 313              	.LVL26:
   7:PadBrowser.cpp ****     for(int i = 0; i < count_; i++)
 314              		.loc 1 7 5 is_stmt 1 discriminator 2 view .LVU83
   7:PadBrowser.cpp ****     for(int i = 0; i < count_; i++)
 315              		.loc 1 7 5 is_stmt 0 discriminator 2 view .LVU84
 316 003e ECE7     		b	.L19
 317              	.L18:
   7:PadBrowser.cpp ****     for(int i = 0; i < count_; i++)
 318              		.loc 1 7 5 discriminator 2 view .LVU85
 319              	.LBE3:
  12:PadBrowser.cpp ****     selectedIndex_ = 0;
 320              		.loc 1 12 5 is_stmt 1 view .LVU86
  12:PadBrowser.cpp ****     selectedIndex_ = 0;
 321              		.loc 1 12 20 is_stmt 0 view .LVU87
 322 0040 0023     		movs	r3, #0
 323 0042 7366     		str	r3, [r6, #100]
  13:PadBrowser.cpp **** }
 324              		.loc 1 13 1 view .LVU88
 325 0044 BDE8F081 		pop	{r4, r5, r6, r7, r8, pc}
  13:PadBrowser.cpp **** }
 326              		.loc 1 13 1 view .LVU89
 327              		.cfi_endproc
 328              	.LFE2739:
 330              		.text
 331              	.Letext0:
 332              		.file 2 "c:\\program files\\daisytoolchain\\arm-none-eabi\\include\\machine\\_default_types.h"
 333              		.file 3 "c:\\program files\\daisytoolchain\\arm-none-eabi\\include\\sys\\_stdint.h"
 334              		.file 4 "c:\\program files\\daisytoolchain\\arm-none-eabi\\include\\stdint.h"
 335              		.file 5 "c:\\program files\\daisytoolchain\\lib\\gcc\\arm-none-eabi\\10.2.1\\include\\stddef.h"
 336              		.file 6 "c:\\program files\\daisytoolchain\\arm-none-eabi\\include\\c++\\10.2.1\\cmath"
 337              		.file 7 "c:\\program files\\daisytoolchain\\arm-none-eabi\\include\\c++\\10.2.1\\bits\\std_abs.h"
 338              		.file 8 "c:\\program files\\daisytoolchain\\arm-none-eabi\\include\\c++\\10.2.1\\cstdlib"
 339              		.file 9 "c:\\program files\\daisytoolchain\\arm-none-eabi\\include\\c++\\10.2.1\\cstdint"
 340              		.file 10 "c:\\program files\\daisytoolchain\\arm-none-eabi\\include\\c++\\10.2.1\\type_traits"
 341              		.file 11 "c:\\program files\\daisytoolchain\\arm-none-eabi\\include\\c++\\10.2.1\\debug\\debug.h"
 342              		.file 12 "c:\\program files\\daisytoolchain\\arm-none-eabi\\include\\c++\\10.2.1\\arm-none-eabi\\t
 343              		.file 13 "c:\\program files\\daisytoolchain\\arm-none-eabi\\include\\c++\\10.2.1\\bits\\algorithmf
 344              		.file 14 "c:\\program files\\daisytoolchain\\arm-none-eabi\\include\\c++\\10.2.1\\bits\\stl_pair.h
 345              		.file 15 "c:\\program files\\daisytoolchain\\arm-none-eabi\\include\\c++\\10.2.1\\bits\\exception_
 346              		.file 16 "c:\\program files\\daisytoolchain\\arm-none-eabi\\include\\c++\\10.2.1\\cstdarg"
 347              		.file 17 "c:\\program files\\daisytoolchain\\arm-none-eabi\\include\\c++\\10.2.1\\cstdio"
 348              		.file 18 "c:\\program files\\daisytoolchain\\arm-none-eabi\\include\\c++\\10.2.1\\cstring"
 349              		.file 19 "c:\\program files\\daisytoolchain\\arm-none-eabi\\include\\c++\\10.2.1\\cstddef"
 350              		.file 20 "c:\\program files\\daisytoolchain\\arm-none-eabi\\include\\c++\\10.2.1\\bits\\predefined
 351              		.file 21 "c:\\program files\\daisytoolchain\\arm-none-eabi\\include\\sys\\_types.h"
 352              		.file 22 "c:\\program files\\daisytoolchain\\arm-none-eabi\\include\\sys\\reent.h"
 353              		.file 23 "c:\\program files\\daisytoolchain\\arm-none-eabi\\include\\sys\\lock.h"
 354              		.file 24 "c:\\program files\\daisytoolchain\\arm-none-eabi\\include\\math.h"
 355              		.file 25 "c:\\program files\\daisytoolchain\\arm-none-eabi\\include\\stdlib.h"
 356              		.file 26 "c:\\program files\\daisytoolchain\\arm-none-eabi\\include\\c++\\10.2.1\\math.h"
 357              		.file 27 "c:\\program files\\daisytoolchain\\arm-none-eabi\\include\\c++\\10.2.1\\stdlib.h"
 358              		.file 28 "../../libDaisy//src/daisy_core.h"
 359              		.file 29 "../../libDaisy//src/dev/max11300.h"
 360              		.file 30 "../../libDaisy//src/dev/sr_595.h"
 361              		.file 31 "../../libDaisy//src/util/wav_format.h"
 362              		.file 32 "../../libDaisy//src/daisy_seed.h"
 363              		.file 33 "c:\\program files\\daisytoolchain\\lib\\gcc\\arm-none-eabi\\10.2.1\\include\\stdarg.h"
ARM GAS  C:\Users\danig\AppData\Local\Temp\ccomP0gP.s 			page 9


 364              		.file 34 "c:\\program files\\daisytoolchain\\arm-none-eabi\\include\\stdio.h"
 365              		.file 35 "c:\\program files\\daisytoolchain\\arm-none-eabi\\include\\string.h"
 366              		.file 36 "../../libDaisy//Middlewares/Third_Party/FatFs/src/integer.h"
 367              		.file 37 "../../libDaisy//Middlewares/Third_Party/FatFs/src/ff.h"
 368              		.file 38 "SdHandler.h"
 369              		.file 39 "PadBrowser.h"
 370              		.file 40 "<built-in>"
ARM GAS  C:\Users\danig\AppData\Local\Temp\ccomP0gP.s 			page 10

