ARM GAS  C:\Users\danig\AppData\Local\Temp\ccjwnbkG.s 			page 1


   1              		.cpu cortex-m7
   2              		.eabi_attribute 28, 1
   3              		.eabi_attribute 20, 1
   4              		.eabi_attribute 21, 1
   5              		.eabi_attribute 23, 3
   6              		.eabi_attribute 24, 1
   7              		.eabi_attribute 25, 1
   8              		.eabi_attribute 26, 1
   9              		.eabi_attribute 30, 4
  10              		.eabi_attribute 34, 1
  11              		.eabi_attribute 18, 4
  12              		.file	"SdHandler.cpp"
  13              		.text
  14              	.Ltext0:
  15              		.cfi_sections	.debug_frame
  16              		.section	.text._ZN9SdHandlerC2ERN5daisy9DaisySeedE,"ax",%progbits
  17              		.align	1
  18              		.global	_ZN9SdHandlerC2ERN5daisy9DaisySeedE
  19              		.arch armv7e-m
  20              		.syntax unified
  21              		.thumb
  22              		.thumb_func
  23              		.fpu fpv5-d16
  25              	_ZN9SdHandlerC2ERN5daisy9DaisySeedE:
  26              	.LVL0:
  27              	.LFB2735:
  28              		.file 1 "SdHandler.cpp"
   1:SdHandler.cpp **** #include "SdHandler.h"
   2:SdHandler.cpp **** #include <string.h>
   3:SdHandler.cpp **** 
   4:SdHandler.cpp **** SdHandler::SdHandler(DaisySeed& hw)
  29              		.loc 1 4 1 view -0
  30              		.cfi_startproc
  31              		@ args = 0, pretend = 0, frame = 0
  32              		@ frame_needed = 0, uses_anonymous_args = 0
  33              		@ link register save eliminated.
  34              	.LBB11:
   5:SdHandler.cpp **** : hw_(hw), mounted_(false), fileOpen_(false), lastError_(SdError::NONE)
  35              		.loc 1 5 71 is_stmt 0 view .LVU1
  36 0000 0022     		movs	r2, #0
  37 0002 0160     		str	r1, [r0]
  38              	.LVL1:
  39              	.LBB12:
  40              	.LBI12:
  41              		.file 2 "../../libDaisy//src/per/sdmmc.h"
   1:../../libDaisy//src/per/sdmmc.h **** /*
   2:../../libDaisy//src/per/sdmmc.h **** TODO: 
   3:../../libDaisy//src/per/sdmmc.h **** - Implement configuration (currently all settings are fixed).
   4:../../libDaisy//src/per/sdmmc.h **** */
   5:../../libDaisy//src/per/sdmmc.h **** #pragma once
   6:../../libDaisy//src/per/sdmmc.h **** #ifndef DSY_SDMMC_H
   7:../../libDaisy//src/per/sdmmc.h **** #define DSY_SDMMC_H /**< macro */
   8:../../libDaisy//src/per/sdmmc.h **** 
   9:../../libDaisy//src/per/sdmmc.h **** #include <stdint.h>
  10:../../libDaisy//src/per/sdmmc.h **** #include "stm32h7xx_hal.h"
  11:../../libDaisy//src/per/sdmmc.h **** 
  12:../../libDaisy//src/per/sdmmc.h **** namespace daisy
ARM GAS  C:\Users\danig\AppData\Local\Temp\ccjwnbkG.s 			page 2


  13:../../libDaisy//src/per/sdmmc.h **** {
  14:../../libDaisy//src/per/sdmmc.h **** /** @ingroup peripheral
  15:../../libDaisy//src/per/sdmmc.h ****     @{
  16:../../libDaisy//src/per/sdmmc.h ****     */
  17:../../libDaisy//src/per/sdmmc.h **** 
  18:../../libDaisy//src/per/sdmmc.h **** /** Configuration for interfacing with SD cards.
  19:../../libDaisy//src/per/sdmmc.h ****  *  Currently only supports operation using FatFS filesystem
  20:../../libDaisy//src/per/sdmmc.h ****  * 
  21:../../libDaisy//src/per/sdmmc.h ****  *  Only SDMMC1 is supported at this time.
  22:../../libDaisy//src/per/sdmmc.h ****  *
  23:../../libDaisy//src/per/sdmmc.h ****  *  Pins are fixed to the following:
  24:../../libDaisy//src/per/sdmmc.h ****  *  PC12 - SDMMC1 CK
  25:../../libDaisy//src/per/sdmmc.h ****  *  PD2  - SDMMC1 CMD
  26:../../libDaisy//src/per/sdmmc.h ****  *  PC8  - SDMMC1 D0
  27:../../libDaisy//src/per/sdmmc.h ****  *  PC9  - SDMMC1 D1 (optional)
  28:../../libDaisy//src/per/sdmmc.h ****  *  PC10 - SDMMC1 D2 (optional)
  29:../../libDaisy//src/per/sdmmc.h ****  *  PC11 - SDMMC1 D3 (optional)
  30:../../libDaisy//src/per/sdmmc.h **** */
  31:../../libDaisy//src/per/sdmmc.h **** class SdmmcHandler
  32:../../libDaisy//src/per/sdmmc.h **** {
  33:../../libDaisy//src/per/sdmmc.h ****   public:
  34:../../libDaisy//src/per/sdmmc.h ****     /** Return values for the SdmmcHandler class */
  35:../../libDaisy//src/per/sdmmc.h ****     enum class Result
  36:../../libDaisy//src/per/sdmmc.h ****     {
  37:../../libDaisy//src/per/sdmmc.h ****         OK,
  38:../../libDaisy//src/per/sdmmc.h ****         ERROR,
  39:../../libDaisy//src/per/sdmmc.h ****     };
  40:../../libDaisy//src/per/sdmmc.h **** 
  41:../../libDaisy//src/per/sdmmc.h ****     /** Sets whether 4-bit mode or 1-bit mode is used for the SDMMC */
  42:../../libDaisy//src/per/sdmmc.h ****     enum class BusWidth
  43:../../libDaisy//src/per/sdmmc.h ****     {
  44:../../libDaisy//src/per/sdmmc.h ****         BITS_1, /**< Only 1 bit of data per clock is transferred */
  45:../../libDaisy//src/per/sdmmc.h ****         BITS_4, /**< 4-bits of parallel data for each clock pulse */
  46:../../libDaisy//src/per/sdmmc.h ****     };
  47:../../libDaisy//src/per/sdmmc.h **** 
  48:../../libDaisy//src/per/sdmmc.h ****     /** 
  49:../../libDaisy//src/per/sdmmc.h ****     Sets the desired clock speed of the SD card bus. \n 
  50:../../libDaisy//src/per/sdmmc.h ****     Initialization is always done at or below 400kHz, and then the user speed is set.
  51:../../libDaisy//src/per/sdmmc.h ****     */
  52:../../libDaisy//src/per/sdmmc.h ****     enum class Speed
  53:../../libDaisy//src/per/sdmmc.h ****     {
  54:../../libDaisy//src/per/sdmmc.h ****         SLOW, /**< 400kHz, initialization  performed at this rate, before moving to user value */
  55:../../libDaisy//src/per/sdmmc.h ****         MEDIUM_SLOW, /**< 12.5MHz - half of standard rate */
  56:../../libDaisy//src/per/sdmmc.h ****         STANDARD,    /**< 25MHz - DS (Default Speed for SDMMC) */
  57:../../libDaisy//src/per/sdmmc.h ****         FAST,        /**< 50MHz - HS (High Speed signaling) */
  58:../../libDaisy//src/per/sdmmc.h ****         VERY_FAST, /**< 100MHz - SDR50 Overclocked rate for maximum transfer rates */
  59:../../libDaisy//src/per/sdmmc.h ****     };
  60:../../libDaisy//src/per/sdmmc.h **** 
  61:../../libDaisy//src/per/sdmmc.h ****     struct Config
  62:../../libDaisy//src/per/sdmmc.h ****     {
  63:../../libDaisy//src/per/sdmmc.h ****         Speed    speed;
  64:../../libDaisy//src/per/sdmmc.h ****         BusWidth width;
  65:../../libDaisy//src/per/sdmmc.h ****         bool
  66:../../libDaisy//src/per/sdmmc.h ****             clock_powersave; /**< When true, the clock will stop between transfers to save power. *
  67:../../libDaisy//src/per/sdmmc.h **** 
  68:../../libDaisy//src/per/sdmmc.h ****         /** Configures settings to their default settings */
  69:../../libDaisy//src/per/sdmmc.h ****         void Defaults()
ARM GAS  C:\Users\danig\AppData\Local\Temp\ccjwnbkG.s 			page 3


  70:../../libDaisy//src/per/sdmmc.h ****         {
  71:../../libDaisy//src/per/sdmmc.h ****             speed           = Speed::FAST;
  72:../../libDaisy//src/per/sdmmc.h ****             width           = BusWidth::BITS_4;
  73:../../libDaisy//src/per/sdmmc.h ****             clock_powersave = false;
  74:../../libDaisy//src/per/sdmmc.h ****         }
  75:../../libDaisy//src/per/sdmmc.h ****     };
  76:../../libDaisy//src/per/sdmmc.h **** 
  77:../../libDaisy//src/per/sdmmc.h ****     SdmmcHandler() {}
  42              		.loc 2 77 5 is_stmt 1 view .LVU2
  43              		.loc 2 77 5 is_stmt 0 view .LVU3
  44              	.LBE12:
  45              	.LBB13:
  46              	.LBI13:
  47              		.file 3 "../../libDaisy//src/sys/fatfs.h"
   1:../../libDaisy//src/sys/fatfs.h **** #ifndef __fatfs_H
   2:../../libDaisy//src/sys/fatfs.h **** #define __fatfs_H /**< & */
   3:../../libDaisy//src/sys/fatfs.h **** 
   4:../../libDaisy//src/sys/fatfs.h **** #include "ff.h"
   5:../../libDaisy//src/sys/fatfs.h **** 
   6:../../libDaisy//src/sys/fatfs.h **** namespace daisy
   7:../../libDaisy//src/sys/fatfs.h **** {
   8:../../libDaisy//src/sys/fatfs.h **** /** @brief Daisy FatFS Driver Interface
   9:../../libDaisy//src/sys/fatfs.h ****  *  @details Specifies the desired media (SD Card, USB, etc.) to be mountable with FatFS
  10:../../libDaisy//src/sys/fatfs.h ****  *           within a given application. Once initialization is called, the standard
  11:../../libDaisy//src/sys/fatfs.h ****  *           FatFS API will be usable with the media mounted in the order 
  12:../../libDaisy//src/sys/fatfs.h ****  *           they are listed in the Media config struct. 
  13:../../libDaisy//src/sys/fatfs.h ****  *           For example, when only using an SD Card, it will mount at "0:/",
  14:../../libDaisy//src/sys/fatfs.h ****  *           when only using USB, it will mount at "0:/". However, when mounting 
  15:../../libDaisy//src/sys/fatfs.h ****  *           with SD card and USB, the SD card will mount at "0:/", and the USB 
  16:../../libDaisy//src/sys/fatfs.h ****  *           will mount at "1:/".
  17:../../libDaisy//src/sys/fatfs.h ****  *           The relevant hardware peripheral (SDMMC, or MSD) needs to be initialized
  18:../../libDaisy//src/sys/fatfs.h ****  *           separately by the application before using FatFS.
  19:../../libDaisy//src/sys/fatfs.h ****  *          
  20:../../libDaisy//src/sys/fatfs.h ****  *           This object has some memory limitations due to the media connected to it.
  21:../../libDaisy//src/sys/fatfs.h ****  *           The SDMMC1 peripheral can only communicate with the AXI SRAM, and the DTCMRAM 
  22:../../libDaisy//src/sys/fatfs.h ****  *           cannot communicate with the DMA. So the FatFSInterface object should always be
  23:../../libDaisy//src/sys/fatfs.h ****  *           located in the AXI SRAM. This is the default location for all data/bss memory
  24:../../libDaisy//src/sys/fatfs.h ****  *           using the standard build. However, applciations using the electrosmith bootloader
  25:../../libDaisy//src/sys/fatfs.h ****  *           will need special consideration when using this object AND an SD Card. 
  26:../../libDaisy//src/sys/fatfs.h ****  */
  27:../../libDaisy//src/sys/fatfs.h **** class FatFSInterface
  28:../../libDaisy//src/sys/fatfs.h **** {
  29:../../libDaisy//src/sys/fatfs.h ****   public:
  30:../../libDaisy//src/sys/fatfs.h ****     /** Return values specifying specific errors for linking Daisy to FatFS */
  31:../../libDaisy//src/sys/fatfs.h ****     enum Result
  32:../../libDaisy//src/sys/fatfs.h ****     {
  33:../../libDaisy//src/sys/fatfs.h ****         OK,
  34:../../libDaisy//src/sys/fatfs.h ****         ERR_TOO_MANY_VOLUMES,
  35:../../libDaisy//src/sys/fatfs.h ****         ERR_NO_MEDIA_SELECTED,
  36:../../libDaisy//src/sys/fatfs.h ****         ERR_GENERIC,
  37:../../libDaisy//src/sys/fatfs.h ****     };
  38:../../libDaisy//src/sys/fatfs.h **** 
  39:../../libDaisy//src/sys/fatfs.h ****     /** Config structure for configuring Daisy to FatFS */
  40:../../libDaisy//src/sys/fatfs.h ****     struct Config
  41:../../libDaisy//src/sys/fatfs.h ****     {
  42:../../libDaisy//src/sys/fatfs.h ****         /** Selected Media that will be linked to FatFS 
  43:../../libDaisy//src/sys/fatfs.h ****          *  These values can be OR'd together when multiple
ARM GAS  C:\Users\danig\AppData\Local\Temp\ccjwnbkG.s 			page 4


  44:../../libDaisy//src/sys/fatfs.h ****          *  volumes are desired 
  45:../../libDaisy//src/sys/fatfs.h ****          *  i.e. config.media = Media::SD | Media::USBH;
  46:../../libDaisy//src/sys/fatfs.h ****          * 
  47:../../libDaisy//src/sys/fatfs.h ****          *  When mounting multiple volumes, ffconf.h must have 
  48:../../libDaisy//src/sys/fatfs.h ****          *  _VOLUMES set to an appropriate value.
  49:../../libDaisy//src/sys/fatfs.h ****          * 
  50:../../libDaisy//src/sys/fatfs.h ****          *  FatFS will register multiple volumes in the order of the enum,
  51:../../libDaisy//src/sys/fatfs.h ****          *   the first registered class will mount at "0:/",
  52:../../libDaisy//src/sys/fatfs.h ****          *   the second registered class will mount at "1:/", and so on
  53:../../libDaisy//src/sys/fatfs.h ****          */
  54:../../libDaisy//src/sys/fatfs.h ****         enum Media : uint8_t
  55:../../libDaisy//src/sys/fatfs.h ****         {
  56:../../libDaisy//src/sys/fatfs.h ****             MEDIA_SD  = 0x01,
  57:../../libDaisy//src/sys/fatfs.h ****             MEDIA_USB = 0x02,
  58:../../libDaisy//src/sys/fatfs.h ****             // MEDIA_QSPI = 0x04,
  59:../../libDaisy//src/sys/fatfs.h ****         };
  60:../../libDaisy//src/sys/fatfs.h **** 
  61:../../libDaisy//src/sys/fatfs.h ****         uint8_t media;
  62:../../libDaisy//src/sys/fatfs.h ****     };
  63:../../libDaisy//src/sys/fatfs.h **** 
  64:../../libDaisy//src/sys/fatfs.h ****     FatFSInterface() {}
  48              		.loc 3 64 5 is_stmt 1 view .LVU4
  49              		.loc 3 64 5 is_stmt 0 view .LVU5
  50              	.LBE13:
  51              		.loc 1 5 71 view .LVU6
  52 0004 A0F8B426 		strh	r2, [r0, #1716]	@ movhi
  53 0008 C0F8B826 		str	r2, [r0, #1720]
  54              	.LBE11:
   6:SdHandler.cpp **** {
   7:SdHandler.cpp **** }
  55              		.loc 1 7 1 view .LVU7
  56 000c 7047     		bx	lr
  57              		.cfi_endproc
  58              	.LFE2735:
  60              		.global	_ZN9SdHandlerC1ERN5daisy9DaisySeedE
  61              		.thumb_set _ZN9SdHandlerC1ERN5daisy9DaisySeedE,_ZN9SdHandlerC2ERN5daisy9DaisySeedE
  62              		.section	.rodata._ZN9SdHandler8TryMountEN5daisy12SdmmcHandler5SpeedENS1_8BusWidthE.str1.1,"aMS",%p
  63              	.LC0:
  64 0000 2F00     		.ascii	"/\000"
  65              		.section	.text._ZN9SdHandler8TryMountEN5daisy12SdmmcHandler5SpeedENS1_8BusWidthE,"ax",%progbits
  66              		.align	1
  67              		.global	_ZN9SdHandler8TryMountEN5daisy12SdmmcHandler5SpeedENS1_8BusWidthE
  68              		.syntax unified
  69              		.thumb
  70              		.thumb_func
  71              		.fpu fpv5-d16
  73              	_ZN9SdHandler8TryMountEN5daisy12SdmmcHandler5SpeedENS1_8BusWidthE:
  74              	.LVL2:
  75              	.LFB2737:
   8:SdHandler.cpp **** 
   9:SdHandler.cpp **** bool SdHandler::TryMount(SdmmcHandler::Speed    speed,
  10:SdHandler.cpp ****                          SdmmcHandler::BusWidth width)
  11:SdHandler.cpp **** {
  76              		.loc 1 11 1 is_stmt 1 view -0
  77              		.cfi_startproc
  78              		@ args = 0, pretend = 0, frame = 16
  79              		@ frame_needed = 0, uses_anonymous_args = 0
ARM GAS  C:\Users\danig\AppData\Local\Temp\ccjwnbkG.s 			page 5


  12:SdHandler.cpp ****     SdmmcHandler::Config sd_cfg;
  80              		.loc 1 12 5 view .LVU9
  13:SdHandler.cpp ****     sd_cfg.Defaults();
  81              		.loc 1 13 5 view .LVU10
  11:SdHandler.cpp ****     SdmmcHandler::Config sd_cfg;
  82              		.loc 1 11 1 is_stmt 0 view .LVU11
  83 0000 1FB5     		push	{r0, r1, r2, r3, r4, lr}
  84              		.cfi_def_cfa_offset 24
  85              		.cfi_offset 4, -8
  86              		.cfi_offset 14, -4
  87              	.LVL3:
  88              	.LBB14:
  89              	.LBI14:
  69:../../libDaisy//src/per/sdmmc.h ****         {
  90              		.loc 2 69 14 is_stmt 1 view .LVU12
  91              	.LBB15:
  71:../../libDaisy//src/per/sdmmc.h ****             width           = BusWidth::BITS_4;
  92              		.loc 2 71 13 view .LVU13
  72:../../libDaisy//src/per/sdmmc.h ****             clock_powersave = false;
  93              		.loc 2 72 13 view .LVU14
  73:../../libDaisy//src/per/sdmmc.h ****         }
  94              		.loc 2 73 13 view .LVU15
  73:../../libDaisy//src/per/sdmmc.h ****         }
  95              		.loc 2 73 29 is_stmt 0 view .LVU16
  96 0002 0023     		movs	r3, #0
  97              	.LBE15:
  98              	.LBE14:
  11:SdHandler.cpp ****     SdmmcHandler::Config sd_cfg;
  99              		.loc 1 11 1 view .LVU17
 100 0004 0446     		mov	r4, r0
  14:SdHandler.cpp ****     sd_cfg.speed = speed;
  15:SdHandler.cpp ****     sd_cfg.width = width;
  16:SdHandler.cpp ****     sd_.Init(sd_cfg);
 101              		.loc 1 16 13 view .LVU18
 102 0006 0430     		adds	r0, r0, #4
 103              	.LVL4:
 104              	.LBB17:
 105              	.LBB16:
  73:../../libDaisy//src/per/sdmmc.h ****         }
 106              		.loc 2 73 29 view .LVU19
 107 0008 8DF80C30 		strb	r3, [sp, #12]
 108              	.LVL5:
  73:../../libDaisy//src/per/sdmmc.h ****         }
 109              		.loc 2 73 29 view .LVU20
 110              	.LBE16:
 111              	.LBE17:
  14:SdHandler.cpp ****     sd_cfg.speed = speed;
 112              		.loc 1 14 5 is_stmt 1 view .LVU21
  15:SdHandler.cpp ****     sd_.Init(sd_cfg);
 113              		.loc 1 15 18 is_stmt 0 view .LVU22
 114 000c CDE90112 		strd	r1, r2, [sp, #4]
 115              		.loc 1 16 5 is_stmt 1 view .LVU23
 116              		.loc 1 16 13 is_stmt 0 view .LVU24
 117 0010 01A9     		add	r1, sp, #4
 118              	.LVL6:
 119              		.loc 1 16 13 view .LVU25
 120 0012 FFF7FEFF 		bl	_ZN5daisy12SdmmcHandler4InitERKNS0_6ConfigE
ARM GAS  C:\Users\danig\AppData\Local\Temp\ccjwnbkG.s 			page 6


 121              	.LVL7:
  17:SdHandler.cpp ****     fsi_.Init(FatFSInterface::Config::MEDIA_SD);
 122              		.loc 1 17 5 is_stmt 1 view .LVU26
 123              		.loc 1 17 14 is_stmt 0 view .LVU27
 124 0016 0121     		movs	r1, #1
 125 0018 04F10800 		add	r0, r4, #8
 126 001c FFF7FEFF 		bl	_ZN5daisy14FatFSInterface4InitEh
 127              	.LVL8:
  18:SdHandler.cpp ****     FRESULT res = f_mount(&fsi_.GetSDFileSystem(), "/", 1);
 128              		.loc 1 18 5 is_stmt 1 view .LVU28
 129              	.LBB18:
 130              	.LBI18:
  65:../../libDaisy//src/sys/fatfs.h **** 
  66:../../libDaisy//src/sys/fatfs.h ****     /** Link the desired hardware specified via Config::Media */
  67:../../libDaisy//src/sys/fatfs.h ****     Result Init(const Config& cfg);
  68:../../libDaisy//src/sys/fatfs.h **** 
  69:../../libDaisy//src/sys/fatfs.h ****     /** Link the desired hardware specified via Config::Media 
  70:../../libDaisy//src/sys/fatfs.h ****      * 
  71:../../libDaisy//src/sys/fatfs.h ****      *  Alternate, explicit initialization provided for simplified syntax.
  72:../../libDaisy//src/sys/fatfs.h ****      */
  73:../../libDaisy//src/sys/fatfs.h ****     Result Init(const uint8_t media);
  74:../../libDaisy//src/sys/fatfs.h **** 
  75:../../libDaisy//src/sys/fatfs.h ****     /** Unlinks FatFS from the configured media */
  76:../../libDaisy//src/sys/fatfs.h ****     Result DeInit();
  77:../../libDaisy//src/sys/fatfs.h **** 
  78:../../libDaisy//src/sys/fatfs.h ****     bool Initialized() const { return initialized_; }
  79:../../libDaisy//src/sys/fatfs.h **** 
  80:../../libDaisy//src/sys/fatfs.h ****     /** Return the current configuration */
  81:../../libDaisy//src/sys/fatfs.h ****     const Config& GetConfig() const { return cfg_; }
  82:../../libDaisy//src/sys/fatfs.h **** 
  83:../../libDaisy//src/sys/fatfs.h ****     /** Return a mutable reference to the Configuration */
  84:../../libDaisy//src/sys/fatfs.h ****     Config& GetMutableConfig() { return cfg_; }
  85:../../libDaisy//src/sys/fatfs.h **** 
  86:../../libDaisy//src/sys/fatfs.h ****     /** Returns the path to an SD Card volume to use with f_mount */
  87:../../libDaisy//src/sys/fatfs.h ****     const char* GetSDPath() const { return path_[0]; }
  88:../../libDaisy//src/sys/fatfs.h **** 
  89:../../libDaisy//src/sys/fatfs.h ****     /** Returns the path to a USB Device volume to use with f_mount */
  90:../../libDaisy//src/sys/fatfs.h ****     const char* GetUSBPath() const { return path_[1]; }
  91:../../libDaisy//src/sys/fatfs.h **** 
  92:../../libDaisy//src/sys/fatfs.h ****     /** Returns reference to filesystem object for the SD volume. */
  93:../../libDaisy//src/sys/fatfs.h ****     FATFS& GetSDFileSystem() { return fs_[0]; }
 131              		.loc 3 93 12 view .LVU29
 132              	.LBB19:
 133              		.loc 3 93 32 view .LVU30
 134              		.loc 3 93 32 is_stmt 0 view .LVU31
 135              	.LBE19:
 136              	.LBE18:
 137              		.loc 1 18 26 view .LVU32
 138 0020 0122     		movs	r2, #1
 139 0022 0549     		ldr	r1, .L3
 140 0024 04F10C00 		add	r0, r4, #12
 141 0028 FFF7FEFF 		bl	f_mount
 142              	.LVL9:
  19:SdHandler.cpp ****     return res == FR_OK;
 143              		.loc 1 19 5 is_stmt 1 view .LVU33
  20:SdHandler.cpp **** }
 144              		.loc 1 20 1 is_stmt 0 view .LVU34
ARM GAS  C:\Users\danig\AppData\Local\Temp\ccjwnbkG.s 			page 7


 145 002c B0FA80F0 		clz	r0, r0
 146              	.LVL10:
 147              		.loc 1 20 1 view .LVU35
 148 0030 4009     		lsrs	r0, r0, #5
 149 0032 04B0     		add	sp, sp, #16
 150              		.cfi_def_cfa_offset 8
 151              		@ sp needed
 152 0034 10BD     		pop	{r4, pc}
 153              	.LVL11:
 154              	.L4:
 155              		.loc 1 20 1 view .LVU36
 156 0036 00BF     		.align	2
 157              	.L3:
 158 0038 00000000 		.word	.LC0
 159              		.cfi_endproc
 160              	.LFE2737:
 162              		.section	.text._ZN9SdHandler4InitEv,"ax",%progbits
 163              		.align	1
 164              		.global	_ZN9SdHandler4InitEv
 165              		.syntax unified
 166              		.thumb
 167              		.thumb_func
 168              		.fpu fpv5-d16
 170              	_ZN9SdHandler4InitEv:
 171              	.LVL12:
 172              	.LFB2738:
  21:SdHandler.cpp **** 
  22:SdHandler.cpp **** bool SdHandler::Init()
  23:SdHandler.cpp **** {
 173              		.loc 1 23 1 is_stmt 1 view -0
 174              		.cfi_startproc
 175              		@ args = 0, pretend = 0, frame = 0
 176              		@ frame_needed = 0, uses_anonymous_args = 0
  24:SdHandler.cpp ****     mounted_   = false;
 177              		.loc 1 24 5 view .LVU38
 178              		.loc 1 24 16 is_stmt 0 view .LVU39
 179 0000 0022     		movs	r2, #0
  25:SdHandler.cpp ****     lastError_ = SdError::NONE;
  26:SdHandler.cpp **** 
  27:SdHandler.cpp ****     if(TryMount(SdmmcHandler::Speed::MEDIUM_SLOW,
 180              		.loc 1 27 16 view .LVU40
 181 0002 0121     		movs	r1, #1
  23:SdHandler.cpp ****     mounted_   = false;
 182              		.loc 1 23 1 view .LVU41
 183 0004 10B5     		push	{r4, lr}
 184              		.cfi_def_cfa_offset 8
 185              		.cfi_offset 4, -8
 186              		.cfi_offset 14, -4
  24:SdHandler.cpp ****     mounted_   = false;
 187              		.loc 1 24 16 view .LVU42
 188 0006 80F8B426 		strb	r2, [r0, #1716]
  25:SdHandler.cpp ****     lastError_ = SdError::NONE;
 189              		.loc 1 25 5 is_stmt 1 view .LVU43
  23:SdHandler.cpp ****     mounted_   = false;
 190              		.loc 1 23 1 is_stmt 0 view .LVU44
 191 000a 0446     		mov	r4, r0
  25:SdHandler.cpp ****     lastError_ = SdError::NONE;
ARM GAS  C:\Users\danig\AppData\Local\Temp\ccjwnbkG.s 			page 8


 192              		.loc 1 25 16 view .LVU45
 193 000c C0F8B826 		str	r2, [r0, #1720]
 194              		.loc 1 27 5 is_stmt 1 view .LVU46
 195              		.loc 1 27 16 is_stmt 0 view .LVU47
 196 0010 FFF7FEFF 		bl	_ZN9SdHandler8TryMountEN5daisy12SdmmcHandler5SpeedENS1_8BusWidthE
 197              	.LVL13:
 198              		.loc 1 27 5 view .LVU48
 199 0014 0246     		mov	r2, r0
 200 0016 18B1     		cbz	r0, .L6
 201              	.L8:
  28:SdHandler.cpp ****                 SdmmcHandler::BusWidth::BITS_1))
  29:SdHandler.cpp ****     {
  30:SdHandler.cpp ****         mounted_ = true;
 202              		.loc 1 30 9 is_stmt 1 view .LVU49
 203              		.loc 1 30 18 is_stmt 0 view .LVU50
 204 0018 0120     		movs	r0, #1
 205 001a 84F8B406 		strb	r0, [r4, #1716]
  31:SdHandler.cpp ****         return true;
 206              		.loc 1 31 9 is_stmt 1 view .LVU51
 207              	.L7:
  32:SdHandler.cpp ****     }
  33:SdHandler.cpp **** 
  34:SdHandler.cpp ****     if(TryMount(SdmmcHandler::Speed::SLOW, SdmmcHandler::BusWidth::BITS_1))
  35:SdHandler.cpp ****     {
  36:SdHandler.cpp ****         mounted_ = true;
  37:SdHandler.cpp ****         return true;
  38:SdHandler.cpp ****     }
  39:SdHandler.cpp **** 
  40:SdHandler.cpp ****     lastError_ = SdError::MOUNT_FAILED;
  41:SdHandler.cpp ****     return false;
  42:SdHandler.cpp **** }
 208              		.loc 1 42 1 is_stmt 0 view .LVU52
 209 001e 10BD     		pop	{r4, pc}
 210              	.LVL14:
 211              	.L6:
  34:SdHandler.cpp ****     {
 212              		.loc 1 34 5 is_stmt 1 view .LVU53
  34:SdHandler.cpp ****     {
 213              		.loc 1 34 16 is_stmt 0 view .LVU54
 214 0020 0146     		mov	r1, r0
 215 0022 2046     		mov	r0, r4
 216 0024 FFF7FEFF 		bl	_ZN9SdHandler8TryMountEN5daisy12SdmmcHandler5SpeedENS1_8BusWidthE
 217              	.LVL15:
  34:SdHandler.cpp ****     {
 218              		.loc 1 34 5 view .LVU55
 219 0028 0028     		cmp	r0, #0
 220 002a F5D1     		bne	.L8
  40:SdHandler.cpp ****     return false;
 221              		.loc 1 40 5 is_stmt 1 view .LVU56
  40:SdHandler.cpp ****     return false;
 222              		.loc 1 40 16 is_stmt 0 view .LVU57
 223 002c 0123     		movs	r3, #1
 224 002e C4F8B836 		str	r3, [r4, #1720]
  41:SdHandler.cpp **** }
 225              		.loc 1 41 5 is_stmt 1 view .LVU58
  41:SdHandler.cpp **** }
 226              		.loc 1 41 12 is_stmt 0 view .LVU59
ARM GAS  C:\Users\danig\AppData\Local\Temp\ccjwnbkG.s 			page 9


 227 0032 F4E7     		b	.L7
 228              		.cfi_endproc
 229              	.LFE2738:
 231              		.section	.text._ZNK9SdHandler12GetLastErrorEv,"ax",%progbits
 232              		.align	1
 233              		.global	_ZNK9SdHandler12GetLastErrorEv
 234              		.syntax unified
 235              		.thumb
 236              		.thumb_func
 237              		.fpu fpv5-d16
 239              	_ZNK9SdHandler12GetLastErrorEv:
 240              	.LVL16:
 241              	.LFB2739:
  43:SdHandler.cpp **** 
  44:SdHandler.cpp **** SdError SdHandler::GetLastError() const
  45:SdHandler.cpp **** { return lastError_; }
 242              		.loc 1 45 1 is_stmt 1 view -0
 243              		.cfi_startproc
 244              		@ args = 0, pretend = 0, frame = 0
 245              		@ frame_needed = 0, uses_anonymous_args = 0
 246              		@ link register save eliminated.
 247              		.loc 1 45 3 view .LVU61
 248              		.loc 1 45 22 is_stmt 0 view .LVU62
 249 0000 D0F8B806 		ldr	r0, [r0, #1720]
 250              	.LVL17:
 251              		.loc 1 45 22 view .LVU63
 252 0004 7047     		bx	lr
 253              		.cfi_endproc
 254              	.LFE2739:
 256              		.section	.text._ZNK9SdHandler9IsMountedEv,"ax",%progbits
 257              		.align	1
 258              		.global	_ZNK9SdHandler9IsMountedEv
 259              		.syntax unified
 260              		.thumb
 261              		.thumb_func
 262              		.fpu fpv5-d16
 264              	_ZNK9SdHandler9IsMountedEv:
 265              	.LVL18:
 266              	.LFB2740:
  46:SdHandler.cpp **** bool SdHandler::IsMounted() const
  47:SdHandler.cpp **** { return mounted_; }
 267              		.loc 1 47 1 is_stmt 1 view -0
 268              		.cfi_startproc
 269              		@ args = 0, pretend = 0, frame = 0
 270              		@ frame_needed = 0, uses_anonymous_args = 0
 271              		@ link register save eliminated.
 272              		.loc 1 47 3 view .LVU65
 273              		.loc 1 47 20 is_stmt 0 view .LVU66
 274 0000 90F8B406 		ldrb	r0, [r0, #1716]	@ zero_extendqisi2
 275              	.LVL19:
 276              		.loc 1 47 20 view .LVU67
 277 0004 7047     		bx	lr
 278              		.cfi_endproc
 279              	.LFE2740:
 281              		.section	.text._ZN9SdHandler8ReadFileEPKcPhj,"ax",%progbits
 282              		.align	1
 283              		.global	_ZN9SdHandler8ReadFileEPKcPhj
ARM GAS  C:\Users\danig\AppData\Local\Temp\ccjwnbkG.s 			page 10


 284              		.syntax unified
 285              		.thumb
 286              		.thumb_func
 287              		.fpu fpv5-d16
 289              	_ZN9SdHandler8ReadFileEPKcPhj:
 290              	.LVL20:
 291              	.LFB2741:
  48:SdHandler.cpp **** 
  49:SdHandler.cpp **** size_t SdHandler::ReadFile(const char* path, uint8_t* buffer, size_t maxSize)
  50:SdHandler.cpp **** {
 292              		.loc 1 50 1 is_stmt 1 view -0
 293              		.cfi_startproc
 294              		@ args = 0, pretend = 0, frame = 560
 295              		@ frame_needed = 0, uses_anonymous_args = 0
  51:SdHandler.cpp ****     lastError_ = SdError::NONE;
 296              		.loc 1 51 5 view .LVU69
  50:SdHandler.cpp ****     lastError_ = SdError::NONE;
 297              		.loc 1 50 1 is_stmt 0 view .LVU70
 298 0000 2DE9F041 		push	{r4, r5, r6, r7, r8, lr}
 299              		.cfi_def_cfa_offset 24
 300              		.cfi_offset 4, -24
 301              		.cfi_offset 5, -20
 302              		.cfi_offset 6, -16
 303              		.cfi_offset 7, -12
 304              		.cfi_offset 8, -8
 305              		.cfi_offset 14, -4
 306              		.loc 1 51 16 view .LVU71
 307 0004 4FF00008 		mov	r8, #0
  52:SdHandler.cpp **** 
  53:SdHandler.cpp ****     if(!mounted_)
 308              		.loc 1 53 5 view .LVU72
 309 0008 90F8B446 		ldrb	r4, [r0, #1716]	@ zero_extendqisi2
  50:SdHandler.cpp ****     lastError_ = SdError::NONE;
 310              		.loc 1 50 1 view .LVU73
 311 000c ADF50C7D 		sub	sp, sp, #560
 312              		.cfi_def_cfa_offset 584
  50:SdHandler.cpp ****     lastError_ = SdError::NONE;
 313              		.loc 1 50 1 view .LVU74
 314 0010 0546     		mov	r5, r0
 315 0012 1646     		mov	r6, r2
 316 0014 1F46     		mov	r7, r3
  51:SdHandler.cpp **** 
 317              		.loc 1 51 16 view .LVU75
 318 0016 C0F8B886 		str	r8, [r0, #1720]
 319              		.loc 1 53 5 is_stmt 1 view .LVU76
 320 001a 1CB9     		cbnz	r4, .L12
  54:SdHandler.cpp ****     {
  55:SdHandler.cpp ****         lastError_ = SdError::NOT_MOUNTED;
 321              		.loc 1 55 9 view .LVU77
 322              		.loc 1 55 20 is_stmt 0 view .LVU78
 323 001c 0523     		movs	r3, #5
 324              	.LVL21:
 325              	.L17:
  56:SdHandler.cpp ****         return 0;
  57:SdHandler.cpp ****     }
  58:SdHandler.cpp **** 
  59:SdHandler.cpp ****     FIL file;
ARM GAS  C:\Users\danig\AppData\Local\Temp\ccjwnbkG.s 			page 11


  60:SdHandler.cpp ****     if(f_open(&file, path, FA_READ) != FR_OK)
  61:SdHandler.cpp ****     {
  62:SdHandler.cpp ****         lastError_ = SdError::FILE_NOT_FOUND;
  63:SdHandler.cpp ****         return 0;
  64:SdHandler.cpp ****     }
  65:SdHandler.cpp **** 
  66:SdHandler.cpp ****     size_t fileSize = f_size(&file);
  67:SdHandler.cpp ****     if(fileSize > maxSize)
  68:SdHandler.cpp ****     {
  69:SdHandler.cpp ****         f_close(&file);
  70:SdHandler.cpp ****         lastError_ = SdError::BUFFER_TOO_SMALL;
  71:SdHandler.cpp ****         return 0;
  72:SdHandler.cpp ****     }
  73:SdHandler.cpp **** 
  74:SdHandler.cpp ****     UINT bytesRead = 0;
  75:SdHandler.cpp ****     if(f_read(&file, buffer, fileSize, &bytesRead) != FR_OK)
  76:SdHandler.cpp ****     {
  77:SdHandler.cpp ****         f_close(&file);
  78:SdHandler.cpp ****         lastError_ = SdError::READ_FAILED;
 326              		.loc 1 78 20 view .LVU79
 327 001e C5F8B836 		str	r3, [r5, #1720]
  79:SdHandler.cpp ****         return 0;
 328              		.loc 1 79 9 is_stmt 1 view .LVU80
 329              		.loc 1 79 16 is_stmt 0 view .LVU81
 330 0022 09E0     		b	.L11
 331              	.LVL22:
 332              	.L12:
  59:SdHandler.cpp ****     if(f_open(&file, path, FA_READ) != FR_OK)
 333              		.loc 1 59 5 is_stmt 1 view .LVU82
  60:SdHandler.cpp ****     {
 334              		.loc 1 60 5 view .LVU83
  60:SdHandler.cpp ****     {
 335              		.loc 1 60 14 is_stmt 0 view .LVU84
 336 0024 0122     		movs	r2, #1
 337              	.LVL23:
  60:SdHandler.cpp ****     {
 338              		.loc 1 60 14 view .LVU85
 339 0026 01A8     		add	r0, sp, #4
 340              	.LVL24:
  60:SdHandler.cpp ****     {
 341              		.loc 1 60 14 view .LVU86
 342 0028 FFF7FEFF 		bl	f_open
 343              	.LVL25:
  60:SdHandler.cpp ****     {
 344              		.loc 1 60 5 view .LVU87
 345 002c 0446     		mov	r4, r0
 346 002e 40B1     		cbz	r0, .L14
  62:SdHandler.cpp ****         return 0;
 347              		.loc 1 62 9 is_stmt 1 view .LVU88
  62:SdHandler.cpp ****         return 0;
 348              		.loc 1 62 20 is_stmt 0 view .LVU89
 349 0030 0223     		movs	r3, #2
  63:SdHandler.cpp ****     }
 350              		.loc 1 63 16 view .LVU90
 351 0032 4446     		mov	r4, r8
  62:SdHandler.cpp ****         return 0;
 352              		.loc 1 62 20 view .LVU91
ARM GAS  C:\Users\danig\AppData\Local\Temp\ccjwnbkG.s 			page 12


 353 0034 C5F8B836 		str	r3, [r5, #1720]
  63:SdHandler.cpp ****     }
 354              		.loc 1 63 9 is_stmt 1 view .LVU92
 355              	.L11:
  80:SdHandler.cpp ****     }
  81:SdHandler.cpp **** 
  82:SdHandler.cpp ****     f_close(&file);
  83:SdHandler.cpp ****     return bytesRead;
  84:SdHandler.cpp **** }
 356              		.loc 1 84 1 is_stmt 0 view .LVU93
 357 0038 2046     		mov	r0, r4
 358 003a 0DF50C7D 		add	sp, sp, #560
 359              		.cfi_remember_state
 360              		.cfi_def_cfa_offset 24
 361              		@ sp needed
 362 003e BDE8F081 		pop	{r4, r5, r6, r7, r8, pc}
 363              	.LVL26:
 364              	.L14:
 365              		.cfi_restore_state
  66:SdHandler.cpp ****     if(fileSize > maxSize)
 366              		.loc 1 66 5 is_stmt 1 view .LVU94
  66:SdHandler.cpp ****     if(fileSize > maxSize)
 367              		.loc 1 66 12 is_stmt 0 view .LVU95
 368 0042 049A     		ldr	r2, [sp, #16]
 369              	.LVL27:
  67:SdHandler.cpp ****     {
 370              		.loc 1 67 5 is_stmt 1 view .LVU96
 371 0044 BA42     		cmp	r2, r7
 372 0046 04D9     		bls	.L15
  69:SdHandler.cpp ****         lastError_ = SdError::BUFFER_TOO_SMALL;
 373              		.loc 1 69 9 view .LVU97
  69:SdHandler.cpp ****         lastError_ = SdError::BUFFER_TOO_SMALL;
 374              		.loc 1 69 16 is_stmt 0 view .LVU98
 375 0048 01A8     		add	r0, sp, #4
 376 004a FFF7FEFF 		bl	f_close
 377              	.LVL28:
  70:SdHandler.cpp ****         return 0;
 378              		.loc 1 70 9 is_stmt 1 view .LVU99
  70:SdHandler.cpp ****         return 0;
 379              		.loc 1 70 20 is_stmt 0 view .LVU100
 380 004e 0423     		movs	r3, #4
 381 0050 E5E7     		b	.L17
 382              	.LVL29:
 383              	.L15:
  74:SdHandler.cpp ****     if(f_read(&file, buffer, fileSize, &bytesRead) != FR_OK)
 384              		.loc 1 74 5 is_stmt 1 view .LVU101
  74:SdHandler.cpp ****     if(f_read(&file, buffer, fileSize, &bytesRead) != FR_OK)
 385              		.loc 1 74 10 is_stmt 0 view .LVU102
 386 0052 0090     		str	r0, [sp]
  75:SdHandler.cpp ****     {
 387              		.loc 1 75 5 is_stmt 1 view .LVU103
  75:SdHandler.cpp ****     {
 388              		.loc 1 75 14 is_stmt 0 view .LVU104
 389 0054 6B46     		mov	r3, sp
 390 0056 3146     		mov	r1, r6
 391 0058 01A8     		add	r0, sp, #4
 392 005a FFF7FEFF 		bl	f_read
ARM GAS  C:\Users\danig\AppData\Local\Temp\ccjwnbkG.s 			page 13


 393              	.LVL30:
  75:SdHandler.cpp ****     {
 394              		.loc 1 75 5 view .LVU105
 395 005e 20B1     		cbz	r0, .L16
  77:SdHandler.cpp ****         lastError_ = SdError::READ_FAILED;
 396              		.loc 1 77 9 is_stmt 1 view .LVU106
  77:SdHandler.cpp ****         lastError_ = SdError::READ_FAILED;
 397              		.loc 1 77 16 is_stmt 0 view .LVU107
 398 0060 01A8     		add	r0, sp, #4
 399 0062 FFF7FEFF 		bl	f_close
 400              	.LVL31:
  78:SdHandler.cpp ****         return 0;
 401              		.loc 1 78 9 is_stmt 1 view .LVU108
  78:SdHandler.cpp ****         return 0;
 402              		.loc 1 78 20 is_stmt 0 view .LVU109
 403 0066 0323     		movs	r3, #3
 404 0068 D9E7     		b	.L17
 405              	.L16:
  82:SdHandler.cpp ****     return bytesRead;
 406              		.loc 1 82 5 is_stmt 1 view .LVU110
  82:SdHandler.cpp ****     return bytesRead;
 407              		.loc 1 82 12 is_stmt 0 view .LVU111
 408 006a 01A8     		add	r0, sp, #4
 409 006c FFF7FEFF 		bl	f_close
 410              	.LVL32:
  83:SdHandler.cpp **** }
 411              		.loc 1 83 5 is_stmt 1 view .LVU112
  83:SdHandler.cpp **** }
 412              		.loc 1 83 12 is_stmt 0 view .LVU113
 413 0070 009C     		ldr	r4, [sp]
 414 0072 E1E7     		b	.L11
 415              		.cfi_endproc
 416              	.LFE2741:
 418              		.section	.text._ZN9SdHandler8ReadLineEPcj,"ax",%progbits
 419              		.align	1
 420              		.global	_ZN9SdHandler8ReadLineEPcj
 421              		.syntax unified
 422              		.thumb
 423              		.thumb_func
 424              		.fpu fpv5-d16
 426              	_ZN9SdHandler8ReadLineEPcj:
 427              	.LVL33:
 428              	.LFB2743:
  85:SdHandler.cpp **** 
  86:SdHandler.cpp **** bool SdHandler::OpenFile(const char* path)
  87:SdHandler.cpp **** {
  88:SdHandler.cpp ****     lastError_ = SdError::NONE;
  89:SdHandler.cpp **** 
  90:SdHandler.cpp ****     if(!mounted_)
  91:SdHandler.cpp ****     {
  92:SdHandler.cpp ****         lastError_ = SdError::NOT_MOUNTED;
  93:SdHandler.cpp ****         return false;
  94:SdHandler.cpp ****     }
  95:SdHandler.cpp **** 
  96:SdHandler.cpp ****     if(fileOpen_)
  97:SdHandler.cpp ****         CloseFile();
  98:SdHandler.cpp **** 
ARM GAS  C:\Users\danig\AppData\Local\Temp\ccjwnbkG.s 			page 14


  99:SdHandler.cpp ****     if(f_open(&file_, path, FA_READ) != FR_OK)
 100:SdHandler.cpp ****     {
 101:SdHandler.cpp ****         lastError_ = SdError::FILE_NOT_FOUND;
 102:SdHandler.cpp ****         return false;
 103:SdHandler.cpp ****     }
 104:SdHandler.cpp **** 
 105:SdHandler.cpp ****     fileOpen_ = true;
 106:SdHandler.cpp ****     return true;
 107:SdHandler.cpp **** }
 108:SdHandler.cpp **** 
 109:SdHandler.cpp **** bool SdHandler::ReadLine(char* buffer, size_t maxLen)
 110:SdHandler.cpp **** {
 429              		.loc 1 110 1 is_stmt 1 view -0
 430              		.cfi_startproc
 431              		@ args = 0, pretend = 0, frame = 0
 432              		@ frame_needed = 0, uses_anonymous_args = 0
 111:SdHandler.cpp ****     if(!fileOpen_)
 433              		.loc 1 111 5 view .LVU115
 110:SdHandler.cpp ****     if(!fileOpen_)
 434              		.loc 1 110 1 is_stmt 0 view .LVU116
 435 0000 38B5     		push	{r3, r4, r5, lr}
 436              		.cfi_def_cfa_offset 16
 437              		.cfi_offset 3, -16
 438              		.cfi_offset 4, -12
 439              		.cfi_offset 5, -8
 440              		.cfi_offset 14, -4
 441              		.loc 1 111 9 view .LVU117
 442 0002 90F8B556 		ldrb	r5, [r0, #1717]	@ zero_extendqisi2
 110:SdHandler.cpp ****     if(!fileOpen_)
 443              		.loc 1 110 1 view .LVU118
 444 0006 0C46     		mov	r4, r1
 445 0008 1146     		mov	r1, r2
 446              	.LVL34:
 447              		.loc 1 111 5 view .LVU119
 448 000a 25B9     		cbnz	r5, .L19
 112:SdHandler.cpp ****     {
 113:SdHandler.cpp ****         lastError_ = SdError::NO_FILE_OPEN;
 449              		.loc 1 113 9 is_stmt 1 view .LVU120
 450              		.loc 1 113 20 is_stmt 0 view .LVU121
 451 000c 0623     		movs	r3, #6
 452 000e C0F8B836 		str	r3, [r0, #1720]
 114:SdHandler.cpp ****         return false;
 453              		.loc 1 114 9 is_stmt 1 view .LVU122
 454              	.LVL35:
 455              	.L20:
 115:SdHandler.cpp ****     }
 116:SdHandler.cpp **** 
 117:SdHandler.cpp ****     if(f_gets(buffer, maxLen, &file_) == NULL)
 118:SdHandler.cpp ****         return false;
 119:SdHandler.cpp **** 
 120:SdHandler.cpp ****     size_t len = strlen(buffer);
 121:SdHandler.cpp ****     while(len > 0 && (buffer[len - 1] == '\n' || buffer[len - 1] == '\r'))
 122:SdHandler.cpp ****         buffer[--len] = '\0';
 123:SdHandler.cpp **** 
 124:SdHandler.cpp ****     return true;
 125:SdHandler.cpp **** }
 456              		.loc 1 125 1 is_stmt 0 view .LVU123
ARM GAS  C:\Users\danig\AppData\Local\Temp\ccjwnbkG.s 			page 15


 457 0012 2846     		mov	r0, r5
 458 0014 38BD     		pop	{r3, r4, r5, pc}
 459              	.LVL36:
 460              	.L19:
 117:SdHandler.cpp ****         return false;
 461              		.loc 1 117 5 is_stmt 1 view .LVU124
 117:SdHandler.cpp ****         return false;
 462              		.loc 1 117 14 is_stmt 0 view .LVU125
 463 0016 00F59162 		add	r2, r0, #1160
 464 001a 2046     		mov	r0, r4
 465              	.LVL37:
 117:SdHandler.cpp ****         return false;
 466              		.loc 1 117 14 view .LVU126
 467 001c FFF7FEFF 		bl	f_gets
 468              	.LVL38:
 117:SdHandler.cpp ****         return false;
 469              		.loc 1 117 5 view .LVU127
 470 0020 78B1     		cbz	r0, .L23
 120:SdHandler.cpp ****     while(len > 0 && (buffer[len - 1] == '\n' || buffer[len - 1] == '\r'))
 471              		.loc 1 120 5 is_stmt 1 view .LVU128
 120:SdHandler.cpp ****     while(len > 0 && (buffer[len - 1] == '\n' || buffer[len - 1] == '\r'))
 472              		.loc 1 120 24 is_stmt 0 view .LVU129
 473 0022 2046     		mov	r0, r4
 474 0024 FFF7FEFF 		bl	strlen
 475              	.LVL39:
 120:SdHandler.cpp ****     while(len > 0 && (buffer[len - 1] == '\n' || buffer[len - 1] == '\r'))
 476              		.loc 1 120 24 view .LVU130
 477 0028 2044     		add	r0, r0, r4
 478              	.LVL40:
 479              	.L22:
 121:SdHandler.cpp ****         buffer[--len] = '\0';
 480              		.loc 1 121 5 is_stmt 1 view .LVU131
 121:SdHandler.cpp ****         buffer[--len] = '\0';
 481              		.loc 1 121 19 view .LVU132
 482 002a A042     		cmp	r0, r4
 483 002c F1D0     		beq	.L20
 121:SdHandler.cpp ****         buffer[--len] = '\0';
 484              		.loc 1 121 37 is_stmt 0 discriminator 1 view .LVU133
 485 002e 10F8013C 		ldrb	r3, [r0, #-1]	@ zero_extendqisi2
 121:SdHandler.cpp ****         buffer[--len] = '\0';
 486              		.loc 1 121 19 discriminator 1 view .LVU134
 487 0032 0A2B     		cmp	r3, #10
 488 0034 01D0     		beq	.L21
 121:SdHandler.cpp ****         buffer[--len] = '\0';
 489              		.loc 1 121 47 discriminator 2 view .LVU135
 490 0036 0D2B     		cmp	r3, #13
 491 0038 EBD1     		bne	.L20
 492              	.L21:
 122:SdHandler.cpp **** 
 493              		.loc 1 122 9 is_stmt 1 view .LVU136
 494              	.LVL41:
 122:SdHandler.cpp **** 
 495              		.loc 1 122 23 is_stmt 0 view .LVU137
 496 003a 0023     		movs	r3, #0
 497 003c 00F8013D 		strb	r3, [r0, #-1]!
 498              	.LVL42:
 121:SdHandler.cpp ****         buffer[--len] = '\0';
ARM GAS  C:\Users\danig\AppData\Local\Temp\ccjwnbkG.s 			page 16


 499              		.loc 1 121 5 view .LVU138
 500 0040 F3E7     		b	.L22
 501              	.LVL43:
 502              	.L23:
 118:SdHandler.cpp **** 
 503              		.loc 1 118 16 view .LVU139
 504 0042 0546     		mov	r5, r0
 505 0044 E5E7     		b	.L20
 506              		.cfi_endproc
 507              	.LFE2743:
 509              		.section	.text._ZN9SdHandler9CloseFileEv,"ax",%progbits
 510              		.align	1
 511              		.global	_ZN9SdHandler9CloseFileEv
 512              		.syntax unified
 513              		.thumb
 514              		.thumb_func
 515              		.fpu fpv5-d16
 517              	_ZN9SdHandler9CloseFileEv:
 518              	.LVL44:
 519              	.LFB2745:
 126:SdHandler.cpp **** 
 127:SdHandler.cpp **** void SdHandler::Flush()
 128:SdHandler.cpp **** {
 129:SdHandler.cpp ****     if(fileOpen_)
 130:SdHandler.cpp ****         CloseFile();
 131:SdHandler.cpp **** }
 132:SdHandler.cpp **** 
 133:SdHandler.cpp **** void SdHandler::CloseFile()
 134:SdHandler.cpp **** {
 520              		.loc 1 134 1 is_stmt 1 view -0
 521              		.cfi_startproc
 522              		@ args = 0, pretend = 0, frame = 0
 523              		@ frame_needed = 0, uses_anonymous_args = 0
 135:SdHandler.cpp ****     if(fileOpen_)
 524              		.loc 1 135 5 view .LVU141
 525 0000 90F8B536 		ldrb	r3, [r0, #1717]	@ zero_extendqisi2
 134:SdHandler.cpp ****     if(fileOpen_)
 526              		.loc 1 134 1 is_stmt 0 view .LVU142
 527 0004 10B5     		push	{r4, lr}
 528              		.cfi_def_cfa_offset 8
 529              		.cfi_offset 4, -8
 530              		.cfi_offset 14, -4
 134:SdHandler.cpp ****     if(fileOpen_)
 531              		.loc 1 134 1 view .LVU143
 532 0006 0446     		mov	r4, r0
 533              		.loc 1 135 5 view .LVU144
 534 0008 33B1     		cbz	r3, .L28
 136:SdHandler.cpp ****     {
 137:SdHandler.cpp ****         f_close(&file_);
 535              		.loc 1 137 9 is_stmt 1 view .LVU145
 536              		.loc 1 137 16 is_stmt 0 view .LVU146
 537 000a 00F59160 		add	r0, r0, #1160
 538              	.LVL45:
 539              		.loc 1 137 16 view .LVU147
 540 000e FFF7FEFF 		bl	f_close
 541              	.LVL46:
 138:SdHandler.cpp ****         fileOpen_ = false;
ARM GAS  C:\Users\danig\AppData\Local\Temp\ccjwnbkG.s 			page 17


 542              		.loc 1 138 9 is_stmt 1 view .LVU148
 543              		.loc 1 138 19 is_stmt 0 view .LVU149
 544 0012 0023     		movs	r3, #0
 545 0014 84F8B536 		strb	r3, [r4, #1717]
 546              	.L28:
 139:SdHandler.cpp ****     }
 140:SdHandler.cpp **** }
 547              		.loc 1 140 1 view .LVU150
 548 0018 10BD     		pop	{r4, pc}
 549              		.loc 1 140 1 view .LVU151
 550              		.cfi_endproc
 551              	.LFE2745:
 553              		.section	.text._ZN9SdHandler8OpenFileEPKc,"ax",%progbits
 554              		.align	1
 555              		.global	_ZN9SdHandler8OpenFileEPKc
 556              		.syntax unified
 557              		.thumb
 558              		.thumb_func
 559              		.fpu fpv5-d16
 561              	_ZN9SdHandler8OpenFileEPKc:
 562              	.LVL47:
 563              	.LFB2742:
  87:SdHandler.cpp ****     lastError_ = SdError::NONE;
 564              		.loc 1 87 1 is_stmt 1 view -0
 565              		.cfi_startproc
 566              		@ args = 0, pretend = 0, frame = 8
 567              		@ frame_needed = 0, uses_anonymous_args = 0
  88:SdHandler.cpp **** 
 568              		.loc 1 88 5 view .LVU153
  87:SdHandler.cpp ****     lastError_ = SdError::NONE;
 569              		.loc 1 87 1 is_stmt 0 view .LVU154
 570 0000 37B5     		push	{r0, r1, r2, r4, r5, lr}
 571              		.cfi_def_cfa_offset 24
 572              		.cfi_offset 4, -12
 573              		.cfi_offset 5, -8
 574              		.cfi_offset 14, -4
  88:SdHandler.cpp **** 
 575              		.loc 1 88 16 view .LVU155
 576 0002 0023     		movs	r3, #0
  90:SdHandler.cpp ****     {
 577              		.loc 1 90 9 view .LVU156
 578 0004 90F8B456 		ldrb	r5, [r0, #1716]	@ zero_extendqisi2
  87:SdHandler.cpp ****     lastError_ = SdError::NONE;
 579              		.loc 1 87 1 view .LVU157
 580 0008 0446     		mov	r4, r0
  88:SdHandler.cpp **** 
 581              		.loc 1 88 16 view .LVU158
 582 000a C0F8B836 		str	r3, [r0, #1720]
  90:SdHandler.cpp ****     {
 583              		.loc 1 90 5 is_stmt 1 view .LVU159
 584 000e 2DB9     		cbnz	r5, .L34
  92:SdHandler.cpp ****         return false;
 585              		.loc 1 92 9 view .LVU160
  92:SdHandler.cpp ****         return false;
 586              		.loc 1 92 20 is_stmt 0 view .LVU161
 587 0010 0523     		movs	r3, #5
 588 0012 C0F8B836 		str	r3, [r0, #1720]
ARM GAS  C:\Users\danig\AppData\Local\Temp\ccjwnbkG.s 			page 18


  93:SdHandler.cpp ****     }
 589              		.loc 1 93 9 is_stmt 1 view .LVU162
 590              	.LVL48:
 591              	.L35:
 107:SdHandler.cpp **** 
 592              		.loc 1 107 1 is_stmt 0 view .LVU163
 593 0016 2846     		mov	r0, r5
 594 0018 03B0     		add	sp, sp, #12
 595              		.cfi_remember_state
 596              		.cfi_def_cfa_offset 12
 597              		@ sp needed
 598 001a 30BD     		pop	{r4, r5, pc}
 599              	.LVL49:
 600              	.L34:
 601              		.cfi_restore_state
  96:SdHandler.cpp ****         CloseFile();
 602              		.loc 1 96 5 is_stmt 1 view .LVU164
 603 001c 90F8B536 		ldrb	r3, [r0, #1717]	@ zero_extendqisi2
 604 0020 1BB1     		cbz	r3, .L36
 605 0022 0191     		str	r1, [sp, #4]
  97:SdHandler.cpp **** 
 606              		.loc 1 97 9 view .LVU165
  97:SdHandler.cpp **** 
 607              		.loc 1 97 18 is_stmt 0 view .LVU166
 608 0024 FFF7FEFF 		bl	_ZN9SdHandler9CloseFileEv
 609              	.LVL50:
  97:SdHandler.cpp **** 
 610              		.loc 1 97 18 view .LVU167
 611 0028 0199     		ldr	r1, [sp, #4]
 612              	.LVL51:
 613              	.L36:
  99:SdHandler.cpp ****     {
 614              		.loc 1 99 5 is_stmt 1 view .LVU168
  99:SdHandler.cpp ****     {
 615              		.loc 1 99 14 is_stmt 0 view .LVU169
 616 002a 0122     		movs	r2, #1
 617 002c 04F59160 		add	r0, r4, #1160
 618 0030 FFF7FEFF 		bl	f_open
 619              	.LVL52:
  99:SdHandler.cpp ****     {
 620              		.loc 1 99 5 view .LVU170
 621 0034 20B1     		cbz	r0, .L37
 101:SdHandler.cpp ****         return false;
 622              		.loc 1 101 9 is_stmt 1 view .LVU171
 101:SdHandler.cpp ****         return false;
 623              		.loc 1 101 20 is_stmt 0 view .LVU172
 624 0036 0223     		movs	r3, #2
 102:SdHandler.cpp ****     }
 625              		.loc 1 102 16 view .LVU173
 626 0038 0025     		movs	r5, #0
 101:SdHandler.cpp ****         return false;
 627              		.loc 1 101 20 view .LVU174
 628 003a C4F8B836 		str	r3, [r4, #1720]
 102:SdHandler.cpp ****     }
 629              		.loc 1 102 9 is_stmt 1 view .LVU175
 102:SdHandler.cpp ****     }
 630              		.loc 1 102 16 is_stmt 0 view .LVU176
ARM GAS  C:\Users\danig\AppData\Local\Temp\ccjwnbkG.s 			page 19


 631 003e EAE7     		b	.L35
 632              	.L37:
 105:SdHandler.cpp ****     return true;
 633              		.loc 1 105 5 is_stmt 1 view .LVU177
 105:SdHandler.cpp ****     return true;
 634              		.loc 1 105 15 is_stmt 0 view .LVU178
 635 0040 0123     		movs	r3, #1
 636 0042 84F8B536 		strb	r3, [r4, #1717]
 106:SdHandler.cpp **** }
 637              		.loc 1 106 5 is_stmt 1 view .LVU179
 106:SdHandler.cpp **** }
 638              		.loc 1 106 12 is_stmt 0 view .LVU180
 639 0046 E6E7     		b	.L35
 640              		.cfi_endproc
 641              	.LFE2742:
 643              		.section	.text._ZN9SdHandler5FlushEv,"ax",%progbits
 644              		.align	1
 645              		.global	_ZN9SdHandler5FlushEv
 646              		.syntax unified
 647              		.thumb
 648              		.thumb_func
 649              		.fpu fpv5-d16
 651              	_ZN9SdHandler5FlushEv:
 652              	.LVL53:
 653              	.LFB2744:
 128:SdHandler.cpp ****     if(fileOpen_)
 654              		.loc 1 128 1 is_stmt 1 view -0
 655              		.cfi_startproc
 656              		@ args = 0, pretend = 0, frame = 0
 657              		@ frame_needed = 0, uses_anonymous_args = 0
 658              		@ link register save eliminated.
 129:SdHandler.cpp ****         CloseFile();
 659              		.loc 1 129 5 view .LVU182
 660 0000 90F8B536 		ldrb	r3, [r0, #1717]	@ zero_extendqisi2
 661 0004 0BB1     		cbz	r3, .L41
 130:SdHandler.cpp **** }
 662              		.loc 1 130 9 view .LVU183
 130:SdHandler.cpp **** }
 663              		.loc 1 130 18 is_stmt 0 view .LVU184
 664 0006 FFF7FEBF 		b	_ZN9SdHandler9CloseFileEv
 665              	.LVL54:
 666              	.L41:
 131:SdHandler.cpp **** 
 667              		.loc 1 131 1 view .LVU185
 668 000a 7047     		bx	lr
 669              		.cfi_endproc
 670              	.LFE2744:
 672              		.section	.rodata._ZN9SdHandler12ListWavFilesEPKcPA256_cPA128_cRii.str1.1,"aMS",%progbits,1
 673              	.LC1:
 674 0000 2E776176 		.ascii	".wav\000"
 674      00
 675              	.LC2:
 676 0005 2E574156 		.ascii	".WAV\000"
 676      00
 677              	.LC3:
 678 000a 2573252E 		.ascii	"%s%.120s\000"
 678      31323073 
ARM GAS  C:\Users\danig\AppData\Local\Temp\ccjwnbkG.s 			page 20


 678      00
 679              	.LC4:
 680 0013 25732F25 		.ascii	"%s/%.120s\000"
 680      2E313230 
 680      7300
 681              		.section	.text._ZN9SdHandler12ListWavFilesEPKcPA256_cPA128_cRii,"ax",%progbits
 682              		.align	1
 683              		.global	_ZN9SdHandler12ListWavFilesEPKcPA256_cPA128_cRii
 684              		.syntax unified
 685              		.thumb
 686              		.thumb_func
 687              		.fpu fpv5-d16
 689              	_ZN9SdHandler12ListWavFilesEPKcPA256_cPA128_cRii:
 690              	.LVL55:
 691              	.LFB2746:
 141:SdHandler.cpp **** 
 142:SdHandler.cpp **** bool SdHandler::ListWavFiles(const char* path,
 143:SdHandler.cpp ****                              char        filepaths[][256],
 144:SdHandler.cpp ****                              char        names[][128],
 145:SdHandler.cpp ****                              int&        count,
 146:SdHandler.cpp ****                              int         maxFiles)
 147:SdHandler.cpp **** {
 692              		.loc 1 147 1 is_stmt 1 view -0
 693              		.cfi_startproc
 694              		@ args = 8, pretend = 0, frame = 328
 695              		@ frame_needed = 0, uses_anonymous_args = 0
 148:SdHandler.cpp ****     count = 0;
 696              		.loc 1 148 5 view .LVU187
 147:SdHandler.cpp ****     count = 0;
 697              		.loc 1 147 1 is_stmt 0 view .LVU188
 698 0000 2DE9F043 		push	{r4, r5, r6, r7, r8, r9, lr}
 699              		.cfi_def_cfa_offset 28
 700              		.cfi_offset 4, -28
 701              		.cfi_offset 5, -24
 702              		.cfi_offset 6, -20
 703              		.cfi_offset 7, -16
 704              		.cfi_offset 8, -12
 705              		.cfi_offset 9, -8
 706              		.cfi_offset 14, -4
 707 0004 D5B0     		sub	sp, sp, #340
 708              		.cfi_def_cfa_offset 368
 709              		.loc 1 148 11 view .LVU189
 710 0006 0025     		movs	r5, #0
 147:SdHandler.cpp ****     count = 0;
 711              		.loc 1 147 1 view .LVU190
 712 0008 0E46     		mov	r6, r1
 713 000a 9146     		mov	r9, r2
 149:SdHandler.cpp **** 
 150:SdHandler.cpp ****     DIR     dir;
 151:SdHandler.cpp ****     FILINFO fno;
 152:SdHandler.cpp **** 
 153:SdHandler.cpp ****     if(f_opendir(&dir, path) != FR_OK)
 714              		.loc 1 153 17 view .LVU191
 715 000c 02A8     		add	r0, sp, #8
 716              	.LVL56:
 147:SdHandler.cpp ****     count = 0;
 717              		.loc 1 147 1 view .LVU192
ARM GAS  C:\Users\danig\AppData\Local\Temp\ccjwnbkG.s 			page 21


 718 000e 9846     		mov	r8, r3
 719 0010 DDE95C47 		ldrd	r4, r7, [sp, #368]
 148:SdHandler.cpp **** 
 720              		.loc 1 148 11 view .LVU193
 721 0014 2560     		str	r5, [r4]
 150:SdHandler.cpp ****     FILINFO fno;
 722              		.loc 1 150 5 is_stmt 1 view .LVU194
 151:SdHandler.cpp **** 
 723              		.loc 1 151 5 view .LVU195
 724              		.loc 1 153 5 view .LVU196
 725              		.loc 1 153 17 is_stmt 0 view .LVU197
 726 0016 FFF7FEFF 		bl	f_opendir
 727              	.LVL57:
 728              		.loc 1 153 5 view .LVU198
 729 001a 0028     		cmp	r0, #0
 730 001c 64D1     		bne	.L52
 731              	.L45:
 154:SdHandler.cpp ****         return false;
 155:SdHandler.cpp **** 
 156:SdHandler.cpp ****     while(count < maxFiles)
 732              		.loc 1 156 5 is_stmt 1 view .LVU199
 733              		.loc 1 156 17 view .LVU200
 734 001e 2368     		ldr	r3, [r4]
 735 0020 BB42     		cmp	r3, r7
 736 0022 56DA     		bge	.L46
 737              	.LBB20:
 157:SdHandler.cpp ****     {
 158:SdHandler.cpp ****         if(f_readdir(&dir, &fno) != FR_OK || fno.fname[0] == 0)
 738              		.loc 1 158 9 view .LVU201
 739              		.loc 1 158 21 is_stmt 0 view .LVU202
 740 0024 0EA9     		add	r1, sp, #56
 741 0026 02A8     		add	r0, sp, #8
 742 0028 FFF7FEFF 		bl	f_readdir
 743              	.LVL58:
 744              		.loc 1 158 43 view .LVU203
 745 002c 0028     		cmp	r0, #0
 746 002e 50D1     		bne	.L46
 747              		.loc 1 158 43 discriminator 2 view .LVU204
 748 0030 9DF84E30 		ldrb	r3, [sp, #78]	@ zero_extendqisi2
 749 0034 002B     		cmp	r3, #0
 750 0036 4CD0     		beq	.L46
 159:SdHandler.cpp ****             break;
 160:SdHandler.cpp **** 
 161:SdHandler.cpp ****         if(fno.fattrib & (AM_HID | AM_DIR))
 751              		.loc 1 161 9 is_stmt 1 view .LVU205
 752 0038 9DF84030 		ldrb	r3, [sp, #64]	@ zero_extendqisi2
 753 003c 13F0120F 		tst	r3, #18
 754 0040 EDD1     		bne	.L45
 162:SdHandler.cpp ****             continue;
 163:SdHandler.cpp **** 
 164:SdHandler.cpp ****         char* dot = strrchr(fno.fname, '.');
 755              		.loc 1 164 9 view .LVU206
 756              		.loc 1 164 28 is_stmt 0 view .LVU207
 757 0042 2E21     		movs	r1, #46
 758 0044 0DF14E00 		add	r0, sp, #78
 759 0048 FFF7FEFF 		bl	strrchr
 760              	.LVL59:
ARM GAS  C:\Users\danig\AppData\Local\Temp\ccjwnbkG.s 			page 22


 165:SdHandler.cpp ****         if(!dot)
 761              		.loc 1 165 9 is_stmt 1 view .LVU208
 762 004c 0546     		mov	r5, r0
 763 004e 0028     		cmp	r0, #0
 764 0050 E5D0     		beq	.L45
 166:SdHandler.cpp ****             continue;
 167:SdHandler.cpp **** 
 168:SdHandler.cpp ****         if(strcmp(dot, ".wav") != 0 && strcmp(dot, ".WAV") != 0)
 765              		.loc 1 168 9 view .LVU209
 766              		.loc 1 168 18 is_stmt 0 view .LVU210
 767 0052 2649     		ldr	r1, .L69
 768 0054 FFF7FEFF 		bl	strcmp
 769              	.LVL60:
 770              		.loc 1 168 9 view .LVU211
 771 0058 28B1     		cbz	r0, .L48
 772              		.loc 1 168 46 discriminator 1 view .LVU212
 773 005a 2549     		ldr	r1, .L69+4
 774 005c 2846     		mov	r0, r5
 775 005e FFF7FEFF 		bl	strcmp
 776              	.LVL61:
 777              		.loc 1 168 37 discriminator 1 view .LVU213
 778 0062 0028     		cmp	r0, #0
 779 0064 DBD1     		bne	.L45
 780              	.L48:
 169:SdHandler.cpp ****             continue;
 170:SdHandler.cpp **** 
 171:SdHandler.cpp ****         // NAME WITHOUT EXTENSION — store clean name for display
 172:SdHandler.cpp ****         strncpy(names[count], fno.fname, 127);
 781              		.loc 1 172 9 is_stmt 1 view .LVU214
 782              		.loc 1 172 28 is_stmt 0 view .LVU215
 783 0066 2068     		ldr	r0, [r4]
 784              		.loc 1 172 16 view .LVU216
 785 0068 0DF14E01 		add	r1, sp, #78
 786 006c 7F22     		movs	r2, #127
 173:SdHandler.cpp ****         names[count][127] = '\0';
 787              		.loc 1 173 27 view .LVU217
 788 006e 0025     		movs	r5, #0
 789              	.LVL62:
 172:SdHandler.cpp ****         names[count][127] = '\0';
 790              		.loc 1 172 16 view .LVU218
 791 0070 08EBC010 		add	r0, r8, r0, lsl #7
 792 0074 FFF7FEFF 		bl	strncpy
 793              	.LVL63:
 794              		.loc 1 173 9 is_stmt 1 view .LVU219
 795              		.loc 1 173 20 is_stmt 0 view .LVU220
 796 0078 2368     		ldr	r3, [r4]
 174:SdHandler.cpp ****         char* nameDot     = strrchr(names[count], '.');
 797              		.loc 1 174 36 view .LVU221
 798 007a 2E21     		movs	r1, #46
 173:SdHandler.cpp ****         names[count][127] = '\0';
 799              		.loc 1 173 27 view .LVU222
 800 007c 08EBC313 		add	r3, r8, r3, lsl #7
 801 0080 83F87F50 		strb	r5, [r3, #127]
 802              		.loc 1 174 9 is_stmt 1 view .LVU223
 803              		.loc 1 174 48 is_stmt 0 view .LVU224
 804 0084 2068     		ldr	r0, [r4]
 805              		.loc 1 174 36 view .LVU225
ARM GAS  C:\Users\danig\AppData\Local\Temp\ccjwnbkG.s 			page 23


 806 0086 08EBC010 		add	r0, r8, r0, lsl #7
 807 008a FFF7FEFF 		bl	strrchr
 808              	.LVL64:
 175:SdHandler.cpp ****         if(nameDot)
 809              		.loc 1 175 9 is_stmt 1 view .LVU226
 810 008e 00B1     		cbz	r0, .L49
 176:SdHandler.cpp ****             *nameDot = '\0';
 811              		.loc 1 176 13 view .LVU227
 812              		.loc 1 176 22 is_stmt 0 view .LVU228
 813 0090 0570     		strb	r5, [r0]
 814              	.L49:
 177:SdHandler.cpp **** 
 178:SdHandler.cpp ****         // FULL PATH — always built as /path/ + filename with .wav
 179:SdHandler.cpp ****         // handles both "/pads" and "/pads/" input gracefully
 180:SdHandler.cpp ****         size_t pathLen = strlen(path);
 815              		.loc 1 180 9 is_stmt 1 view .LVU229
 816              		.loc 1 180 32 is_stmt 0 view .LVU230
 817 0092 3046     		mov	r0, r6
 818              	.LVL65:
 819              		.loc 1 180 32 view .LVU231
 820 0094 FFF7FEFF 		bl	strlen
 821              	.LVL66:
 822 0098 0146     		mov	r1, r0
 823              	.LVL67:
 181:SdHandler.cpp ****         if(pathLen > 0 && path[pathLen - 1] == '/')
 824              		.loc 1 181 9 is_stmt 1 view .LVU232
 182:SdHandler.cpp ****             snprintf(filepaths[count], 256, "%s%.120s", path, fno.fname);
 825              		.loc 1 182 37 is_stmt 0 view .LVU233
 826 009a 2068     		ldr	r0, [r4]
 827              	.LVL68:
 828              		.loc 1 182 37 view .LVU234
 829 009c 09EB0020 		add	r0, r9, r0, lsl #8
 181:SdHandler.cpp ****         if(pathLen > 0 && path[pathLen - 1] == '/')
 830              		.loc 1 181 9 view .LVU235
 831 00a0 89B1     		cbz	r1, .L50
 181:SdHandler.cpp ****         if(pathLen > 0 && path[pathLen - 1] == '/')
 832              		.loc 1 181 43 discriminator 1 view .LVU236
 833 00a2 3144     		add	r1, r1, r6
 834              	.LVL69:
 181:SdHandler.cpp ****         if(pathLen > 0 && path[pathLen - 1] == '/')
 835              		.loc 1 181 24 discriminator 1 view .LVU237
 836 00a4 11F8013C 		ldrb	r3, [r1, #-1]	@ zero_extendqisi2
 837 00a8 2F2B     		cmp	r3, #47
 838 00aa 0CD1     		bne	.L50
 839              		.loc 1 182 13 is_stmt 1 view .LVU238
 840              		.loc 1 182 21 is_stmt 0 view .LVU239
 841 00ac 0DF14E03 		add	r3, sp, #78
 842 00b0 104A     		ldr	r2, .L69+8
 843 00b2 0093     		str	r3, [sp]
 844 00b4 3346     		mov	r3, r6
 845              	.LVL70:
 846              	.L68:
 183:SdHandler.cpp ****         else
 184:SdHandler.cpp ****             snprintf(filepaths[count], 256, "%s/%.120s", path, fno.fname);
 847              		.loc 1 184 21 view .LVU240
 848 00b6 4FF48071 		mov	r1, #256
 849 00ba FFF7FEFF 		bl	snprintf
ARM GAS  C:\Users\danig\AppData\Local\Temp\ccjwnbkG.s 			page 24


 850              	.LVL71:
 185:SdHandler.cpp **** 
 186:SdHandler.cpp ****         count++;
 851              		.loc 1 186 9 is_stmt 1 view .LVU241
 852              		.loc 1 186 14 is_stmt 0 view .LVU242
 853 00be 2368     		ldr	r3, [r4]
 854 00c0 0133     		adds	r3, r3, #1
 855 00c2 2360     		str	r3, [r4]
 856 00c4 ABE7     		b	.L45
 857              	.L50:
 184:SdHandler.cpp **** 
 858              		.loc 1 184 13 is_stmt 1 view .LVU243
 184:SdHandler.cpp **** 
 859              		.loc 1 184 21 is_stmt 0 view .LVU244
 860 00c6 0DF14E03 		add	r3, sp, #78
 861 00ca 0B4A     		ldr	r2, .L69+12
 862 00cc 0093     		str	r3, [sp]
 863 00ce 3346     		mov	r3, r6
 864 00d0 F1E7     		b	.L68
 865              	.L46:
 184:SdHandler.cpp **** 
 866              		.loc 1 184 21 view .LVU245
 867              	.LBE20:
 187:SdHandler.cpp ****     }
 188:SdHandler.cpp **** 
 189:SdHandler.cpp ****     f_closedir(&dir);
 868              		.loc 1 189 5 is_stmt 1 view .LVU246
 869              		.loc 1 189 15 is_stmt 0 view .LVU247
 870 00d2 02A8     		add	r0, sp, #8
 871 00d4 FFF7FEFF 		bl	f_closedir
 872              	.LVL72:
 190:SdHandler.cpp ****     return count > 0;
 873              		.loc 1 190 5 is_stmt 1 view .LVU248
 874              		.loc 1 190 20 is_stmt 0 view .LVU249
 875 00d8 2068     		ldr	r0, [r4]
 876 00da 0028     		cmp	r0, #0
 877 00dc D4BF     		ite	le
 878 00de 0020     		movle	r0, #0
 879 00e0 0120     		movgt	r0, #1
 880              	.L44:
 191:SdHandler.cpp **** }...
 881              		.loc 1 191 1 view .LVU250
 882 00e2 55B0     		add	sp, sp, #340
 883              		.cfi_remember_state
 884              		.cfi_def_cfa_offset 28
 885              		@ sp needed
 886 00e4 BDE8F083 		pop	{r4, r5, r6, r7, r8, r9, pc}
 887              	.LVL73:
 888              	.L52:
 889              		.cfi_restore_state
 154:SdHandler.cpp ****         return false;
 890              		.loc 1 154 16 view .LVU251
 891 00e8 2846     		mov	r0, r5
 892 00ea FAE7     		b	.L44
 893              	.L70:
 894              		.align	2
 895              	.L69:
ARM GAS  C:\Users\danig\AppData\Local\Temp\ccjwnbkG.s 			page 25


 896 00ec 00000000 		.word	.LC1
 897 00f0 05000000 		.word	.LC2
 898 00f4 0A000000 		.word	.LC3
 899 00f8 13000000 		.word	.LC4
 900              		.cfi_endproc
 901              	.LFE2746:
 903              		.text
 904              	.Letext0:
 905              		.file 4 "c:\\program files\\daisytoolchain\\arm-none-eabi\\include\\machine\\_default_types.h"
 906              		.file 5 "c:\\program files\\daisytoolchain\\arm-none-eabi\\include\\sys\\_stdint.h"
 907              		.file 6 "c:\\program files\\daisytoolchain\\arm-none-eabi\\include\\stdint.h"
 908              		.file 7 "c:\\program files\\daisytoolchain\\lib\\gcc\\arm-none-eabi\\10.2.1\\include\\stddef.h"
 909              		.file 8 "c:\\program files\\daisytoolchain\\arm-none-eabi\\include\\c++\\10.2.1\\cmath"
 910              		.file 9 "c:\\program files\\daisytoolchain\\arm-none-eabi\\include\\c++\\10.2.1\\bits\\std_abs.h"
 911              		.file 10 "c:\\program files\\daisytoolchain\\arm-none-eabi\\include\\c++\\10.2.1\\cstdlib"
 912              		.file 11 "c:\\program files\\daisytoolchain\\arm-none-eabi\\include\\c++\\10.2.1\\cstdint"
 913              		.file 12 "c:\\program files\\daisytoolchain\\arm-none-eabi\\include\\c++\\10.2.1\\type_traits"
 914              		.file 13 "c:\\program files\\daisytoolchain\\arm-none-eabi\\include\\c++\\10.2.1\\debug\\debug.h"
 915              		.file 14 "c:\\program files\\daisytoolchain\\arm-none-eabi\\include\\c++\\10.2.1\\arm-none-eabi\\t
 916              		.file 15 "c:\\program files\\daisytoolchain\\arm-none-eabi\\include\\c++\\10.2.1\\bits\\algorithmf
 917              		.file 16 "c:\\program files\\daisytoolchain\\arm-none-eabi\\include\\c++\\10.2.1\\bits\\stl_pair.h
 918              		.file 17 "c:\\program files\\daisytoolchain\\arm-none-eabi\\include\\c++\\10.2.1\\bits\\exception_
 919              		.file 18 "c:\\program files\\daisytoolchain\\arm-none-eabi\\include\\c++\\10.2.1\\cstdarg"
 920              		.file 19 "c:\\program files\\daisytoolchain\\arm-none-eabi\\include\\c++\\10.2.1\\cstdio"
 921              		.file 20 "c:\\program files\\daisytoolchain\\arm-none-eabi\\include\\c++\\10.2.1\\cstring"
 922              		.file 21 "c:\\program files\\daisytoolchain\\arm-none-eabi\\include\\c++\\10.2.1\\cstddef"
 923              		.file 22 "c:\\program files\\daisytoolchain\\arm-none-eabi\\include\\c++\\10.2.1\\bits\\predefined
 924              		.file 23 "c:\\program files\\daisytoolchain\\arm-none-eabi\\include\\sys\\_types.h"
 925              		.file 24 "c:\\program files\\daisytoolchain\\arm-none-eabi\\include\\sys\\reent.h"
 926              		.file 25 "c:\\program files\\daisytoolchain\\arm-none-eabi\\include\\sys\\lock.h"
 927              		.file 26 "c:\\program files\\daisytoolchain\\arm-none-eabi\\include\\math.h"
 928              		.file 27 "c:\\program files\\daisytoolchain\\arm-none-eabi\\include\\stdlib.h"
 929              		.file 28 "c:\\program files\\daisytoolchain\\arm-none-eabi\\include\\c++\\10.2.1\\math.h"
 930              		.file 29 "c:\\program files\\daisytoolchain\\arm-none-eabi\\include\\c++\\10.2.1\\stdlib.h"
 931              		.file 30 "../../libDaisy//src/daisy_core.h"
 932              		.file 31 "../../libDaisy//src/per/tim.h"
 933              		.file 32 "../../libDaisy//src/sys/system.h"
 934              		.file 33 "../../libDaisy//src/per/qspi.h"
 935              		.file 34 "../../libDaisy//src/per/dac.h"
 936              		.file 35 "../../libDaisy//src/per/gpio.h"
 937              		.file 36 "../../libDaisy//src/per/sai.h"
 938              		.file 37 "../../libDaisy//src/hid/audio.h"
 939              		.file 38 "../../libDaisy//src/per/adc.h"
 940              		.file 39 "../../libDaisy//src/hid/usb.h"
 941              		.file 40 "../../libDaisy//src/dev/codec_ak4556.h"
 942              		.file 41 "../../libDaisy//src/dev/max11300.h"
 943              		.file 42 "../../libDaisy//src/dev/sr_595.h"
 944              		.file 43 "../../libDaisy//src/util/wav_format.h"
 945              		.file 44 "../../libDaisy//src/daisy_seed.h"
 946              		.file 45 "../../libDaisy//src/dev/sdram.h"
 947              		.file 46 "c:\\program files\\daisytoolchain\\lib\\gcc\\arm-none-eabi\\10.2.1\\include\\stdarg.h"
 948              		.file 47 "c:\\program files\\daisytoolchain\\arm-none-eabi\\include\\stdio.h"
 949              		.file 48 "c:\\program files\\daisytoolchain\\arm-none-eabi\\include\\string.h"
 950              		.file 49 "../../libDaisy//Middlewares/Third_Party/FatFs/src/integer.h"
 951              		.file 50 "../../libDaisy//Middlewares/Third_Party/FatFs/src/ff.h"
 952              		.file 51 "SdHandler.h"
 953              		.file 52 "<built-in>"
ARM GAS  C:\Users\danig\AppData\Local\Temp\ccjwnbkG.s 			page 26


ARM GAS  C:\Users\danig\AppData\Local\Temp\ccjwnbkG.s 			page 27

